
Memory Configuration

Name             Origin             Length             Attributes
*default*        0x0000000000000000 0xffffffffffffffff

Linker script and memory map

Address of section .text set to 0x7000000
LOAD build/us/bin/outside.elf
LOAD build/us/levels/castle_grounds/leveldata.o
                [!provide]                        PROVIDE (__executable_start = SEGMENT_START ("text-segment", 0x400000))
                0x0000000000400000                . = SEGMENT_START ("text-segment", 0x400000)

.interp
 *(.interp)

.MIPS.abiflags  0x0000000000400000       0x18
 *(.MIPS.abiflags)
 .MIPS.abiflags
                0x0000000000400000       0x18 build/us/levels/castle_grounds/leveldata.o

.reginfo        0x0000000000400018       0x18
 *(.reginfo)
 .reginfo       0x0000000000400018       0x18 build/us/levels/castle_grounds/leveldata.o

.MIPS.xhash
 *(.MIPS.xhash)

.note.gnu.build-id
 *(.note.gnu.build-id)

.dynamic
 *(.dynamic)

.hash
 *(.hash)

.gnu.hash
 *(.gnu.hash)

.dynsym
 *(.dynsym)

.dynstr
 *(.dynstr)

.gnu.version
 *(.gnu.version)

.gnu.version_d
 *(.gnu.version_d)

.gnu.version_r
 *(.gnu.version_r)

.rel.dyn        0x0000000000400018        0x0
 *(.rel.init)
 *(.rel.text .rel.text.* .rel.gnu.linkonce.t.*)
 *(.rel.fini)
 *(.rel.rodata .rel.rodata.* .rel.gnu.linkonce.r.*)
 *(.rel.data.rel.ro .rel.data.rel.ro.* .rel.gnu.linkonce.d.rel.ro.*)
 *(.rel.data .rel.data.* .rel.gnu.linkonce.d.*)
 *(.rel.tdata .rel.tdata.* .rel.gnu.linkonce.td.*)
 *(.rel.tbss .rel.tbss.* .rel.gnu.linkonce.tb.*)
 *(.rel.ctors)
 *(.rel.dtors)
 *(.rel.got)
 *(.rel.dyn)
 .rel.dyn       0x0000000000400018        0x0 build/us/levels/castle_grounds/leveldata.o
 *(.rel.sdata .rel.sdata.* .rel.gnu.linkonce.s.*)
 *(.rel.sbss .rel.sbss.* .rel.gnu.linkonce.sb.*)
 *(.rel.sdata2 .rel.sdata2.* .rel.gnu.linkonce.s2.*)
 *(.rel.sbss2 .rel.sbss2.* .rel.gnu.linkonce.sb2.*)
 *(.rel.bss .rel.bss.* .rel.gnu.linkonce.b.*)
                [!provide]                        PROVIDE (__rel_iplt_start = .)
 *(.rel.iplt)
                [!provide]                        PROVIDE (__rel_iplt_end = .)

.rela.dyn       0x0000000000400018        0x0
 *(.rela.init)
 *(.rela.text .rela.text.* .rela.gnu.linkonce.t.*)
 *(.rela.fini)
 *(.rela.rodata .rela.rodata.* .rela.gnu.linkonce.r.*)
 *(.rela.data .rela.data.* .rela.gnu.linkonce.d.*)
 *(.rela.tdata .rela.tdata.* .rela.gnu.linkonce.td.*)
 *(.rela.tbss .rela.tbss.* .rela.gnu.linkonce.tb.*)
 *(.rela.ctors)
 *(.rela.dtors)
 *(.rela.got)
 *(.rela.sdata .rela.sdata.* .rela.gnu.linkonce.s.*)
 *(.rela.sbss .rela.sbss.* .rela.gnu.linkonce.sb.*)
 *(.rela.sdata2 .rela.sdata2.* .rela.gnu.linkonce.s2.*)
 *(.rela.sbss2 .rela.sbss2.* .rela.gnu.linkonce.sb2.*)
 *(.rela.bss .rela.bss.* .rela.gnu.linkonce.b.*)
                [!provide]                        PROVIDE (__rela_iplt_start = .)
 *(.rela.iplt)
                [!provide]                        PROVIDE (__rela_iplt_end = .)

.rel.plt
 *(.rel.plt)

.rela.plt
 *(.rela.plt)

.init
 *(SORT_NONE(.init))

.plt
 *(.plt)

.iplt
 *(.iplt)

.text           0x0000000007000000        0x0
                0x0000000007000000                _ftext = .
 *(.text.unlikely .text.*_unlikely .text.unlikely.*)
 *(.text.exit .text.exit.*)
 *(.text.startup .text.startup.*)
 *(.text.hot .text.hot.*)
 *(SORT_BY_NAME(.text.sorted.*))
 *(.text .stub .text.* .gnu.linkonce.t.*)
 .text          0x0000000007000000        0x0 build/us/levels/castle_grounds/leveldata.o
 *(.gnu.warning)
 *(.mips16.fn.*)
 *(.mips16.call.*)

.fini
 *(SORT_NONE(.fini))
                [!provide]                        PROVIDE (__etext = .)
                [!provide]                        PROVIDE (_etext = .)
                [!provide]                        PROVIDE (etext = .)

.rodata
 *(.rodata .rodata.* .gnu.linkonce.r.*)

.rodata1
 *(.rodata1)

.sdata2
 *(.sdata2 .sdata2.* .gnu.linkonce.s2.*)

.sbss2
 *(.sbss2 .sbss2.* .gnu.linkonce.sb2.*)

.eh_frame_hdr
 *(.eh_frame_hdr)
 *(.eh_frame_entry .eh_frame_entry.*)

.eh_frame
 *(.eh_frame)
 *(.eh_frame.*)

.gcc_except_table
 *(.gcc_except_table .gcc_except_table.*)

.gnu_extab
 *(.gnu_extab*)

.exception_ranges
 *(.exception_ranges*)
                0x0000000007000000                . = DATA_SEGMENT_ALIGN (CONSTANT (MAXPAGESIZE), CONSTANT (COMMONPAGESIZE))

.eh_frame
 *(.eh_frame)
 *(.eh_frame.*)

.gnu_extab
 *(.gnu_extab)

.gcc_except_table
 *(.gcc_except_table .gcc_except_table.*)

.exception_ranges
 *(.exception_ranges*)

.tdata          0x0000000007000000        0x0
                [!provide]                        PROVIDE (__tdata_start = .)
 *(.tdata .tdata.* .gnu.linkonce.td.*)

.tbss
 *(.tbss .tbss.* .gnu.linkonce.tb.*)
 *(.tcommon)

.preinit_array  0x0000000007000000        0x0
                [!provide]                        PROVIDE (__preinit_array_start = .)
 *(.preinit_array)
                [!provide]                        PROVIDE (__preinit_array_end = .)

.init_array     0x0000000007000000        0x0
                [!provide]                        PROVIDE (__init_array_start = .)
 *(SORT_BY_INIT_PRIORITY(.init_array.*) SORT_BY_INIT_PRIORITY(.ctors.*))
 *(.init_array EXCLUDE_FILE(*crtend?.o *crtend.o *crtbegin?.o *crtbegin.o) .ctors)
                [!provide]                        PROVIDE (__init_array_end = .)

.fini_array     0x0000000007000000        0x0
                [!provide]                        PROVIDE (__fini_array_start = .)
 *(SORT_BY_INIT_PRIORITY(.fini_array.*) SORT_BY_INIT_PRIORITY(.dtors.*))
 *(.fini_array EXCLUDE_FILE(*crtend?.o *crtend.o *crtbegin?.o *crtbegin.o) .dtors)
                [!provide]                        PROVIDE (__fini_array_end = .)

.ctors
 *crtbegin.o(.ctors)
 *crtbegin?.o(.ctors)
 *(EXCLUDE_FILE(*crtend?.o *crtend.o) .ctors)
 *(SORT_BY_NAME(.ctors.*))
 *(.ctors)

.dtors
 *crtbegin.o(.dtors)
 *crtbegin?.o(.dtors)
 *(EXCLUDE_FILE(*crtend?.o *crtend.o) .dtors)
 *(SORT_BY_NAME(.dtors.*))
 *(.dtors)

.jcr
 *(.jcr)

.data.rel.ro
 *(.data.rel.ro.local* .gnu.linkonce.d.rel.ro.local.*)
 *(.data.rel.ro .data.rel.ro.* .gnu.linkonce.d.rel.ro.*)
                0x0000000007000000                . = DATA_SEGMENT_RELRO_END (., 0x0)

.data           0x0000000007000000   0x102906
                0x0000000007000000                _fdata = .
 *(.data .data.* .gnu.linkonce.d.*)
 .data          0x0000000007000000   0x102906 build/us/levels/castle_grounds/leveldata.o
                0x0000000007000000                fatyosher_anims
                0x0000000007001938                fatyosher_material_revert_render_settings
                0x0000000007001978                fatyosher_forearm_r_mesh_layer_1
                0x0000000007001998                fatyosher_forearm_r_skinned_mesh_layer_1
                0x00000000070019b0                fatyosher_uparm_r_mesh_layer_1
                0x00000000070019c8                fatyosher_uparm_r_skinned_mesh_layer_1
                0x00000000070019e0                fatyosher_forearm_l_mesh_layer_1
                0x0000000007001a00                fatyosher_forearm_l_skinned_mesh_layer_1
                0x0000000007001a18                fatyosher_uparm_l_mesh_layer_1
                0x0000000007001a30                fatyosher_uparm_l_skinned_mesh_layer_1
                0x0000000007001a48                fatyosher_leg_r_mesh_layer_1
                0x0000000007001a78                fatyosher_leg_l_mesh_layer_1
                0x0000000007001aa8                fatyosher_Bone_001_mesh_layer_1
                0x0000000007001ae8                fatyosher_Bone_mesh_layer_1
                0x0000000007001b18                mat_fatyosher_material_2_f3d
                0x0000000007001b90                mat_fatyosher_material_3_f3d
                0x0000000007001c08                mat_revert_fatyosher_material_0_f3d
                0x0000000007001c20                mat_fatyosher_material_0_f3d
                0x0000000007001cd0                mat_fatyosher_f3d_material
                0x0000000007001d08                fatyosher_forearm_r_mesh_layer_1_tri_1
                0x0000000007001d30                fatyosher_forearm_r_mesh_layer_1_vtx_1
                0x0000000007001d90                fatyosher_forearm_r_mesh_layer_1_tri_0
                0x0000000007001dc0                fatyosher_forearm_r_mesh_layer_1_vtx_0
                0x0000000007001e00                fatyosher_forearm_r_skinned_mesh_layer_1_tri_0
                0x0000000007001e10                fatyosher_forearm_r_skinned_mesh_layer_1_vtx_0
                0x0000000007001e40                fatyosher_uparm_r_mesh_layer_1_tri_0
                0x0000000007001e68                fatyosher_uparm_r_mesh_layer_1_vtx_0
                0x0000000007001e98                fatyosher_uparm_r_skinned_mesh_layer_1_tri_0
                0x0000000007001ea8                fatyosher_uparm_r_skinned_mesh_layer_1_vtx_0
                0x0000000007001ed8                fatyosher_forearm_l_mesh_layer_1_tri_1
                0x0000000007001f00                fatyosher_forearm_l_mesh_layer_1_vtx_1
                0x0000000007001f60                fatyosher_forearm_l_mesh_layer_1_tri_0
                0x0000000007001f90                fatyosher_forearm_l_mesh_layer_1_vtx_0
                0x0000000007001fd0                fatyosher_forearm_l_skinned_mesh_layer_1_tri_0
                0x0000000007001fe0                fatyosher_forearm_l_skinned_mesh_layer_1_vtx_0
                0x0000000007002010                fatyosher_uparm_l_mesh_layer_1_tri_0
                0x0000000007002038                fatyosher_uparm_l_mesh_layer_1_vtx_0
                0x0000000007002068                fatyosher_uparm_l_skinned_mesh_layer_1_tri_0
                0x0000000007002078                fatyosher_uparm_l_skinned_mesh_layer_1_vtx_0
                0x00000000070020a8                fatyosher_leg_r_mesh_layer_1_tri_1
                0x00000000070020d8                fatyosher_leg_r_mesh_layer_1_vtx_1
                0x0000000007002138                fatyosher_leg_r_mesh_layer_1_tri_0
                0x0000000007002198                fatyosher_leg_r_mesh_layer_1_vtx_0
                0x00000000070022b8                fatyosher_leg_l_mesh_layer_1_tri_1
                0x00000000070022e8                fatyosher_leg_l_mesh_layer_1_vtx_1
                0x0000000007002348                fatyosher_leg_l_mesh_layer_1_tri_0
                0x00000000070023a8                fatyosher_leg_l_mesh_layer_1_vtx_0
                0x00000000070024c8                fatyosher_Bone_001_mesh_layer_1_tri_2
                0x0000000007002540                fatyosher_Bone_001_mesh_layer_1_vtx_2
                0x00000000070026f0                fatyosher_Bone_001_mesh_layer_1_tri_1
                0x0000000007002768                fatyosher_Bone_001_mesh_layer_1_vtx_1
                0x00000000070028e8                fatyosher_Bone_001_mesh_layer_1_tri_0
                0x0000000007002970                fatyosher_Bone_001_mesh_layer_1_vtx_0
                0x0000000007002af0                fatyosher_Bone_mesh_layer_1_tri_1
                0x0000000007002b70                fatyosher_Bone_mesh_layer_1_vtx_1
                0x0000000007002d20                fatyosher_Bone_mesh_layer_1_tri_0
                0x0000000007002d90                fatyosher_Bone_mesh_layer_1_vtx_0
                0x0000000007002f40                fatyosher__34B9EA8451_c_ia8
                0x0000000007003340                fatyosher__34B9EA8451_c_ia8_aligner
                0x0000000007003348                fatyosher__5E58AD88_c_ia8
                0x0000000007003448                fatyosher__5E58AD88_c_ia8_aligner
                0x0000000007003450                fatyosher__3BA53B0B_c_ci4_pal_rgba16
                0x0000000007003458                fatyosher__3BA53B0B_c_ci4_pal_rgba16_aligner
                0x0000000007003460                fatyosher__3BA53B0B_c_ci4
                0x00000000070034e0                fatyosher__3BA53B0B_c_ci4_aligner
                0x00000000070034e8                fatyosher_material_2_f3d_lights
                0x0000000007003500                fatyosher_material_3_f3d_lights
                0x0000000007003518                fatyosher_material_0_f3d_lights
                0x0000000007003530                fatyosher_f3d_material_lights
                0x0000000007003548                bounceball_material_revert_render_settings
                0x0000000007003588                bounceball_Icosphere_mesh_layer_1
                0x00000000070035a0                mat_bounceball_f3d_material
                0x0000000007003618                bounceball_Icosphere_mesh_layer_1_tri_0
                0x0000000007003768                bounceball_Icosphere_mesh_layer_1_vtx_0
                0x0000000007003c38                bounceball__4757_rgba32
                0x0000000007004c38                bounceball__4757_rgba32_aligner
                0x0000000007004c40                bounceball_f3d_material_lights
                0x0000000007004c58                upcarpet_collision
                0x0000000007004ce0                upcarpet_material_revert_render_settings
                0x0000000007004d20                upcarpet_Plane_002_mesh_layer_1
                0x0000000007004d58                mat_revert_upcarpet_f3d_material
                0x0000000007004d78                mat_upcarpet_f3d_material
                0x0000000007004e30                mat_revert_upcarpet_f3d_material_074
                0x0000000007004e50                mat_upcarpet_f3d_material_074
                0x0000000007004f08                upcarpet_Plane_002_mesh_layer_1_tri_1
                0x0000000007004f38                upcarpet_Plane_002_mesh_layer_1_vtx_1
                0x0000000007004fd8                upcarpet_Plane_002_mesh_layer_1_tri_0
                0x0000000007004ff0                upcarpet_Plane_002_mesh_layer_1_vtx_0
                0x0000000007005030                upcarpet_KKIIDDZZ_DAT_1858__p00_ci4_pal_rgba16
                0x0000000007005050                upcarpet_KKIIDDZZ_DAT_1858__p00_ci4_pal_rgba16_aligner
                0x0000000007005058                upcarpet_KKIIDDZZ_DAT_1858__p00_ci4
                0x0000000007005858                upcarpet_KKIIDDZZ_DAT_1858__p00_ci4_aligner
                0x0000000007005860                upcarpet_Tatami00_ci4_pal_rgba16
                0x0000000007005880                upcarpet_Tatami00_ci4_pal_rgba16_aligner
                0x0000000007005888                upcarpet_Tatami00_ci4
                0x0000000007006088                upcarpet_Tatami00_ci4_aligner
                0x0000000007006090                upcarpet_f3d_material_lights
                0x00000000070060a8                upcarpet_f3d_material_074_lights
                0x00000000070060c0                bowsercartOW_collision
                0x0000000007006270                bowsercartOW_material_revert_render_settings
                0x00000000070062b0                bowsercartOW_Cube_mesh_layer_6
                0x00000000070062d0                bowsercartOW_Cube_mesh_layer_1
                0x0000000007006308                mat_revert_bowsercartOW_f3d_material_003
                0x0000000007006328                mat_bowsercartOW_f3d_material_003
                0x00000000070063e0                mat_revert_bowsercartOW_f3d_material_002
                0x00000000070063f8                mat_bowsercartOW_f3d_material_002
                0x0000000007006438                mat_revert_bowsercartOW_f3d_material_001
                0x0000000007006458                mat_bowsercartOW_f3d_material_001
                0x0000000007006510                bowsercartOW_Cube_mesh_layer_6_tri_0
                0x0000000007006528                bowsercartOW_Cube_mesh_layer_6_vtx_0
                0x0000000007006568                bowsercartOW_Cube_mesh_layer_1_tri_1
                0x0000000007006608                bowsercartOW_Cube_mesh_layer_1_vtx_1
                0x00000000070068c8                bowsercartOW_Cube_mesh_layer_1_tri_0
                0x00000000070069c0                bowsercartOW_Cube_mesh_layer_1_vtx_0
                0x0000000007006d10                bowsercartOW_bowserstar_ci4_pal_rgba16
                0x0000000007006d30                bowsercartOW_bowserstar_ci4_pal_rgba16_aligner
                0x0000000007006d38                bowsercartOW_bowserstar_ci4
                0x0000000007007538                bowsercartOW_bowserstar_ci4_aligner
                0x0000000007007540                bowsercartOW_bowserrim_ci4_pal_rgba16
                0x0000000007007560                bowsercartOW_bowserrim_ci4_pal_rgba16_aligner
                0x0000000007007568                bowsercartOW_bowserrim_ci4
                0x0000000007007d68                bowsercartOW_bowserrim_ci4_aligner
                0x0000000007007d70                bowsercartOW_f3d_material_003_lights
                0x0000000007007d88                bowsercartOW_f3d_material_002_lights
                0x0000000007007da0                bowsercartOW_f3d_material_001_lights
                0x0000000007007db8                bowserfightgate_collision
                0x0000000007007df0                bowserfightgate_material_revert_render_settings
                0x0000000007007e30                bowserfightgate_Cube_001_mesh_layer_4
                0x0000000007007e88                bowserfightgate_Cube_001_mesh
                0x0000000007007ee0                mat_revert_bowserfightgate_f3d_material_004
                0x0000000007007f08                mat_bowserfightgate_f3d_material_004
                0x0000000007007fb0                mat_revert_bowserfightgate_f3d_material
                0x0000000007007fd0                mat_bowserfightgate_f3d_material
                0x0000000007008088                mat_revert_bowserfightgate_sm64_material_006
                0x00000000070080a8                mat_bowserfightgate_sm64_material_006
                0x0000000007008160                mat_revert_bowserfightgate_sm64_material_002
                0x0000000007008188                mat_bowserfightgate_sm64_material_002
                0x0000000007008230                bowserfightgate_Cube_001_mesh_layer_4_tri_1
                0x0000000007008248                bowserfightgate_Cube_001_mesh_layer_4_vtx_1
                0x0000000007008288                bowserfightgate_Cube_001_mesh_layer_4_tri_0
                0x00000000070082a0                bowserfightgate_Cube_001_mesh_layer_4_vtx_0
                0x00000000070082e0                bowserfightgate_Cube_001_mesh_layer_4_vtx_cull
                0x0000000007008360                bowserfightgate_Cube_001_mesh_tri_1
                0x0000000007008390                bowserfightgate_Cube_001_mesh_vtx_1
                0x0000000007008490                bowserfightgate_Cube_001_mesh_tri_0
                0x00000000070084a8                bowserfightgate_Cube_001_mesh_vtx_0
                0x00000000070084e8                bowserfightgate_Cube_001_mesh_vtx_cull
                0x0000000007008568                bowserfightgate_segment2_00200_rgba16_ci4_pal_rgba16
                0x0000000007008588                bowserfightgate_segment2_00200_rgba16_ci4_pal_rgba16_aligner
                0x0000000007008590                bowserfightgate_segment2_00200_rgba16_ci4
                0x0000000007008610                bowserfightgate_segment2_00200_rgba16_ci4_aligner
                0x0000000007008618                bowserfightgate_machines_pass01_txynz_ci4_pal_rgba16
                0x0000000007008638                bowserfightgate_machines_pass01_txynz_ci4_pal_rgba16_aligner
                0x0000000007008640                bowserfightgate_machines_pass01_txynz_ci4
                0x0000000007008e40                bowserfightgate_machines_pass01_txynz_ci4_aligner
                0x0000000007008e48                bowserfightgate_F301_5_Chain01_ci8_pal_rgba16
                0x0000000007008f98                bowserfightgate_F301_5_Chain01_ci8_pal_rgba16_aligner
                0x0000000007008fa0                bowserfightgate_F301_5_Chain01_ci8
                0x00000000070097a0                bowserfightgate_F301_5_Chain01_ci8_aligner
                0x00000000070097a8                bowserfightgate_segment2_01000_rgba16_ci4_pal_rgba16
                0x00000000070097c8                bowserfightgate_segment2_01000_rgba16_ci4_pal_rgba16_aligner
                0x00000000070097d0                bowserfightgate_segment2_01000_rgba16_ci4
                0x0000000007009850                bowserfightgate_segment2_01000_rgba16_ci4_aligner
                0x0000000007009858                bowserfightgate_f3d_material_lights
                0x0000000007009870                bowserfightgate_sm64_material_006_lights
                0x0000000007009888                mechbowser_anims
                0x000000000700cfc8                mechbowser_material_revert_render_settings
                0x000000000700d000                mechbowser_arm_r_mesh_layer_1
                0x000000000700d020                mechbowser_arm_l_mesh_layer_1
                0x000000000700d040                mechbowser_Bone_005_mesh_layer_1
                0x000000000700d080                mechbowser_Bone_005_skinned_mesh_layer_1
                0x000000000700d0a0                mechbowser_Bone_004_mesh_layer_1
                0x000000000700d0f0                mechbowser_Bone_002_mesh_layer_1
                0x000000000700d110                mechbowser_Bone_mesh_layer_1
                0x000000000700d148                mat_revert_mechbowser_f3d_material_003
                0x000000000700d168                mat_mechbowser_f3d_material_003
                0x000000000700d220                mat_revert_mechbowser_f3d_material_004
                0x000000000700d240                mat_mechbowser_f3d_material_004
                0x000000000700d2f8                mat_revert_mechbowser_f3d_material_001
                0x000000000700d318                mat_mechbowser_f3d_material_001
                0x000000000700d3d0                mat_revert_mechbowser_f3d_material
                0x000000000700d3e8                mat_mechbowser_f3d_material
                0x000000000700d468                mechbowser_arm_r_mesh_layer_1_tri_0
                0x000000000700d528                mechbowser_arm_r_mesh_layer_1_vtx_0
                0x000000000700d9f8                mechbowser_arm_l_mesh_layer_1_tri_0
                0x000000000700dab8                mechbowser_arm_l_mesh_layer_1_vtx_0
                0x000000000700df78                mechbowser_Bone_005_mesh_layer_1_tri_2
                0x000000000700e000                mechbowser_Bone_005_mesh_layer_1_vtx_2
                0x000000000700e240                mechbowser_Bone_005_mesh_layer_1_tri_1
                0x000000000700e2a0                mechbowser_Bone_005_mesh_layer_1_vtx_1
                0x000000000700e4e0                mechbowser_Bone_005_mesh_layer_1_tri_0
                0x000000000700e510                mechbowser_Bone_005_mesh_layer_1_vtx_0
                0x000000000700e590                mechbowser_Bone_005_skinned_mesh_layer_1_tri_0
                0x000000000700e5a0                mechbowser_Bone_005_skinned_mesh_layer_1_vtx_0
                0x000000000700e620                mechbowser_Bone_004_mesh_layer_1_tri_2
                0x000000000700e660                mechbowser_Bone_004_mesh_layer_1_vtx_2
                0x000000000700e780                mechbowser_Bone_004_mesh_layer_1_tri_1
                0x000000000700e7a0                mechbowser_Bone_004_mesh_layer_1_vtx_1
                0x000000000700e7e0                mechbowser_Bone_004_mesh_layer_1_tri_0
                0x000000000700e948                mechbowser_Bone_004_mesh_layer_1_vtx_0
                0x000000000700f1d8                mechbowser_Bone_002_mesh_layer_1_tri_0
                0x000000000700f2a8                mechbowser_Bone_002_mesh_layer_1_vtx_0
                0x000000000700f5e8                mechbowser_Bone_mesh_layer_1_tri_1
                0x000000000700f610                mechbowser_Bone_mesh_layer_1_vtx_1
                0x000000000700f690                mechbowser_Bone_mesh_layer_1_tri_0
                0x000000000700f750                mechbowser_Bone_mesh_layer_1_vtx_0
                0x000000000700fc00                mechbowser__0x2440_ci4_pal_rgba16
                0x000000000700fc20                mechbowser__0x2440_ci4_pal_rgba16_aligner
                0x000000000700fc28                mechbowser__0x2440_ci4
                0x0000000007010428                mechbowser__0x2440_ci4_aligner
                0x0000000007010430                mechbowser_YellowBlockTop_ci4_pal_rgba16
                0x0000000007010438                mechbowser_YellowBlockTop_ci4_pal_rgba16_aligner
                0x0000000007010440                mechbowser_YellowBlockTop_ci4
                0x0000000007010640                mechbowser_YellowBlockTop_ci4_aligner
                0x0000000007010648                mechbowser_Unbenannt_1_ci8_pal_rgba16
                0x00000000070106b0                mechbowser_Unbenannt_1_ci8_pal_rgba16_aligner
                0x00000000070106b8                mechbowser_Unbenannt_1_ci8
                0x00000000070108b8                mechbowser_Unbenannt_1_ci8_aligner
                0x00000000070108c0                mechbowser_END1_ALL_2__p00_i8
                0x00000000070118c0                mechbowser_END1_ALL_2__p00_i8_aligner
                0x00000000070118c8                mechbowser_f3d_material_003_lights
                0x00000000070118e0                mechbowser_f3d_material_004_lights
                0x00000000070118f8                mechbowser_f3d_material_001_lights
                0x0000000007011910                mechbowser_f3d_material_lights
                0x0000000007011928                warpshell_material_revert_render_settings
                0x0000000007011960                warpshell_DL_AnimalShell_Bevel__Shell_mesh_layer_1
                0x0000000007011998                mat_revert_warpshell_f3d_material_001
                0x00000000070119b0                mat_warpshell_f3d_material_001
                0x0000000007011a30                mat_revert_warpshell_f3d_material
                0x0000000007011a50                mat_warpshell_f3d_material
                0x0000000007011b08                warpshell_DL_AnimalShell_Bevel__Shell_mesh_layer_1_tri_1
                0x0000000007011b28                warpshell_DL_AnimalShell_Bevel__Shell_mesh_layer_1_vtx_1
                0x0000000007011b88                warpshell_DL_AnimalShell_Bevel__Shell_mesh_layer_1_tri_0
                0x0000000007011d60                warpshell_DL_AnimalShell_Bevel__Shell_mesh_layer_1_vtx_0
                0x00000000070126a0                warpshell_dl_anim23alshell_alb_i8
                0x00000000070136a0                warpshell_dl_anim23alshell_alb_i8_aligner
                0x00000000070136a8                warpshell_dl_animalshell_albci4_ci4_pal_rgba16
                0x00000000070136c8                warpshell_dl_animalshell_albci4_ci4_pal_rgba16_aligner
                0x00000000070136d0                warpshell_dl_animalshell_albci4_ci4
                0x0000000007013ed0                warpshell_dl_animalshell_albci4_ci4_aligner
                0x0000000007013ed8                warpshell_f3d_material_001_lights
                0x0000000007013ef0                warpshell_f3d_material_lights
                0x0000000007013f08                BBsignBackup
                0x0000000007013f58                paletteBackup
                0x0000000007013f78                seagull_material_revert_render_settings
                0x0000000007013fb0                seagull_Bone_001_mesh_layer_4_mat_override_F9_7
                0x0000000007013fd0                seagull_Bone_001_mesh_layer_4_mat_override_F8_6
                0x0000000007013ff0                seagull_Bone_001_mesh_layer_4_mat_override_F7_5
                0x0000000007014010                seagull_Bone_001_mesh_layer_4_mat_override_F6_4
                0x0000000007014030                seagull_Bone_001_mesh_layer_4_mat_override_F5_3
                0x0000000007014050                seagull_Bone_001_mesh_layer_4_mat_override_F4_2
                0x0000000007014070                seagull_Bone_001_mesh_layer_4_mat_override_F3_1
                0x0000000007014090                seagull_Bone_001_mesh_layer_4_mat_override_F2_0
                0x00000000070140b0                seagull_Bone_001_mesh_layer_4
                0x00000000070140d0                mat_revert_seagull_F9
                0x00000000070140e8                mat_seagull_F9
                0x0000000007014150                mat_revert_seagull_F8
                0x0000000007014168                mat_seagull_F8
                0x00000000070141d0                mat_revert_seagull_F7
                0x00000000070141e8                mat_seagull_F7
                0x0000000007014250                mat_revert_seagull_F6
                0x0000000007014268                mat_seagull_F6
                0x00000000070142d0                mat_revert_seagull_F5
                0x00000000070142e8                mat_seagull_F5
                0x0000000007014350                mat_revert_seagull_F4
                0x0000000007014368                mat_seagull_F4
                0x00000000070143d0                mat_revert_seagull_F3
                0x00000000070143e8                mat_seagull_F3
                0x0000000007014450                mat_revert_seagull_F2
                0x0000000007014468                mat_seagull_F2
                0x00000000070144d0                mat_revert_seagull_F1
                0x00000000070144e8                mat_seagull_F1
                0x0000000007014550                seagull_Bone_001_mesh_layer_4_tri_0
                0x0000000007014568                seagull_Bone_001_mesh_layer_4_vtx_0
                0x00000000070145a8                seagull_Unbenannt_9_ia8
                0x00000000070155a8                seagull_Unbenannt_9_ia8_aligner
                0x00000000070155b0                seagull_Unbenannt_8_ia8
                0x00000000070165b0                seagull_Unbenannt_8_ia8_aligner
                0x00000000070165b8                seagull_Unbenannt_7_ia8
                0x00000000070175b8                seagull_Unbenannt_7_ia8_aligner
                0x00000000070175c0                seagull_Unbenannt_6_ia8
                0x00000000070185c0                seagull_Unbenannt_6_ia8_aligner
                0x00000000070185c8                seagull_Unbenannt_5_ia8
                0x00000000070195c8                seagull_Unbenannt_5_ia8_aligner
                0x00000000070195d0                seagull_Unbenannt_4_ia8
                0x000000000701a5d0                seagull_Unbenannt_4_ia8_aligner
                0x000000000701a5d8                seagull_Unbenannt_3_ia8
                0x000000000701b5d8                seagull_Unbenannt_3_ia8_aligner
                0x000000000701b5e0                seagull_Unbenannt_2_ia8
                0x000000000701c5e0                seagull_Unbenannt_2_ia8_aligner
                0x000000000701c5e8                seagull_Unbenannt_1_ia8
                0x000000000701d5e8                seagull_Unbenannt_1_ia8_aligner
                0x000000000701d5f0                palmtree_material_revert_render_settings
                0x000000000701d628                palmtree_Plane_001_mesh_layer_4
                0x000000000701d668                palmtree_Circle_mesh_layer_1
                0x000000000701d6a8                mat_revert_palmtree_f3d_material_001
                0x000000000701d6c8                mat_palmtree_f3d_material_001
                0x000000000701d780                mat_revert_palmtree_f3d_material
                0x000000000701d798                mat_palmtree_f3d_material
                0x000000000701d818                palmtree_Plane_001_mesh_layer_4_tri_0
                0x000000000701d880                palmtree_Plane_001_mesh_layer_4_vtx_0
                0x000000000701db00                palmtree_Plane_001_mesh_layer_4_vtx_cull
                0x000000000701db80                palmtree_Circle_mesh_layer_1_tri_0
                0x000000000701dbe0                palmtree_Circle_mesh_layer_1_vtx_0
                0x000000000701dd00                palmtree_Circle_mesh_layer_1_vtx_cull
                0x000000000701dd80                palmtree__2_ci4_pal_rgba16
                0x000000000701dda0                palmtree__2_ci4_pal_rgba16_aligner
                0x000000000701dda8                palmtree__2_ci4
                0x000000000701e5a8                palmtree__2_ci4_aligner
                0x000000000701e5b0                palmtree_Unbenannt_1_i8
                0x000000000701f5b0                palmtree_Unbenannt_1_i8_aligner
                0x000000000701f5b8                palmtree_f3d_material_001_lights
                0x000000000701f5d0                palmtree_f3d_material_lights
                0x000000000701f5e8                bombomb_material_revert_render_settings
                0x000000000701f628                bombomb_000_offset_009_mesh
                0x000000000701f648                bombomb_006_offset_mesh
                0x000000000701f660                bombomb_000_offset_008_mesh
                0x000000000701f678                bombomb_000_offset_005_mesh
                0x000000000701f690                bombomb_000_displaylist_mesh
                0x000000000701f6c8                mat_revert_bombomb_sm64_material_004
                0x000000000701f6e8                mat_bombomb_sm64_material_004
                0x000000000701f7a0                mat_bombomb_sm64_material
                0x000000000701f7d8                mat_revert_bombomb_sm64_material_001
                0x000000000701f7f8                mat_bombomb_sm64_material_001
                0x000000000701f8b0                mat_revert_bombomb_sm64_material_003
                0x000000000701f8d0                mat_bombomb_sm64_material_003
                0x000000000701f988                bombomb_000_offset_009_mesh_tri_0
                0x000000000701f9a8                bombomb_000_offset_009_mesh_vtx_0
                0x000000000701fa08                bombomb_006_offset_mesh_tri_0
                0x000000000701fa58                bombomb_006_offset_mesh_vtx_0
                0x000000000701fb18                bombomb_000_offset_008_mesh_tri_0
                0x000000000701fb98                bombomb_000_offset_008_mesh_vtx_0
                0x000000000701fc98                bombomb_000_offset_005_mesh_tri_0
                0x000000000701fd18                bombomb_000_offset_005_mesh_vtx_0
                0x000000000701fe18                bombomb_000_displaylist_mesh_tri_1
                0x000000000701fe30                bombomb_000_displaylist_mesh_vtx_1
                0x000000000701fe70                bombomb_000_displaylist_mesh_tri_0
                0x000000000701fe88                bombomb_000_displaylist_mesh_vtx_0
                0x000000000701fec8                bombomb_glasses_ci4_pal_rgba16
                0x000000000701fed8                bombomb_glasses_ci4_pal_rgba16_aligner
                0x000000000701fee0                bombomb_glasses_ci4
                0x00000000070200e0                bombomb_glasses_ci4_aligner
                0x00000000070200e8                bombomb_forternite_poggtrs_2_ci8_pal_rgba16
                0x0000000007020140                bombomb_forternite_poggtrs_2_ci8_pal_rgba16_aligner
                0x0000000007020148                bombomb_forternite_poggtrs_2_ci8
                0x0000000007020948                bombomb_forternite_poggtrs_2_ci8_aligner
                0x0000000007020950                bombomb_forternite_poggtrs_ci8_pal_rgba16
                0x0000000007020a10                bombomb_forternite_poggtrs_ci8_pal_rgba16_aligner
                0x0000000007020a18                bombomb_forternite_poggtrs_ci8
                0x0000000007021218                bombomb_forternite_poggtrs_ci8_aligner
                0x0000000007021220                bombomb_sm64_material_004_lights
                0x0000000007021238                bombomb_sm64_material_lights
                0x0000000007021250                bombomb_sm64_material_001_lights
                0x0000000007021268                bombomb_sm64_material_003_lights
                0x0000000007021280                OWcrytals_collision
                0x00000000070212b8                OWcrytals_material_revert_render_settings
                0x00000000070212f8                OWcrytals_mountain_003_mesh
                0x0000000007021338                mat_revert_OWcrytals_test_001_v2
                0x0000000007021350                mat_OWcrytals_test_001_v2
                0x00000000070213c0                OWcrytals_mountain_003_mesh_tri_0
                0x0000000007021418                OWcrytals_mountain_003_mesh_vtx_0
                0x00000000070216c8                OWcrytals_mountain_003_mesh_vtx_cull
                0x0000000007021748                OWcrytals_Texture0117_RGB_greyscale_i8
                0x0000000007021b48                OWcrytals_Texture0117_RGB_greyscale_i8_aligner
                0x0000000007021b50                lilmouseOW_anims
                0x0000000007023520                lilmouseOW_material_revert_render_settings
                0x0000000007023560                lilmouseOW_leg2_r_mesh_layer_1
                0x0000000007023578                lilmouseOW_leg2_l_mesh_layer_1
                0x0000000007023590                lilmouseOW_Bone_option3_mesh_layer_1
                0x00000000070235b0                lilmouseOW_Bone_option2_mesh_layer_1
                0x00000000070235d0                lilmouseOW_Bone_option1_mesh_layer_1
                0x00000000070235f0                lilmouseOW_arm3_r_002_mesh_layer_1
                0x0000000007023628                lilmouseOW_arm3_r_mesh_layer_1
                0x0000000007023650                lilmouseOW_arm3_r_skinned_mesh_layer_1
                0x0000000007023670                lilmouseOW_arm2_r_mesh_layer_1
                0x0000000007023690                lilmouseOW_arm3_l_mesh_layer_1
                0x00000000070236b8                lilmouseOW_arm3_l_skinned_mesh_layer_1
                0x00000000070236d8                lilmouseOW_arm2_l_mesh_layer_1
                0x00000000070236f8                lilmouseOW_Bone_007_mesh_layer_1
                0x0000000007023720                lilmouseOW_Bone_007_skinned_mesh_layer_1
                0x0000000007023740                lilmouseOW_Bone_006_mesh_layer_1
                0x0000000007023760                lilmouseOW_Bone_006_skinned_mesh_layer_1
                0x0000000007023780                lilmouseOW_ear2_r_mesh_layer_1
                0x00000000070237a0                lilmouseOW_ear2_l_mesh_layer_1
                0x00000000070237c0                lilmouseOW_Bone_003_mesh_layer_1
                0x00000000070237d8                lilmouseOW_Bone_003_skinned_mesh_layer_1
                0x00000000070237f0                lilmouseOW_Bone_002_mesh_layer_1
                0x0000000007023838                lilmouseOW_Bone_002_skinned_mesh_layer_1
                0x0000000007023868                lilmouseOW_Bone_001_mesh_layer_1
                0x0000000007023888                mat_lilmouseOW_sm64_material_009
                0x00000000070238c0                mat_revert_lilmouseOW_sm64_material_013
                0x00000000070238d8                mat_lilmouseOW_sm64_material_013
                0x0000000007023948                mat_revert_lilmouseOW_sm64_material_012
                0x0000000007023960                mat_lilmouseOW_sm64_material_012
                0x00000000070239d0                mat_revert_lilmouseOW_sm64_material_011
                0x00000000070239e8                mat_lilmouseOW_sm64_material_011
                0x0000000007023a68                mat_revert_lilmouseOW_sm64_material_008
                0x0000000007023a80                mat_lilmouseOW_sm64_material_008
                0x0000000007023b30                mat_revert_lilmouseOW_sm64_material_007
                0x0000000007023b48                mat_lilmouseOW_sm64_material_007
                0x0000000007023bf8                mat_revert_lilmouseOW_sm64_material_003
                0x0000000007023c10                mat_lilmouseOW_sm64_material_003
                0x0000000007023cc0                mat_lilmouseOW_sm64_material_004
                0x0000000007023d38                mat_revert_lilmouseOW_sm64_material_005
                0x0000000007023d50                mat_lilmouseOW_sm64_material_005
                0x0000000007023e00                lilmouseOW_leg2_r_mesh_layer_1_tri_0
                0x0000000007023e38                lilmouseOW_leg2_r_mesh_layer_1_vtx_0
                0x0000000007023ea8                lilmouseOW_leg2_l_mesh_layer_1_tri_0
                0x0000000007023ee0                lilmouseOW_leg2_l_mesh_layer_1_vtx_0
                0x0000000007023f50                lilmouseOW_Bone_option3_mesh_layer_1_tri_0
                0x0000000007023f78                lilmouseOW_Bone_option3_mesh_layer_1_vtx_0
                0x0000000007024098                lilmouseOW_Bone_option2_mesh_layer_1_tri_0
                0x00000000070240c0                lilmouseOW_Bone_option2_mesh_layer_1_vtx_0
                0x00000000070241e0                lilmouseOW_Bone_option1_mesh_layer_1_tri_0
                0x0000000007024218                lilmouseOW_Bone_option1_mesh_layer_1_vtx_0
                0x0000000007024338                lilmouseOW_arm3_r_002_mesh_layer_1_tri_1
                0x0000000007024388                lilmouseOW_arm3_r_002_mesh_layer_1_vtx_1
                0x0000000007024578                lilmouseOW_arm3_r_002_mesh_layer_1_tri_0
                0x00000000070245a8                lilmouseOW_arm3_r_002_mesh_layer_1_vtx_0
                0x0000000007024698                lilmouseOW_arm3_r_mesh_layer_1_tri_1
                0x00000000070246d0                lilmouseOW_arm3_r_mesh_layer_1_vtx_1
                0x0000000007024780                lilmouseOW_arm3_r_mesh_layer_1_tri_0
                0x00000000070247a8                lilmouseOW_arm3_r_mesh_layer_1_vtx_0
                0x00000000070247f8                lilmouseOW_arm3_r_skinned_mesh_layer_1_tri_0
                0x0000000007024808                lilmouseOW_arm3_r_skinned_mesh_layer_1_vtx_0
                0x0000000007024858                lilmouseOW_arm2_r_mesh_layer_1_tri_0
                0x0000000007024880                lilmouseOW_arm2_r_mesh_layer_1_vtx_0
                0x0000000007024920                lilmouseOW_arm3_l_mesh_layer_1_tri_1
                0x0000000007024958                lilmouseOW_arm3_l_mesh_layer_1_vtx_1
                0x0000000007024a08                lilmouseOW_arm3_l_mesh_layer_1_tri_0
                0x0000000007024a30                lilmouseOW_arm3_l_mesh_layer_1_vtx_0
                0x0000000007024a80                lilmouseOW_arm3_l_skinned_mesh_layer_1_tri_0
                0x0000000007024a90                lilmouseOW_arm3_l_skinned_mesh_layer_1_vtx_0
                0x0000000007024ae0                lilmouseOW_arm2_l_mesh_layer_1_tri_0
                0x0000000007024b08                lilmouseOW_arm2_l_mesh_layer_1_vtx_0
                0x0000000007024ba8                lilmouseOW_Bone_007_mesh_layer_1_tri_1
                0x0000000007024bc8                lilmouseOW_Bone_007_mesh_layer_1_vtx_1
                0x0000000007024c58                lilmouseOW_Bone_007_mesh_layer_1_tri_0
                0x0000000007024c80                lilmouseOW_Bone_007_mesh_layer_1_vtx_0
                0x0000000007024ce0                lilmouseOW_Bone_007_skinned_mesh_layer_1_tri_0
                0x0000000007024cf0                lilmouseOW_Bone_007_skinned_mesh_layer_1_vtx_0
                0x0000000007024d50                lilmouseOW_Bone_006_mesh_layer_1_tri_0
                0x0000000007024d78                lilmouseOW_Bone_006_mesh_layer_1_vtx_0
                0x0000000007024dd8                lilmouseOW_Bone_006_skinned_mesh_layer_1_tri_0
                0x0000000007024de8                lilmouseOW_Bone_006_skinned_mesh_layer_1_vtx_0
                0x0000000007024e48                lilmouseOW_ear2_r_mesh_layer_1_tri_0
                0x0000000007024e78                lilmouseOW_ear2_r_mesh_layer_1_vtx_0
                0x0000000007024f28                lilmouseOW_ear2_l_mesh_layer_1_tri_0
                0x0000000007024f58                lilmouseOW_ear2_l_mesh_layer_1_vtx_0
                0x0000000007025008                lilmouseOW_Bone_003_mesh_layer_1_tri_0
                0x0000000007025028                lilmouseOW_Bone_003_mesh_layer_1_vtx_0
                0x0000000007025038                lilmouseOW_Bone_003_skinned_mesh_layer_1_tri_0
                0x0000000007025048                lilmouseOW_Bone_003_skinned_mesh_layer_1_vtx_0
                0x00000000070250a8                lilmouseOW_Bone_002_mesh_layer_1_tri_3
                0x00000000070250c0                lilmouseOW_Bone_002_mesh_layer_1_vtx_3
                0x0000000007025110                lilmouseOW_Bone_002_mesh_layer_1_tri_2
                0x0000000007025160                lilmouseOW_Bone_002_mesh_layer_1_vtx_2
                0x00000000070252c0                lilmouseOW_Bone_002_mesh_layer_1_tri_1
                0x0000000007025300                lilmouseOW_Bone_002_mesh_layer_1_vtx_1
                0x0000000007025380                lilmouseOW_Bone_002_mesh_layer_1_tri_0
                0x00000000070253a0                lilmouseOW_Bone_002_mesh_layer_1_vtx_0
                0x00000000070253f0                lilmouseOW_Bone_002_skinned_mesh_layer_1_tri_1
                0x0000000007025400                lilmouseOW_Bone_002_skinned_mesh_layer_1_vtx_1
                0x00000000070254a0                lilmouseOW_Bone_002_skinned_mesh_layer_1_tri_0
                0x00000000070254b0                lilmouseOW_Bone_002_skinned_mesh_layer_1_vtx_0
                0x00000000070254d0                lilmouseOW_Bone_001_mesh_layer_1_tri_0
                0x0000000007025530                lilmouseOW_Bone_001_mesh_layer_1_vtx_0
                0x0000000007025680                lilmouseOW_Texture0117_RGB_greyscale_i8
                0x0000000007025a80                lilmouseOW_Texture0117_RGB_greyscale_i8_aligner
                0x0000000007025a88                lilmouseOW_Crossectionhat_rgba16
                0x0000000007026288                lilmouseOW_Crossectionhat_rgba16_aligner
                0x0000000007026290                lilmouseOW__3759888_ci4_pal_rgba16
                0x00000000070262b0                lilmouseOW__3759888_ci4_pal_rgba16_aligner
                0x00000000070262b8                lilmouseOW__3759888_ci4
                0x0000000007026ab8                lilmouseOW__3759888_ci4_aligner
                0x0000000007026ac0                lilmouseOW_Bark08_ci8_pal_rgba16
                0x0000000007026b00                lilmouseOW_Bark08_ci8_pal_rgba16_aligner
                0x0000000007026b08                lilmouseOW_Bark08_ci8
                0x0000000007026f08                lilmouseOW_Bark08_ci8_aligner
                0x0000000007026f10                lilmouseOW_mouserear2_ci8_pal_rgba16
                0x0000000007026f40                lilmouseOW_mouserear2_ci8_pal_rgba16_aligner
                0x0000000007026f48                lilmouseOW_mouserear2_ci8
                0x0000000007027148                lilmouseOW_mouserear2_ci8_aligner
                0x0000000007027150                lilmouseOW_nose_ia8
                0x0000000007027250                lilmouseOW_nose_ia8_aligner
                0x0000000007027258                lilmouseOW_mask_ci8_pal_rgba16
                0x00000000070272b0                lilmouseOW_mask_ci8_pal_rgba16_aligner
                0x00000000070272b8                lilmouseOW_mask_ci8
                0x00000000070274b8                lilmouseOW_mask_ci8_aligner
                0x00000000070274c0                lilmouseOW_sm64_material_009_lights
                0x00000000070274d8                lilmouseOW_sm64_material_011_lights
                0x00000000070274f0                lilmouseOW_sm64_material_008_lights
                0x0000000007027508                lilmouseOW_sm64_material_007_lights
                0x0000000007027520                lilmouseOW_sm64_material_003_lights
                0x0000000007027538                lilmouseOW_sm64_material_004_lights
                0x0000000007027550                lilmouseOW_sm64_material_005_lights
                0x0000000007027568                floatwood_collision
                0x00000000070275f8                floatwood_material_revert_render_settings
                0x0000000007027638                floatwood_Cube_mesh
                0x0000000007027678                mat_revert_floatwood_sm64_material
                0x0000000007027690                mat_floatwood_sm64_material
                0x0000000007027740                floatwood_Cube_mesh_tri_0
                0x0000000007027780                floatwood_Cube_mesh_vtx_0
                0x0000000007027900                floatwood_Cube_mesh_vtx_cull
                0x0000000007027980                floatwood_maruta01_s_alb_ci4_pal_rgba16
                0x0000000007027990                floatwood_maruta01_s_alb_ci4_pal_rgba16_aligner
                0x0000000007027998                floatwood_maruta01_s_alb_ci4
                0x0000000007028198                floatwood_maruta01_s_alb_ci4_aligner
                0x00000000070281a0                floatwood_sm64_material_lights
                0x00000000070281b8                parakarry_anims
                0x0000000007028d18                parakarry_material_revert_render_settings
                0x0000000007028d58                parakarry_foot_r_skinned
                0x0000000007028d78                parakarry_foot_r_mesh
                0x0000000007028dd8                parakarry_upleg_r_mesh
                0x0000000007028df8                parakarry_foot_l_skinned
                0x0000000007028e18                parakarry_foot_l_mesh
                0x0000000007028e78                parakarry_upleg_l_mesh
                0x0000000007028e98                parakarry_wing_r_001_skinned
                0x0000000007028eb0                parakarry_wing_r_001_mesh
                0x0000000007028ed8                parakarry_wing_r_mesh
                0x0000000007028ef0                parakarry_wing_l_001_skinned
                0x0000000007028f08                parakarry_wing_l_001_mesh
                0x0000000007028f30                parakarry_wing_l_mesh
                0x0000000007028f48                parakarry_lowarm_r_skinned
                0x0000000007028f68                parakarry_lowarm_r_mesh
                0x0000000007028fa0                parakarry_uparm_r_mesh
                0x0000000007028fc0                parakarry_lowarm_l_skinned
                0x0000000007028fe0                parakarry_lowarm_l_mesh
                0x0000000007029018                parakarry_uparm_l_mesh
                0x0000000007029038                parakarry_Bone_008_skinned
                0x0000000007029050                parakarry_Bone_008_mesh
                0x00000000070290b0                parakarry_Bone_001_mesh
                0x0000000007029128                mat_parakarry_sm64_material_009
                0x0000000007029160                mat_parakarry_sm64_material_003
                0x00000000070291e0                mat_parakarry_sm64_material_006
                0x0000000007029258                mat_parakarry_sm64_material_011
                0x0000000007029290                mat_revert_parakarry_sm64_material_012
                0x00000000070292a8                mat_parakarry_sm64_material_012
                0x00000000070292e8                mat_parakarry_sm64_material_010
                0x0000000007029360                mat_revert_parakarry_sm64_material_014
                0x0000000007029380                mat_parakarry_sm64_material_014
                0x0000000007029438                mat_revert_parakarry_sm64_material_008
                0x0000000007029450                mat_parakarry_sm64_material_008
                0x0000000007029490                mat_parakarry_sm64_material_007
                0x00000000070294c8                mat_revert_parakarry_sm64_material
                0x00000000070294e0                mat_parakarry_sm64_material
                0x0000000007029590                mat_revert_parakarry_sm64_material_004
                0x00000000070295a8                mat_parakarry_sm64_material_004
                0x0000000007029658                parakarry_foot_r_skinned_tri_0
                0x0000000007029668                parakarry_foot_r_skinned_vtx_0
                0x00000000070296b8                parakarry_foot_r_mesh_tri_3
                0x00000000070296e8                parakarry_foot_r_mesh_vtx_3
                0x0000000007029788                parakarry_foot_r_mesh_tri_2
                0x00000000070297b8                parakarry_foot_r_mesh_vtx_2
                0x0000000007029878                parakarry_foot_r_mesh_tri_1
                0x0000000007029910                parakarry_foot_r_mesh_vtx_1
                0x0000000007029a80                parakarry_foot_r_mesh_tri_0
                0x0000000007029ab0                parakarry_foot_r_mesh_vtx_0
                0x0000000007029b00                parakarry_upleg_r_mesh_tri_0
                0x0000000007029b18                parakarry_upleg_r_mesh_vtx_0
                0x0000000007029b58                parakarry_foot_l_skinned_tri_0
                0x0000000007029b68                parakarry_foot_l_skinned_vtx_0
                0x0000000007029bb8                parakarry_foot_l_mesh_tri_3
                0x0000000007029be8                parakarry_foot_l_mesh_vtx_3
                0x0000000007029c88                parakarry_foot_l_mesh_tri_2
                0x0000000007029cb8                parakarry_foot_l_mesh_vtx_2
                0x0000000007029d78                parakarry_foot_l_mesh_tri_1
                0x0000000007029e10                parakarry_foot_l_mesh_vtx_1
                0x0000000007029f90                parakarry_foot_l_mesh_tri_0
                0x0000000007029fc0                parakarry_foot_l_mesh_vtx_0
                0x000000000702a010                parakarry_upleg_l_mesh_tri_0
                0x000000000702a028                parakarry_upleg_l_mesh_vtx_0
                0x000000000702a068                parakarry_wing_r_001_skinned_tri_0
                0x000000000702a078                parakarry_wing_r_001_skinned_vtx_0
                0x000000000702a0b8                parakarry_wing_r_001_mesh_tri_1
                0x000000000702a0f8                parakarry_wing_r_001_mesh_vtx_1
                0x000000000702a1a8                parakarry_wing_r_001_mesh_tri_0
                0x000000000702a1e8                parakarry_wing_r_001_mesh_vtx_0
                0x000000000702a268                parakarry_wing_r_mesh_tri_0
                0x000000000702a2a0                parakarry_wing_r_mesh_vtx_0
                0x000000000702a320                parakarry_wing_l_001_skinned_tri_0
                0x000000000702a330                parakarry_wing_l_001_skinned_vtx_0
                0x000000000702a370                parakarry_wing_l_001_mesh_tri_1
                0x000000000702a3b0                parakarry_wing_l_001_mesh_vtx_1
                0x000000000702a460                parakarry_wing_l_001_mesh_tri_0
                0x000000000702a4a8                parakarry_wing_l_001_mesh_vtx_0
                0x000000000702a538                parakarry_wing_l_mesh_tri_0
                0x000000000702a570                parakarry_wing_l_mesh_vtx_0
                0x000000000702a5f0                parakarry_lowarm_r_skinned_tri_0
                0x000000000702a600                parakarry_lowarm_r_skinned_vtx_0
                0x000000000702a650                parakarry_lowarm_r_mesh_tri_1
                0x000000000702a690                parakarry_lowarm_r_mesh_vtx_1
                0x000000000702a720                parakarry_lowarm_r_mesh_tri_0
                0x000000000702a750                parakarry_lowarm_r_mesh_vtx_0
                0x000000000702a7a0                parakarry_uparm_r_mesh_tri_0
                0x000000000702a7d0                parakarry_uparm_r_mesh_vtx_0
                0x000000000702a860                parakarry_lowarm_l_skinned_tri_0
                0x000000000702a870                parakarry_lowarm_l_skinned_vtx_0
                0x000000000702a8c0                parakarry_lowarm_l_mesh_tri_1
                0x000000000702a900                parakarry_lowarm_l_mesh_vtx_1
                0x000000000702a990                parakarry_lowarm_l_mesh_tri_0
                0x000000000702a9c0                parakarry_lowarm_l_mesh_vtx_0
                0x000000000702aa10                parakarry_uparm_l_mesh_tri_0
                0x000000000702aa40                parakarry_uparm_l_mesh_vtx_0
                0x000000000702aad0                parakarry_Bone_008_skinned_tri_0
                0x000000000702aae0                parakarry_Bone_008_skinned_vtx_0
                0x000000000702ab20                parakarry_Bone_008_mesh_tri_4
                0x000000000702ab50                parakarry_Bone_008_mesh_vtx_4
                0x000000000702ac10                parakarry_Bone_008_mesh_tri_3
                0x000000000702ac68                parakarry_Bone_008_mesh_vtx_3
                0x000000000702ada8                parakarry_Bone_008_mesh_tri_2
                0x000000000702ae68                parakarry_Bone_008_mesh_vtx_2
                0x000000000702b138                parakarry_Bone_008_mesh_tri_1
                0x000000000702b1e8                parakarry_Bone_008_mesh_vtx_1
                0x000000000702b3d8                parakarry_Bone_008_mesh_tri_0
                0x000000000702b408                parakarry_Bone_008_mesh_vtx_0
                0x000000000702b448                parakarry_Bone_001_mesh_tri_4
                0x000000000702b520                parakarry_Bone_001_mesh_vtx_4
                0x000000000702b820                parakarry_Bone_001_mesh_tri_3
                0x000000000702b838                parakarry_Bone_001_mesh_vtx_3
                0x000000000702b878                parakarry_Bone_001_mesh_tri_2
                0x000000000702b940                parakarry_Bone_001_mesh_vtx_2
                0x000000000702be00                parakarry_Bone_001_mesh_tri_1
                0x000000000702be70                parakarry_Bone_001_mesh_vtx_1
                0x000000000702bf80                parakarry_Bone_001_mesh_tri_0
                0x000000000702bff8                parakarry_Bone_001_mesh_vtx_0
                0x000000000702c118                parakarry_DolPatapataGWing_i4
                0x000000000702d118                parakarry_DolPatapataGWing_i4_aligner
                0x000000000702d120                parakarry__06004648_rgba16
                0x000000000702d520                parakarry__06004648_rgba16_aligner
                0x000000000702d528                parakarry_nostril_ia4
                0x000000000702d628                parakarry_nostril_ia4_aligner
                0x000000000702d630                parakarry_button_ci8_pal_rgba16
                0x000000000702d7c0                parakarry_button_ci8_pal_rgba16_aligner
                0x000000000702d7c8                parakarry_button_ci8
                0x000000000702d9c8                parakarry_button_ci8_aligner
                0x000000000702d9d0                parakarry_Tile0645_RGB_ci8_pal_rgba16
                0x000000000702da30                parakarry_Tile0645_RGB_ci8_pal_rgba16_aligner
                0x000000000702da38                parakarry_Tile0645_RGB_ci8
                0x000000000702dc38                parakarry_Tile0645_RGB_ci8_aligner
                0x000000000702dc40                parakarry_t0024_0_ci8_pal_rgba16
                0x000000000702dcc0                parakarry_t0024_0_ci8_pal_rgba16_aligner
                0x000000000702dcc8                parakarry_t0024_0_ci8
                0x000000000702dec8                parakarry_t0024_0_ci8_aligner
                0x000000000702ded0                parakarry_sm64_material_009_lights
                0x000000000702dee8                parakarry_sm64_material_003_lights
                0x000000000702df00                parakarry_sm64_material_006_lights
                0x000000000702df18                parakarry_sm64_material_011_lights
                0x000000000702df30                parakarry_sm64_material_012_lights
                0x000000000702df48                parakarry_sm64_material_010_lights
                0x000000000702df60                parakarry_sm64_material_014_lights
                0x000000000702df78                parakarry_sm64_material_008_lights
                0x000000000702df90                parakarry_sm64_material_007_lights
                0x000000000702dfa8                parakarry_sm64_material_lights
                0x000000000702dfc0                parakarry_sm64_material_004_lights
                0x000000000702dfd8                N64logo_material_revert_render_settings
                0x000000000702e018                N64logo_CrtDisplay_mesh
                0x000000000702e1c0                mat_revert_N64logo_N64logo16
                0x000000000702e1d8                mat_N64logo_N64logo16
                0x000000000702e288                mat_revert_N64logo_N64logo15
                0x000000000702e2a0                mat_N64logo_N64logo15
                0x000000000702e350                mat_revert_N64logo_N64logo14
                0x000000000702e368                mat_N64logo_N64logo14
                0x000000000702e418                mat_revert_N64logo_N64logo13
                0x000000000702e430                mat_N64logo_N64logo13
                0x000000000702e4e0                mat_revert_N64logo_N64logo12
                0x000000000702e4f8                mat_N64logo_N64logo12
                0x000000000702e5a8                mat_revert_N64logo_N64logo11
                0x000000000702e5c0                mat_N64logo_N64logo11
                0x000000000702e670                mat_revert_N64logo_N64logo10
                0x000000000702e688                mat_N64logo_N64logo10
                0x000000000702e738                mat_revert_N64logo_N64logo9
                0x000000000702e750                mat_N64logo_N64logo9
                0x000000000702e800                mat_revert_N64logo_N64logo8
                0x000000000702e818                mat_N64logo_N64logo8
                0x000000000702e8c8                mat_revert_N64logo_N64logo7
                0x000000000702e8e0                mat_N64logo_N64logo7
                0x000000000702e990                mat_revert_N64logo_N64logo6
                0x000000000702e9a8                mat_N64logo_N64logo6
                0x000000000702ea58                mat_revert_N64logo_N64logo5
                0x000000000702ea70                mat_N64logo_N64logo5
                0x000000000702eb20                mat_revert_N64logo_N64logo4
                0x000000000702eb38                mat_N64logo_N64logo4
                0x000000000702ebe8                mat_revert_N64logo_N64logo3
                0x000000000702ec00                mat_N64logo_N64logo3
                0x000000000702ecb0                mat_revert_N64logo_N64logo2
                0x000000000702ecc8                mat_N64logo_N64logo2
                0x000000000702ed78                mat_revert_N64logo_N64logo1
                0x000000000702ed90                mat_N64logo_N64logo1
                0x000000000702ee40                N64logo_CrtDisplay_mesh_tri_15
                0x000000000702ee58                N64logo_CrtDisplay_mesh_vtx_15
                0x000000000702ee98                N64logo_CrtDisplay_mesh_tri_14
                0x000000000702eeb0                N64logo_CrtDisplay_mesh_vtx_14
                0x000000000702eef0                N64logo_CrtDisplay_mesh_tri_13
                0x000000000702ef08                N64logo_CrtDisplay_mesh_vtx_13
                0x000000000702ef48                N64logo_CrtDisplay_mesh_tri_12
                0x000000000702ef60                N64logo_CrtDisplay_mesh_vtx_12
                0x000000000702efa0                N64logo_CrtDisplay_mesh_tri_11
                0x000000000702efb8                N64logo_CrtDisplay_mesh_vtx_11
                0x000000000702eff8                N64logo_CrtDisplay_mesh_tri_10
                0x000000000702f010                N64logo_CrtDisplay_mesh_vtx_10
                0x000000000702f050                N64logo_CrtDisplay_mesh_tri_9
                0x000000000702f068                N64logo_CrtDisplay_mesh_vtx_9
                0x000000000702f0a8                N64logo_CrtDisplay_mesh_tri_8
                0x000000000702f0c0                N64logo_CrtDisplay_mesh_vtx_8
                0x000000000702f100                N64logo_CrtDisplay_mesh_tri_7
                0x000000000702f118                N64logo_CrtDisplay_mesh_vtx_7
                0x000000000702f158                N64logo_CrtDisplay_mesh_tri_6
                0x000000000702f170                N64logo_CrtDisplay_mesh_vtx_6
                0x000000000702f1b0                N64logo_CrtDisplay_mesh_tri_5
                0x000000000702f1c8                N64logo_CrtDisplay_mesh_vtx_5
                0x000000000702f208                N64logo_CrtDisplay_mesh_tri_4
                0x000000000702f220                N64logo_CrtDisplay_mesh_vtx_4
                0x000000000702f260                N64logo_CrtDisplay_mesh_tri_3
                0x000000000702f278                N64logo_CrtDisplay_mesh_vtx_3
                0x000000000702f2b8                N64logo_CrtDisplay_mesh_tri_2
                0x000000000702f2d0                N64logo_CrtDisplay_mesh_vtx_2
                0x000000000702f310                N64logo_CrtDisplay_mesh_tri_1
                0x000000000702f328                N64logo_CrtDisplay_mesh_vtx_1
                0x000000000702f368                N64logo_CrtDisplay_mesh_tri_0
                0x000000000702f380                N64logo_CrtDisplay_mesh_vtx_0
                0x000000000702f3c0                N64logo_CrtDisplay_mesh_vtx_cull
                0x000000000702f440                N64logo_N64Frame_00281_ci4_pal_rgba16
                0x000000000702f460                N64logo_N64Frame_00281_ci4_pal_rgba16_aligner
                0x000000000702f468                N64logo_N64Frame_00281_ci4
                0x000000000702fc68                N64logo_N64Frame_00281_ci4_aligner
                0x000000000702fc70                N64logo_N64Frame_00263_ci4_pal_rgba16
                0x000000000702fc90                N64logo_N64Frame_00263_ci4_pal_rgba16_aligner
                0x000000000702fc98                N64logo_N64Frame_00263_ci4
                0x0000000007030498                N64logo_N64Frame_00263_ci4_aligner
                0x00000000070304a0                N64logo_N64Frame_00244_ci4_pal_rgba16
                0x00000000070304c0                N64logo_N64Frame_00244_ci4_pal_rgba16_aligner
                0x00000000070304c8                N64logo_N64Frame_00244_ci4
                0x0000000007030cc8                N64logo_N64Frame_00244_ci4_aligner
                0x0000000007030cd0                N64logo_N64Frame_00225_ci4_pal_rgba16
                0x0000000007030cf0                N64logo_N64Frame_00225_ci4_pal_rgba16_aligner
                0x0000000007030cf8                N64logo_N64Frame_00225_ci4
                0x00000000070314f8                N64logo_N64Frame_00225_ci4_aligner
                0x0000000007031500                N64logo_N64Frame_00206_ci4_pal_rgba16
                0x0000000007031520                N64logo_N64Frame_00206_ci4_pal_rgba16_aligner
                0x0000000007031528                N64logo_N64Frame_00206_ci4
                0x0000000007031d28                N64logo_N64Frame_00206_ci4_aligner
                0x0000000007031d30                N64logo_N64Frame_00198_ci4_pal_rgba16
                0x0000000007031d50                N64logo_N64Frame_00198_ci4_pal_rgba16_aligner
                0x0000000007031d58                N64logo_N64Frame_00198_ci4
                0x0000000007032558                N64logo_N64Frame_00198_ci4_aligner
                0x0000000007032560                N64logo_N64Frame_00169_ci4_pal_rgba16
                0x0000000007032580                N64logo_N64Frame_00169_ci4_pal_rgba16_aligner
                0x0000000007032588                N64logo_N64Frame_00169_ci4
                0x0000000007032d88                N64logo_N64Frame_00169_ci4_aligner
                0x0000000007032d90                N64logo_N64Frame_00150_ci4_pal_rgba16
                0x0000000007032db0                N64logo_N64Frame_00150_ci4_pal_rgba16_aligner
                0x0000000007032db8                N64logo_N64Frame_00150_ci4
                0x00000000070335b8                N64logo_N64Frame_00150_ci4_aligner
                0x00000000070335c0                N64logo_N64Frame_00131_ci4_pal_rgba16
                0x00000000070335e0                N64logo_N64Frame_00131_ci4_pal_rgba16_aligner
                0x00000000070335e8                N64logo_N64Frame_00131_ci4
                0x0000000007033de8                N64logo_N64Frame_00131_ci4_aligner
                0x0000000007033df0                N64logo_N64Frame_00113_ci4_pal_rgba16
                0x0000000007033e10                N64logo_N64Frame_00113_ci4_pal_rgba16_aligner
                0x0000000007033e18                N64logo_N64Frame_00113_ci4
                0x0000000007034618                N64logo_N64Frame_00113_ci4_aligner
                0x0000000007034620                N64logo_N64Frame_00094_ci4_pal_rgba16
                0x0000000007034640                N64logo_N64Frame_00094_ci4_pal_rgba16_aligner
                0x0000000007034648                N64logo_N64Frame_00094_ci4
                0x0000000007034e48                N64logo_N64Frame_00094_ci4_aligner
                0x0000000007034e50                N64logo_N64Frame_00075_ci4_pal_rgba16
                0x0000000007034e70                N64logo_N64Frame_00075_ci4_pal_rgba16_aligner
                0x0000000007034e78                N64logo_N64Frame_00075_ci4
                0x0000000007035678                N64logo_N64Frame_00075_ci4_aligner
                0x0000000007035680                N64logo_N64Frame_00056_ci4_pal_rgba16
                0x00000000070356a0                N64logo_N64Frame_00056_ci4_pal_rgba16_aligner
                0x00000000070356a8                N64logo_N64Frame_00056_ci4
                0x0000000007035ea8                N64logo_N64Frame_00056_ci4_aligner
                0x0000000007035eb0                N64logo_N64Frame_00038_ci4_pal_rgba16
                0x0000000007035ed0                N64logo_N64Frame_00038_ci4_pal_rgba16_aligner
                0x0000000007035ed8                N64logo_N64Frame_00038_ci4
                0x00000000070366d8                N64logo_N64Frame_00038_ci4_aligner
                0x00000000070366e0                N64logo_N64Frame_00019_ci4_pal_rgba16
                0x0000000007036700                N64logo_N64Frame_00019_ci4_pal_rgba16_aligner
                0x0000000007036708                N64logo_N64Frame_00019_ci4
                0x0000000007036f08                N64logo_N64Frame_00019_ci4_aligner
                0x0000000007036f10                N64logo_N64Frame_00000_ci4_pal_rgba16
                0x0000000007036f30                N64logo_N64Frame_00000_ci4_pal_rgba16_aligner
                0x0000000007036f38                N64logo_N64Frame_00000_ci4
                0x0000000007037738                N64logo_N64Frame_00000_ci4_aligner
                0x0000000007037740                N64logo_N64logo16_lights
                0x0000000007037758                N64logo_N64logo15_lights
                0x0000000007037770                N64logo_N64logo14_lights
                0x0000000007037788                N64logo_N64logo13_lights
                0x00000000070377a0                N64logo_N64logo12_lights
                0x00000000070377b8                N64logo_N64logo11_lights
                0x00000000070377d0                N64logo_N64logo10_lights
                0x00000000070377e8                N64logo_N64logo9_lights
                0x0000000007037800                N64logo_N64logo8_lights
                0x0000000007037818                N64logo_N64logo7_lights
                0x0000000007037830                N64logo_N64logo6_lights
                0x0000000007037848                N64logo_N64logo5_lights
                0x0000000007037860                N64logo_N64logo4_lights
                0x0000000007037878                N64logo_N64logo3_lights
                0x0000000007037890                N64logo_N64logo2_lights
                0x00000000070378a8                N64logo_N64logo1_lights
                0x00000000070378c0                stargate_collision
                0x00000000070379f8                stargate_material_revert_render_settings
                0x0000000007037a38                stargate_Cube_001_mesh
                0x0000000007037aa8                stargate_Cube_005_mesh_layer_1
                0x0000000007037ae8                stargate_Cube_005_mesh
                0x0000000007037b28                mat_revert_stargate_sm64_material_001
                0x0000000007037b48                mat_stargate_sm64_material_001
                0x0000000007037c00                mat_revert_stargate_sm64_material_004
                0x0000000007037c28                mat_stargate_sm64_material_004
                0x0000000007037cd0                mat_revert_stargate_sm64_material_003
                0x0000000007037cf0                mat_stargate_sm64_material_003
                0x0000000007037da8                mat_revert_stargate_f3d_material
                0x0000000007037dc0                mat_stargate_f3d_material
                0x0000000007037e00                mat_revert_stargate_sm64_material
                0x0000000007037e18                mat_stargate_sm64_material
                0x0000000007037e98                stargate_Cube_001_mesh_tri_2
                0x0000000007037ec8                stargate_Cube_001_mesh_vtx_2
                0x0000000007037fc8                stargate_Cube_001_mesh_tri_1
                0x0000000007037fe0                stargate_Cube_001_mesh_vtx_1
                0x0000000007038020                stargate_Cube_001_mesh_tri_0
                0x0000000007038040                stargate_Cube_001_mesh_vtx_0
                0x00000000070380a0                stargate_Cube_001_mesh_vtx_cull
                0x0000000007038120                stargate_Cube_005_mesh_layer_1_tri_0
                0x00000000070381b0                stargate_Cube_005_mesh_layer_1_vtx_0
                0x0000000007038570                stargate_Cube_005_mesh_layer_1_vtx_cull
                0x00000000070385f0                stargate_Cube_005_mesh_tri_0
                0x00000000070386f8                stargate_Cube_005_mesh_vtx_0
                0x0000000007038b28                stargate_Cube_005_mesh_vtx_cull
                0x0000000007038ba8                stargate_F301_5_Chain01_ci8_pal_rgba16
                0x0000000007038cf8                stargate_F301_5_Chain01_ci8_pal_rgba16_aligner
                0x0000000007038d00                stargate_F301_5_Chain01_ci8
                0x0000000007039500                stargate_F301_5_Chain01_ci8_aligner
                0x0000000007039508                stargate_segment2_01000_rgba16_ci4_pal_rgba16
                0x0000000007039528                stargate_segment2_01000_rgba16_ci4_pal_rgba16_aligner
                0x0000000007039530                stargate_segment2_01000_rgba16_ci4
                0x00000000070395b0                stargate_segment2_01000_rgba16_ci4_aligner
                0x00000000070395b8                stargate__0xA4A0_ci4_pal_rgba16
                0x00000000070395d8                stargate__0xA4A0_ci4_pal_rgba16_aligner
                0x00000000070395e0                stargate__0xA4A0_ci4
                0x0000000007039de0                stargate__0xA4A0_ci4_aligner
                0x0000000007039de8                stargate__0x7BC0_i8
                0x000000000703a1e8                stargate__0x7BC0_i8_aligner
                0x000000000703a1f0                stargate_sm64_material_001_lights
                0x000000000703a208                stargate_sm64_material_003_lights
                0x000000000703a220                stargate_f3d_material_lights
                0x000000000703a238                stargate_sm64_material_lights
                0x000000000703a250                orange_material_revert_render_settings
                0x000000000703a290                orange__0_0_mesh
                0x000000000703a2d0                mat_revert_orange_Mdl_107_Mtl_m_fg_orange_f3d
                0x000000000703a2f0                mat_orange_Mdl_107_Mtl_m_fg_orange_f3d
                0x000000000703a3a8                orange__0_0_mesh_tri_0
                0x000000000703a450                orange__0_0_mesh_vtx_0
                0x000000000703a6f0                orange__0_0_mesh_vtx_cull
                0x000000000703a770                orange_t_fg_orange_ci8_pal_rgba16
                0x000000000703a818                orange_t_fg_orange_ci8_pal_rgba16_aligner
                0x000000000703a820                orange_t_fg_orange_ci8
                0x000000000703b020                orange_t_fg_orange_ci8_aligner
                0x000000000703b028                orange_Mdl_107_Mtl_m_fg_orange_f3d_lights
                0x000000000703b040                apple_material_revert_render_settings
                0x000000000703b080                apple_fruit_mesh
                0x000000000703b0c0                mat_revert_apple_mat_fruit_f3d
                0x000000000703b0d8                mat_apple_mat_fruit_f3d
                0x000000000703b188                apple_fruit_mesh_tri_0
                0x000000000703b218                apple_fruit_mesh_vtx_0
                0x000000000703b3c8                apple_fruit_mesh_vtx_cull
                0x000000000703b448                apple_clampfruit_ci8_pal_rgba16
                0x000000000703b488                apple_clampfruit_ci8_pal_rgba16_aligner
                0x000000000703b490                apple_clampfruit_ci8
                0x000000000703b890                apple_clampfruit_ci8_aligner
                0x000000000703b898                apple_mat_fruit_f3d_lights
                0x000000000703b8b0                melon_material_revert_render_settings
                0x000000000703b8f0                melon_Melon_Mesh_0222_rip_002_mesh
                0x000000000703b930                mat_revert_melon_Melon_f3d
                0x000000000703b948                mat_melon_Melon_f3d
                0x000000000703b9f8                melon_Melon_Mesh_0222_rip_002_mesh_tri_0
                0x000000000703ba88                melon_Melon_Mesh_0222_rip_002_mesh_vtx_0
                0x000000000703bc68                melon_Melon_Mesh_0222_rip_002_mesh_vtx_cull
                0x000000000703bce8                melon_Melon_ci8_pal_rgba16
                0x000000000703bd60                melon_Melon_ci8_pal_rgba16_aligner
                0x000000000703bd68                melon_Melon_ci8
                0x000000000703c568                melon_Melon_ci8_aligner
                0x000000000703c570                melon_Melon_f3d_lights
                0x000000000703c588                bowsernet_material_revert_render_settings
                0x000000000703c5c8                bowsernet_Cube_mesh
                0x000000000703c618                mat_revert_bowsernet_sm64_material_002
                0x000000000703c630                mat_bowsernet_sm64_material_002
                0x000000000703c6b0                mat_bowsernet_sm64_material_017
                0x000000000703c6e8                mat_revert_bowsernet_sm64_material_018
                0x000000000703c708                mat_bowsernet_sm64_material_018
                0x000000000703c7c0                bowsernet_Cube_mesh_tri_2
                0x000000000703c870                bowsernet_Cube_mesh_vtx_2
                0x000000000703ca00                bowsernet_Cube_mesh_tri_1
                0x000000000703cb68                bowsernet_Cube_mesh_vtx_1
                0x000000000703d1a8                bowsernet_Cube_mesh_tri_0
                0x000000000703d248                bowsernet_Cube_mesh_vtx_0
                0x000000000703d4b8                bowsernet_Cube_mesh_vtx_cull
                0x000000000703d538                bowsernet_RMGP01_74cd8887_14_ia8
                0x000000000703e538                bowsernet_RMGP01_74cd8887_14_ia8_aligner
                0x000000000703e540                bowsernet_rope__3__ci4_pal_rgba16
                0x000000000703e560                bowsernet_rope__3__ci4_pal_rgba16_aligner
                0x000000000703e568                bowsernet_rope__3__ci4
                0x000000000703ed68                bowsernet_rope__3__ci4_aligner
                0x000000000703ed70                bowsernet_sm64_material_002_lights
                0x000000000703ed88                bowsernet_sm64_material_017_lights
                0x000000000703eda0                bowsernet_sm64_material_018_lights
                0x000000000703edb8                bowsership_material_revert_render_settings
                0x000000000703edf8                bowsership_hat_kuppaship_color1_png_mesh
                0x000000000703ef58                mat_revert_bowsership_sm64_material_014
                0x000000000703ef70                mat_bowsership_sm64_material_014
                0x000000000703eff0                mat_revert_bowsership_sm64_material_012
                0x000000000703f010                mat_bowsership_sm64_material_012
                0x000000000703f0c8                mat_revert_bowsership_sm64_material_004
                0x000000000703f0e0                mat_bowsership_sm64_material_004
                0x000000000703f160                mat_revert_bowsership_sm64_material_011
                0x000000000703f178                mat_bowsership_sm64_material_011
                0x000000000703f1f8                mat_revert_bowsership_sm64_material_015
                0x000000000703f218                mat_bowsership_sm64_material_015
                0x000000000703f2d0                mat_revert_bowsership_sm64_material_010
                0x000000000703f2e8                mat_bowsership_sm64_material_010
                0x000000000703f368                mat_revert_bowsership_sm64_material_008
                0x000000000703f388                mat_bowsership_sm64_material_008
                0x000000000703f440                mat_revert_bowsership_sm64_material_016
                0x000000000703f458                mat_bowsership_sm64_material_016
                0x000000000703f4d8                mat_revert_bowsership_sm64_material
                0x000000000703f4f0                mat_bowsership_sm64_material
                0x000000000703f570                mat_revert_bowsership_sm64_material_003
                0x000000000703f588                mat_bowsership_sm64_material_003
                0x000000000703f608                mat_revert_bowsership_sm64_material_005
                0x000000000703f628                mat_bowsership_sm64_material_005
                0x000000000703f6e0                mat_revert_bowsership_sm64_material_007
                0x000000000703f700                mat_bowsership_sm64_material_007
                0x000000000703f7b8                mat_revert_bowsership_sm64_material_001
                0x000000000703f7d8                mat_bowsership_sm64_material_001
                0x000000000703f890                bowsership_hat_kuppaship_color1_png_mesh_tri_12
                0x000000000703f8c0                bowsership_hat_kuppaship_color1_png_mesh_vtx_12
                0x000000000703f950                bowsership_hat_kuppaship_color1_png_mesh_tri_11
                0x000000000703f968                bowsership_hat_kuppaship_color1_png_mesh_vtx_11
                0x000000000703f9a8                bowsership_hat_kuppaship_color1_png_mesh_tri_10
                0x000000000703fa38                bowsership_hat_kuppaship_color1_png_mesh_vtx_10
                0x000000000703fc88                bowsership_hat_kuppaship_color1_png_mesh_tri_9
                0x000000000703fcc8                bowsership_hat_kuppaship_color1_png_mesh_vtx_9
                0x000000000703fda8                bowsership_hat_kuppaship_color1_png_mesh_tri_8
                0x000000000703fde8                bowsership_hat_kuppaship_color1_png_mesh_vtx_8
                0x000000000703feb8                bowsership_hat_kuppaship_color1_png_mesh_tri_7
                0x000000000703ff18                bowsership_hat_kuppaship_color1_png_mesh_vtx_7
                0x0000000007040098                bowsership_hat_kuppaship_color1_png_mesh_tri_6
                0x0000000007040128                bowsership_hat_kuppaship_color1_png_mesh_vtx_6
                0x0000000007040388                bowsership_hat_kuppaship_color1_png_mesh_tri_5
                0x00000000070403e0                bowsership_hat_kuppaship_color1_png_mesh_vtx_5
                0x0000000007040540                bowsership_hat_kuppaship_color1_png_mesh_tri_4
                0x0000000007040690                bowsership_hat_kuppaship_color1_png_mesh_vtx_4
                0x0000000007040a70                bowsership_hat_kuppaship_color1_png_mesh_tri_3
                0x0000000007040b00                bowsership_hat_kuppaship_color1_png_mesh_vtx_3
                0x0000000007040dd0                bowsership_hat_kuppaship_color1_png_mesh_tri_2
                0x0000000007040e50                bowsership_hat_kuppaship_color1_png_mesh_vtx_2
                0x0000000007041090                bowsership_hat_kuppaship_color1_png_mesh_tri_1
                0x0000000007041108                bowsership_hat_kuppaship_color1_png_mesh_vtx_1
                0x0000000007041268                bowsership_hat_kuppaship_color1_png_mesh_tri_0
                0x00000000070412c0                bowsership_hat_kuppaship_color1_png_mesh_vtx_0
                0x0000000007041420                bowsership_hat_kuppaship_color1_png_mesh_vtx_cull
                0x00000000070414a0                bowsership_dry_bowser_symbol_by_jaggentlemann_d8qqzxs_fullview_i4
                0x00000000070424a0                bowsership_dry_bowser_symbol_by_jaggentlemann_d8qqzxs_fullview_i4_aligner
                0x00000000070424a8                bowsership__23804E96B3FDF23B496994478B9BC426_ci4_pal_rgba16
                0x00000000070424b8                bowsership__23804E96B3FDF23B496994478B9BC426_ci4_pal_rgba16_aligner
                0x00000000070424c0                bowsership__23804E96B3FDF23B496994478B9BC426_ci4
                0x0000000007042cc0                bowsership__23804E96B3FDF23B496994478B9BC426_ci4_aligner
                0x0000000007042cc8                bowsership_Canon_i8
                0x0000000007043cc8                bowsership_Canon_i8_aligner
                0x0000000007043cd0                bowsership_goombashellline_ia8
                0x0000000007044cd0                bowsership_goombashellline_ia8_aligner
                0x0000000007044cd8                bowsership_dsaf_crate_ci4_pal_rgba16
                0x0000000007044cf8                bowsership_dsaf_crate_ci4_pal_rgba16_aligner
                0x0000000007044d00                bowsership_dsaf_crate_ci4
                0x0000000007045500                bowsership_dsaf_crate_ci4_aligner
                0x0000000007045508                bowsership_EARTHWORM_JIM_3D_4A65E94E_0_2_all_ci8_pal_rgba16
                0x00000000070455f8                bowsership_EARTHWORM_JIM_3D_4A65E94E_0_2_all_ci8_pal_rgba16_aligner
                0x0000000007045600                bowsership_EARTHWORM_JIM_3D_4A65E94E_0_2_all_ci8
                0x0000000007045a00                bowsership_EARTHWORM_JIM_3D_4A65E94E_0_2_all_ci8_aligner
                0x0000000007045a08                bowsership__0x7BC0_i8
                0x0000000007045e08                bowsership__0x7BC0_i8_aligner
                0x0000000007045e10                bowsership_stone00_n_spc_i8
                0x0000000007046210                bowsership_stone00_n_spc_i8_aligner
                0x0000000007046218                bowsership__3743576_i8
                0x0000000007047218                bowsership__3743576_i8_aligner
                0x0000000007047220                bowsership_GMSE01_ab677b39_1ci4_ci4_pal_rgba16
                0x0000000007047238                bowsership_GMSE01_ab677b39_1ci4_ci4_pal_rgba16_aligner
                0x0000000007047240                bowsership_GMSE01_ab677b39_1ci4_ci4
                0x0000000007047a40                bowsership_GMSE01_ab677b39_1ci4_ci4_aligner
                0x0000000007047a48                bowsership_j_oakgrain01_ci8_pal_rgba16
                0x0000000007047aa0                bowsership_j_oakgrain01_ci8_pal_rgba16_aligner
                0x0000000007047aa8                bowsership_j_oakgrain01_ci8
                0x0000000007047ea8                bowsership_j_oakgrain01_ci8_aligner
                0x0000000007047eb0                bowsership_RMGP01_03d1fc31_1small4_ci4_pal_rgba16
                0x0000000007047ed0                bowsership_RMGP01_03d1fc31_1small4_ci4_pal_rgba16_aligner
                0x0000000007047ed8                bowsership_RMGP01_03d1fc31_1small4_ci4
                0x00000000070486d8                bowsership_RMGP01_03d1fc31_1small4_ci4_aligner
                0x00000000070486e0                bowsership_sm64_material_014_lights
                0x00000000070486f8                bowsership_sm64_material_012_lights
                0x0000000007048710                bowsership_sm64_material_004_lights
                0x0000000007048728                bowsership_sm64_material_011_lights
                0x0000000007048740                bowsership_sm64_material_015_lights
                0x0000000007048758                bowsership_sm64_material_010_lights
                0x0000000007048770                bowsership_sm64_material_008_lights
                0x0000000007048788                bowsership_sm64_material_016_lights
                0x00000000070487a0                bowsership_sm64_material_lights
                0x00000000070487b8                bowsership_sm64_material_003_lights
                0x00000000070487d0                bowsership_sm64_material_005_lights
                0x00000000070487e8                bowsership_sm64_material_007_lights
                0x0000000007048800                bowsership_sm64_material_001_lights
                0x0000000007048818                submarine_collision
                0x0000000007048b38                submarine_material_revert_render_settings
                0x0000000007048b70                submarine_freeplaysub_mesh_layer_4
                0x0000000007048bb0                submarine_freeplaysub_mesh
                0x0000000007048c38                mat_revert_submarine_f3d_material
                0x0000000007048c58                mat_submarine_f3d_material
                0x0000000007048d10                mat_revert_submarine_sm64_material_005
                0x0000000007048d28                mat_submarine_sm64_material_005
                0x0000000007048da8                mat_revert_submarine_sm64_material_004
                0x0000000007048dc8                mat_submarine_sm64_material_004
                0x0000000007048e80                mat_revert_submarine_sm64_material_003
                0x0000000007048e98                mat_submarine_sm64_material_003
                0x0000000007048f18                mat_revert_submarine_sm64_material_002
                0x0000000007048f38                mat_submarine_sm64_material_002
                0x0000000007048ff0                submarine_freeplaysub_mesh_layer_4_tri_0
                0x0000000007049018                submarine_freeplaysub_mesh_layer_4_vtx_0
                0x0000000007049098                submarine_freeplaysub_mesh_layer_4_vtx_cull
                0x0000000007049118                submarine_freeplaysub_mesh_tri_3
                0x0000000007049138                submarine_freeplaysub_mesh_vtx_3
                0x0000000007049188                submarine_freeplaysub_mesh_tri_2
                0x0000000007049238                submarine_freeplaysub_mesh_vtx_2
                0x0000000007049498                submarine_freeplaysub_mesh_tri_1
                0x00000000070494f8                submarine_freeplaysub_mesh_vtx_1
                0x0000000007049618                submarine_freeplaysub_mesh_tri_0
                0x0000000007049638                submarine_freeplaysub_mesh_vtx_0
                0x0000000007049698                submarine_freeplaysub_mesh_vtx_cull
                0x0000000007049718                submarine__3506896_ci8_pal_rgba16
                0x00000000070497d8                submarine__3506896_ci8_pal_rgba16_aligner
                0x00000000070497e0                submarine__3506896_ci8
                0x0000000007049be0                submarine__3506896_ci8_aligner
                0x0000000007049be8                submarine_marine4_rgba16
                0x000000000704abe8                submarine_marine4_rgba16_aligner
                0x000000000704abf0                submarine_marine3_ci4_pal_rgba16
                0x000000000704ac00                submarine_marine3_ci4_pal_rgba16_aligner
                0x000000000704ac08                submarine_marine3_ci4
                0x000000000704ac88                submarine_marine3_ci4_aligner
                0x000000000704ac90                submarine_Unbenannt_2_rgba16
                0x000000000704b490                submarine_Unbenannt_2_rgba16_aligner
                0x000000000704b498                submarine_submarine1_ci8_pal_rgba16
                0x000000000704b4d0                submarine_submarine1_ci8_pal_rgba16_aligner
                0x000000000704b4d8                submarine_submarine1_ci8
                0x000000000704b8d8                submarine_submarine1_ci8_aligner
                0x000000000704b8e0                submarine_f3d_material_lights
                0x000000000704b8f8                submarine_sm64_material_005_lights
                0x000000000704b910                submarine_sm64_material_004_lights
                0x000000000704b928                submarine_sm64_material_003_lights
                0x000000000704b940                submarine_sm64_material_002_lights
                0x000000000704b958                castle_grounds_dl_material_revert_render_settings
                0x000000000704b998                castle_grounds_dl_Plane_002_mesh_layer_6
                0x000000000704b9b8                castle_grounds_dl_Plane_001_mesh_layer_1
                0x000000000704bae0                castle_grounds_dl_ZZZmain_mesh
                0x000000000704bbf0                castle_grounds_dl_ZZbush_mesh
                0x000000000704bc58                castle_grounds_dl_skChairsRedCouchmesh_mesh
                0x000000000704bcc8                castle_grounds_dl_raquet_mesh
                0x000000000704bd18                castle_grounds_dl_pPlane1_mesh
                0x000000000704bda8                castle_grounds_dl_pathtohouse_mesh
                0x000000000704bdc8                castle_grounds_dl_N64Logo_mesh
                0x000000000704bde8                castle_grounds_dl_n64case_mesh
                0x000000000704c038                castle_grounds_dl_maincupbaord_mesh
                0x000000000704c0a8                castle_grounds_dl_main_002_mesh
                0x000000000704c0c8                castle_grounds_dl_hat_nintendo64_color_png_mesh
                0x000000000704c120                castle_grounds_dl_fireflower_mesh
                0x000000000704c188                castle_grounds_dl_desk_mesh
                0x000000000704c1f8                castle_grounds_dl_default_004_mesh
                0x000000000704c2c8                castle_grounds_dl_curtain_mesh
                0x000000000704c3a8                castle_grounds_dl_CrtDisplay_mesh
                0x000000000704c410                castle_grounds_dl_cartridges_mesh
                0x000000000704c4d8                castle_grounds_dl_borders_mesh
                0x000000000704c570                castle_grounds_dl_book_mesh
                0x000000000704c5b0                castle_grounds_dl_bed_mesh
                0x000000000704c668                castle_grounds_dl_actionfigures_mesh
                0x000000000704c750                castle_grounds_dl_AABackground_mesh_layer_0
                0x000000000704c788                castle_grounds_dl_ZZZMain_003_mesh_layer_4
                0x000000000704c7c0                castle_grounds_dl_ZZZMain_001_mesh_layer_1
                0x000000000704c888                castle_grounds_dl_ZZZMain_mesh
                0x000000000704c8c0                castle_grounds_dl_ZZZMain_mesh_layer_1
                0x000000000704c8f8                castle_grounds_dl_zoo_002_mesh
                0x000000000704c938                castle_grounds_dl_Zbeanstalk_001_mesh_layer_5
                0x000000000704c958                castle_grounds_dl_transparentzzfog_001_mesh
                0x000000000704c978                castle_grounds_dl_transparentwater_001_mesh_layer_5
                0x000000000704c9b8                castle_grounds_dl_transparentsand_004_mesh_layer_5
                0x000000000704c9d8                castle_grounds_dl_transparentsand_001_mesh_layer_1
                0x000000000704ca90                castle_grounds_dl_penishills_028_mesh_layer_1
                0x000000000704cac8                castle_grounds_dl_penishills_002_mesh_layer_6
                0x000000000704cae8                castle_grounds_dl_dockpillars_mesh
                0x000000000704cb28                castle_grounds_dl_dockalpha_mesh
                0x000000000704cbf8                castle_grounds_dl_CloudOcean_001_mesh_layer_5
                0x000000000704cc18                castle_grounds_dl_beanstalk_mesh
                0x000000000704cc38                castle_grounds_dl_AANoCullLayer6_mesh_layer_6
                0x000000000704cc88                castle_grounds_dl_AANoCullAlphaMesh_mesh_layer_4
                0x000000000704cca8                castle_grounds_dl_AANoCullAlphaMesh_mesh
                0x000000000704ccf8                castle_grounds_dl_AABGMain_001_mesh_layer_0
                0x000000000704cd18                castle_grounds_dl_zzzzzsAND_mesh
                0x000000000704cd80                castle_grounds_dl_zzzzzsAND_mesh_layer_1
                0x000000000704ce00                castle_grounds_dl_ZZZsand_002_mesh
                0x000000000704ce98                castle_grounds_dl_ZZSun_mesh_layer_0
                0x000000000704ceb8                castle_grounds_dl_ZZSun_mesh_layer_5
                0x000000000704ced8                castle_grounds_dl_ZEyes_mesh_layer_6
                0x000000000704cef8                castle_grounds_dl_ZEyes_mesh
                0x000000000704cf30                castle_grounds_dl_YachtHoo_mesh
                0x000000000704cfd0                castle_grounds_dl_WaterAnimationOW_mesh_layer_5
                0x000000000704cff0                castle_grounds_dl_WateeTransparent_001_mesh_layer_5
                0x000000000704d010                castle_grounds_dl_transparentHay_002_mesh
                0x000000000704d068                castle_grounds_dl_rainbow_003_mesh
                0x000000000704d0a8                castle_grounds_dl_CloudOcean_mesh_layer_5
                0x000000000704d0c8                castle_grounds_dl_APlane_mesh
                0x000000000704d138                castle_grounds_dl_APenisHills_mesh
                0x000000000704d158                mat_revert_castle_grounds_dl_f3d_material_084
                0x000000000704d170                mat_castle_grounds_dl_f3d_material_084
                0x000000000704d1b0                mat_revert_castle_grounds_dl_f3d_material_083
                0x000000000704d1d0                mat_castle_grounds_dl_f3d_material_083
                0x000000000704d288                mat_revert_castle_grounds_dl_f3d_material_070
                0x000000000704d2a8                mat_castle_grounds_dl_f3d_material_070
                0x000000000704d360                mat_revert_castle_grounds_dl_f3d_material_082
                0x000000000704d378                mat_castle_grounds_dl_f3d_material_082
                0x000000000704d3f8                mat_revert_castle_grounds_dl_f3d_material_079
                0x000000000704d418                mat_castle_grounds_dl_f3d_material_079
                0x000000000704d4d0                mat_revert_castle_grounds_dl_f3d_material_080
                0x000000000704d4f0                mat_castle_grounds_dl_f3d_material_080
                0x000000000704d5a8                mat_revert_castle_grounds_dl_f3d_material_081
                0x000000000704d5c8                mat_castle_grounds_dl_f3d_material_081
                0x000000000704d680                mat_revert_castle_grounds_dl_f3d_material_076
                0x000000000704d698                mat_castle_grounds_dl_f3d_material_076
                0x000000000704d718                mat_revert_castle_grounds_dl_f3d_material_077
                0x000000000704d738                mat_castle_grounds_dl_f3d_material_077
                0x000000000704d7f0                mat_revert_castle_grounds_dl_f3d_material_075
                0x000000000704d810                mat_castle_grounds_dl_f3d_material_075
                0x000000000704d8c8                mat_revert_castle_grounds_dl_f3d_material_069_layer1
                0x000000000704d8f0                mat_castle_grounds_dl_f3d_material_069_layer1
                0x000000000704d9c0                mat_revert_castle_grounds_dl_f3d_material_074
                0x000000000704d9e0                mat_castle_grounds_dl_f3d_material_074
                0x000000000704da98                mat_revert_castle_grounds_dl_f3d_material_072_layer1
                0x000000000704dac0                mat_castle_grounds_dl_f3d_material_072_layer1
                0x000000000704db90                mat_revert_castle_grounds_dl_sm64_material_040
                0x000000000704dbb0                mat_castle_grounds_dl_sm64_material_040
                0x000000000704dc68                mat_revert_castle_grounds_dl_sm64_material_050
                0x000000000704dc88                mat_castle_grounds_dl_sm64_material_050
                0x000000000704dd40                mat_revert_castle_grounds_dl_sm64_material_008
                0x000000000704dd60                mat_castle_grounds_dl_sm64_material_008
                0x000000000704de18                mat_revert_castle_grounds_dl_sm64_material_007
                0x000000000704de38                mat_castle_grounds_dl_sm64_material_007
                0x000000000704def0                mat_revert_castle_grounds_dl_sm64_material_002
                0x000000000704df10                mat_castle_grounds_dl_sm64_material_002
                0x000000000704dfc8                mat_revert_castle_grounds_dl_sm64_material_100
                0x000000000704dfe0                mat_castle_grounds_dl_sm64_material_100
                0x000000000704e060                mat_revert_castle_grounds_dl_sm64_material_101
                0x000000000704e080                mat_castle_grounds_dl_sm64_material_101
                0x000000000704e138                mat_revert_castle_grounds_dl_sm64_material_044
                0x000000000704e158                mat_castle_grounds_dl_sm64_material_044
                0x000000000704e210                mat_revert_castle_grounds_dl_sm64_material_042
                0x000000000704e228                mat_castle_grounds_dl_sm64_material_042
                0x000000000704e2a8                mat_revert_castle_grounds_dl_sm64_material_041
                0x000000000704e2c8                mat_castle_grounds_dl_sm64_material_041
                0x000000000704e380                mat_revert_castle_grounds_dl_sm64_material
                0x000000000704e3a0                mat_castle_grounds_dl_sm64_material
                0x000000000704e458                mat_revert_castle_grounds_dl_sm64_material_106
                0x000000000704e470                mat_castle_grounds_dl_sm64_material_106
                0x000000000704e4f0                mat_revert_castle_grounds_dl_sm64_material_107
                0x000000000704e508                mat_castle_grounds_dl_sm64_material_107
                0x000000000704e588                mat_revert_castle_grounds_dl_sm64_material_105
                0x000000000704e5a8                mat_castle_grounds_dl_sm64_material_105
                0x000000000704e660                mat_revert_castle_grounds_dl_sm64_material_104
                0x000000000704e678                mat_castle_grounds_dl_sm64_material_104
                0x000000000704e6f8                mat_revert_castle_grounds_dl_sm64_material_038
                0x000000000704e718                mat_castle_grounds_dl_sm64_material_038
                0x000000000704e7d0                mat_revert_castle_grounds_dl_sm64_material_037
                0x000000000704e7f0                mat_castle_grounds_dl_sm64_material_037
                0x000000000704e8a8                mat_revert_castle_grounds_dl_Mat_f3d
                0x000000000704e8c8                mat_castle_grounds_dl_Mat_f3d
                0x000000000704e980                mat_revert_castle_grounds_dl_Gut_f3d
                0x000000000704e998                mat_castle_grounds_dl_Gut_f3d
                0x000000000704ea18                mat_castle_grounds_dl_sm64_material_079
                0x000000000704ea50                mat_revert_castle_grounds_dl_handle_SPRT_f3d
                0x000000000704ea68                mat_castle_grounds_dl_handle_SPRT_f3d
                0x000000000704eae8                mat_castle_grounds_dl_base_MAT_f3d
                0x000000000704eb60                mat_castle_grounds_dl_L_Real_MAT_f3d
                0x000000000704ebd8                mat_revert_castle_grounds_dl_gold_MAT_f3d
                0x000000000704ebf8                mat_castle_grounds_dl_gold_MAT_f3d
                0x000000000704ec98                mat_revert_castle_grounds_dl_marioKart_SPRT_f3d
                0x000000000704ecb8                mat_castle_grounds_dl_marioKart_SPRT_f3d
                0x000000000704ed70                mat_revert_castle_grounds_dl_sm64_material_108
                0x000000000704ed90                mat_castle_grounds_dl_sm64_material_108
                0x000000000704ee48                mat_revert_castle_grounds_dl_N64logo2
                0x000000000704ee60                mat_castle_grounds_dl_N64logo2
                0x000000000704ef10                mat_revert_castle_grounds_dl_sm64_material_085
                0x000000000704ef28                mat_castle_grounds_dl_sm64_material_085
                0x000000000704efa8                mat_revert_castle_grounds_dl_sm64_material_084
                0x000000000704efc8                mat_castle_grounds_dl_sm64_material_084
                0x000000000704f080                mat_revert_castle_grounds_dl_sm64_material_083
                0x000000000704f0a0                mat_castle_grounds_dl_sm64_material_083
                0x000000000704f158                mat_revert_castle_grounds_dl_sm64_material_032
                0x000000000704f170                mat_castle_grounds_dl_sm64_material_032
                0x000000000704f1f0                mat_revert_castle_grounds_dl_sm64_material_031
                0x000000000704f208                mat_castle_grounds_dl_sm64_material_031
                0x000000000704f288                mat_revert_castle_grounds_dl_sm64_material_030
                0x000000000704f2a0                mat_castle_grounds_dl_sm64_material_030
                0x000000000704f320                mat_revert_castle_grounds_dl_sm64_material_028
                0x000000000704f338                mat_castle_grounds_dl_sm64_material_028
                0x000000000704f3b8                mat_revert_castle_grounds_dl_sm64_material_027
                0x000000000704f3d0                mat_castle_grounds_dl_sm64_material_027
                0x000000000704f450                mat_revert_castle_grounds_dl_sm64_material_026
                0x000000000704f468                mat_castle_grounds_dl_sm64_material_026
                0x000000000704f4e8                mat_revert_castle_grounds_dl_sm64_material_029
                0x000000000704f500                mat_castle_grounds_dl_sm64_material_029
                0x000000000704f580                mat_revert_castle_grounds_dl_sm64_material_020
                0x000000000704f598                mat_castle_grounds_dl_sm64_material_020
                0x000000000704f618                mat_revert_castle_grounds_dl_sm64_material_022
                0x000000000704f630                mat_castle_grounds_dl_sm64_material_022
                0x000000000704f6b0                mat_revert_castle_grounds_dl_sm64_material_018
                0x000000000704f6c8                mat_castle_grounds_dl_sm64_material_018
                0x000000000704f748                mat_revert_castle_grounds_dl_sm64_material_017
                0x000000000704f760                mat_castle_grounds_dl_sm64_material_017
                0x000000000704f7e0                mat_revert_castle_grounds_dl_sm64_material_016
                0x000000000704f7f8                mat_castle_grounds_dl_sm64_material_016
                0x000000000704f878                mat_revert_castle_grounds_dl_sm64_material_019
                0x000000000704f890                mat_castle_grounds_dl_sm64_material_019
                0x000000000704f910                mat_revert_castle_grounds_dl_sm64_material_014
                0x000000000704f928                mat_castle_grounds_dl_sm64_material_014
                0x000000000704f9a8                mat_revert_castle_grounds_dl_sm64_material_013
                0x000000000704f9c0                mat_castle_grounds_dl_sm64_material_013
                0x000000000704fa40                mat_revert_castle_grounds_dl_sm64_material_012
                0x000000000704fa58                mat_castle_grounds_dl_sm64_material_012
                0x000000000704fad8                mat_revert_castle_grounds_dl_sm64_material_015
                0x000000000704faf0                mat_castle_grounds_dl_sm64_material_015
                0x000000000704fb70                mat_revert_castle_grounds_dl_sm64_material_010
                0x000000000704fb88                mat_castle_grounds_dl_sm64_material_010
                0x000000000704fc08                mat_revert_castle_grounds_dl_sm64_material_004
                0x000000000704fc20                mat_castle_grounds_dl_sm64_material_004
                0x000000000704fca0                mat_revert_castle_grounds_dl_sm64_material_095
                0x000000000704fcc0                mat_castle_grounds_dl_sm64_material_095
                0x000000000704fd78                mat_revert_castle_grounds_dl_sm64_material_089
                0x000000000704fd98                mat_castle_grounds_dl_sm64_material_089
                0x000000000704fe50                mat_revert_castle_grounds_dl_sm64_material_087
                0x000000000704fe70                mat_castle_grounds_dl_sm64_material_087
                0x000000000704ff28                mat_revert_castle_grounds_dl_sm64_material_088
                0x000000000704ff48                mat_castle_grounds_dl_sm64_material_088
                0x0000000007050000                mat_revert_castle_grounds_dl_sm64_material_039
                0x0000000007050018                mat_castle_grounds_dl_sm64_material_039
                0x0000000007050088                mat_revert_castle_grounds_dl_sm64_material_011
                0x00000000070500a0                mat_castle_grounds_dl_sm64_material_011
                0x0000000007050120                mat_revert_castle_grounds_dl_hat_nintendo64_color_png_f3d
                0x0000000007050138                mat_castle_grounds_dl_hat_nintendo64_color_png_f3d
                0x00000000070501e8                mat_castle_grounds_dl__03___Default_f3d
                0x0000000007050220                mat_revert_castle_grounds_dl_sm64_material_082
                0x0000000007050238                mat_castle_grounds_dl_sm64_material_082
                0x00000000070502b8                mat_revert_castle_grounds_dl_sm64_material_081
                0x00000000070502d8                mat_castle_grounds_dl_sm64_material_081
                0x0000000007050390                mat_revert_castle_grounds_dl_sm64_material_080
                0x00000000070503b0                mat_castle_grounds_dl_sm64_material_080
                0x0000000007050468                mat_revert_castle_grounds_dl_sm64_material_086
                0x0000000007050488                mat_castle_grounds_dl_sm64_material_086
                0x0000000007050540                mat_revert_castle_grounds_dl_sm64_material_048
                0x0000000007050560                mat_castle_grounds_dl_sm64_material_048
                0x0000000007050618                mat_revert_castle_grounds_dl_sm64_material_065
                0x0000000007050638                mat_castle_grounds_dl_sm64_material_065
                0x00000000070506f0                mat_revert_castle_grounds_dl_sm64_material_066
                0x0000000007050710                mat_castle_grounds_dl_sm64_material_066
                0x00000000070507c8                mat_revert_castle_grounds_dl_sm64_material_060
                0x00000000070507e8                mat_castle_grounds_dl_sm64_material_060
                0x00000000070508a0                mat_revert_castle_grounds_dl_sm64_material_061
                0x00000000070508c0                mat_castle_grounds_dl_sm64_material_061
                0x0000000007050978                mat_revert_castle_grounds_dl_sm64_material_069
                0x0000000007050998                mat_castle_grounds_dl_sm64_material_069
                0x0000000007050a50                mat_revert_castle_grounds_dl_sm64_material_070
                0x0000000007050a70                mat_castle_grounds_dl_sm64_material_070
                0x0000000007050b28                mat_revert_castle_grounds_dl_sm64_material_078
                0x0000000007050b48                mat_castle_grounds_dl_sm64_material_078
                0x0000000007050c00                mat_revert_castle_grounds_dl_sm64_material_024
                0x0000000007050c18                mat_castle_grounds_dl_sm64_material_024
                0x0000000007050c98                mat_revert_castle_grounds_dl_sm64_material_025
                0x0000000007050cb0                mat_castle_grounds_dl_sm64_material_025
                0x0000000007050d30                mat_revert_castle_grounds_dl_sm64_material_047
                0x0000000007050d50                mat_castle_grounds_dl_sm64_material_047
                0x0000000007050e08                mat_revert_castle_grounds_dl_sm64_material_046
                0x0000000007050e28                mat_castle_grounds_dl_sm64_material_046
                0x0000000007050ee0                mat_revert_castle_grounds_dl_G_Coin_MAT_f3d
                0x0000000007050f00                mat_castle_grounds_dl_G_Coin_MAT_f3d
                0x0000000007050fb8                mat_revert_castle_grounds_dl_G_Shroom_MAT_f3d
                0x0000000007050fd0                mat_castle_grounds_dl_G_Shroom_MAT_f3d
                0x0000000007051050                mat_revert_castle_grounds_dl_NSOQ_L_MAT_f3d
                0x0000000007051068                mat_castle_grounds_dl_NSOQ_L_MAT_f3d
                0x00000000070510e8                mat_revert_castle_grounds_dl_Piranha_MAT_f3d
                0x0000000007051108                mat_castle_grounds_dl_Piranha_MAT_f3d
                0x00000000070511c0                mat_revert_castle_grounds_dl_sm64_material_043
                0x00000000070511e0                mat_castle_grounds_dl_sm64_material_043
                0x0000000007051298                mat_revert_castle_grounds_dl_Branch_MAT_f3d
                0x00000000070512b8                mat_castle_grounds_dl_Branch_MAT_f3d
                0x0000000007051370                mat_castle_grounds_dl_pitchBlack_MAT_f3d
                0x00000000070513a8                mat_revert_castle_grounds_dl_pipe_MAT_f3d
                0x00000000070513c0                mat_castle_grounds_dl_pipe_MAT_f3d
                0x0000000007051470                mat_castle_grounds_dl_Material_wts3_png_001_f3d
                0x00000000070514e8                mat_castle_grounds_dl_Material_wts2_png_001_f3d
                0x0000000007051560                mat_castle_grounds_dl_Material_ssb4_png_001_f3d
                0x00000000070515d8                mat_castle_grounds_dl_Material_ssb2_png_001_f3d
                0x0000000007051650                mat_castle_grounds_dl_Material_oot2_png_001_f3d
                0x00000000070516c8                mat_castle_grounds_dl_Material_s_l300_png_001_f3d
                0x0000000007051740                mat_castle_grounds_dl_Material_mp2_png_001_f3d
                0x00000000070517b8                mat_castle_grounds_dl_Material_mp1_png_001_f3d
                0x0000000007051830                mat_castle_grounds_dl_Material_449794_super_mario_64_nintendo_64_spine_sides_png_001_
                0x00000000070518a8                mat_castle_grounds_dl_Material_336723_super_mario_64_nintendo_64_spine_sides_png_001_
                0x0000000007051920                mat_revert_castle_grounds_dl_sm64_material_034
                0x0000000007051940                mat_castle_grounds_dl_sm64_material_034
                0x00000000070519f8                mat_revert_castle_grounds_dl_Material_17612_poster_unframed_mockup_png_001_f3d
                0x0000000007051a10                mat_castle_grounds_dl_Material_17612_poster_unframed_mockup_png_001_f3d
                0x0000000007051ac0                mat_revert_castle_grounds_dl_Material_wheredoyouplayyours2_png_001_f3d
                0x0000000007051ad8                mat_castle_grounds_dl_Material_wheredoyouplayyours2_png_001_f3d
                0x0000000007051b88                mat_revert_castle_grounds_dl_Material_887ded7c8497d3aa749877c00539ae08__minimalist_poste_001
                0x0000000007051ba0                mat_castle_grounds_dl_Material_887ded7c8497d3aa749877c00539ae08__minimalist_poste_001
                0x0000000007051c50                mat_revert_castle_grounds_dl_Material_0374ef731bf55c53847dfbf592ab497b_png_f3d
                0x0000000007051c68                mat_castle_grounds_dl_Material_0374ef731bf55c53847dfbf592ab497b_png_f3d
                0x0000000007051d18                mat_revert_castle_grounds_dl_Material_dock_bmp_png_001_f3d
                0x0000000007051d38                mat_castle_grounds_dl_Material_dock_bmp_png_001_f3d
                0x0000000007051df0                mat_revert_castle_grounds_dl_mtBookt_mat_f3d
                0x0000000007051e08                mat_castle_grounds_dl_mtBookt_mat_f3d
                0x0000000007051e88                mat_revert_castle_grounds_dl_sm64_material_036
                0x0000000007051ea8                mat_castle_grounds_dl_sm64_material_036
                0x0000000007051f60                mat_revert_castle_grounds_dl_sm64_material_033
                0x0000000007051f80                mat_castle_grounds_dl_sm64_material_033
                0x0000000007052038                mat_revert_castle_grounds_dl_sm64_material_003
                0x0000000007052058                mat_castle_grounds_dl_sm64_material_003
                0x0000000007052110                mat_revert_castle_grounds_dl_sm64_material_094
                0x0000000007052130                mat_castle_grounds_dl_sm64_material_094
                0x00000000070521e8                mat_revert_castle_grounds_dl_sm64_material_023
                0x0000000007052208                mat_castle_grounds_dl_sm64_material_023
                0x00000000070522c0                mat_revert_castle_grounds_dl_sm64_material_035
                0x00000000070522e0                mat_castle_grounds_dl_sm64_material_035
                0x0000000007052398                mat_revert_castle_grounds_dl_sm64_material_099
                0x00000000070523b0                mat_castle_grounds_dl_sm64_material_099
                0x0000000007052430                mat_revert_castle_grounds_dl_sm64_material_098
                0x0000000007052450                mat_castle_grounds_dl_sm64_material_098
                0x0000000007052508                mat_revert_castle_grounds_dl_sm64_material_096
                0x0000000007052528                mat_castle_grounds_dl_sm64_material_096
                0x00000000070525e0                mat_revert_castle_grounds_dl_sm64_material_097
                0x0000000007052600                mat_castle_grounds_dl_sm64_material_097
                0x00000000070526b8                mat_revert_castle_grounds_dl_sm64_material_092
                0x00000000070526d0                mat_castle_grounds_dl_sm64_material_092
                0x0000000007052750                mat_revert_castle_grounds_dl_sm64_material_093
                0x0000000007052768                mat_castle_grounds_dl_sm64_material_093
                0x00000000070527e8                mat_revert_castle_grounds_dl_sm64_material_091
                0x0000000007052800                mat_castle_grounds_dl_sm64_material_091
                0x0000000007052880                mat_revert_castle_grounds_dl_sm64_material_090
                0x0000000007052898                mat_castle_grounds_dl_sm64_material_090
                0x0000000007052918                mat_revert_castle_grounds_dl_f3d_material_012_layer0
                0x0000000007052940                mat_castle_grounds_dl_f3d_material_012_layer0
                0x0000000007052a10                mat_revert_castle_grounds_dl_f3d_material_045
                0x0000000007052a28                mat_castle_grounds_dl_f3d_material_045
                0x0000000007052aa8                mat_revert_castle_grounds_dl_f3d_material_046
                0x0000000007052ac0                mat_castle_grounds_dl_f3d_material_046
                0x0000000007052b40                mat_revert_castle_grounds_dl_f3d_material_040
                0x0000000007052b58                mat_castle_grounds_dl_f3d_material_040
                0x0000000007052bd8                mat_revert_castle_grounds_dl_f3d_material_037
                0x0000000007052bf0                mat_castle_grounds_dl_f3d_material_037
                0x0000000007052c70                mat_revert_castle_grounds_dl_f3d_material_044
                0x0000000007052c88                mat_castle_grounds_dl_f3d_material_044
                0x0000000007052d08                mat_revert_castle_grounds_dl_f3d_material_047
                0x0000000007052d20                mat_castle_grounds_dl_f3d_material_047
                0x0000000007052da0                mat_revert_castle_grounds_dl_VMtl091_f3d
                0x0000000007052dc0                mat_castle_grounds_dl_VMtl091_f3d
                0x0000000007052e78                mat_revert_castle_grounds_dl_f3d_material_048
                0x0000000007052e98                mat_castle_grounds_dl_f3d_material_048
                0x0000000007052f50                mat_revert_castle_grounds_dl_f3d_material_049
                0x0000000007052f70                mat_castle_grounds_dl_f3d_material_049
                0x0000000007053028                mat_revert_castle_grounds_dl_sm64_material_v3
                0x0000000007053040                mat_castle_grounds_dl_sm64_material_v3
                0x00000000070530c0                mat_revert_castle_grounds_dl_f3d_material_043
                0x00000000070530d8                mat_castle_grounds_dl_f3d_material_043
                0x0000000007053158                mat_revert_castle_grounds_dl_sm64_material_060_v3
                0x0000000007053178                mat_castle_grounds_dl_sm64_material_060_v3
                0x0000000007053230                mat_revert_castle_grounds_dl_f3d_material_085
                0x0000000007053250                mat_castle_grounds_dl_f3d_material_085
                0x0000000007053308                mat_revert_castle_grounds_dl_sm64_material_072_v3
                0x0000000007053320                mat_castle_grounds_dl_sm64_material_072_v3
                0x00000000070533a0                mat_revert_castle_grounds_dl_f3d_material_059
                0x00000000070533c0                mat_castle_grounds_dl_f3d_material_059
                0x0000000007053478                mat_revert_castle_grounds_dl_f3d_material_053
                0x0000000007053490                mat_castle_grounds_dl_f3d_material_053
                0x00000000070534b8                mat_revert_castle_grounds_dl_BOWSERLIGHTS
                0x00000000070534d8                mat_castle_grounds_dl_BOWSERLIGHTS
                0x0000000007053590                mat_revert_castle_grounds_dl_f3d_material_025
                0x00000000070535b0                mat_castle_grounds_dl_f3d_material_025
                0x0000000007053668                mat_revert_castle_grounds_dl_f3d_material_033
                0x0000000007053680                mat_castle_grounds_dl_f3d_material_033
                0x0000000007053700                mat_revert_castle_grounds_dl_f3d_material_027_layer1
                0x0000000007053728                mat_castle_grounds_dl_f3d_material_027_layer1
                0x00000000070537f8                mat_revert_castle_grounds_dl_f3d_material_055
                0x0000000007053818                mat_castle_grounds_dl_f3d_material_055
                0x00000000070538d0                mat_revert_castle_grounds_dl_PENISHILLS2
                0x00000000070538e8                mat_castle_grounds_dl_PENISHILLS2
                0x0000000007053968                mat_revert_castle_grounds_dl_f3d_material_024
                0x0000000007053980                mat_castle_grounds_dl_f3d_material_024
                0x00000000070539c0                mat_revert_castle_grounds_dl_sm64_material_044_v3
                0x00000000070539e0                mat_castle_grounds_dl_sm64_material_044_v3
                0x0000000007053a98                mat_revert_castle_grounds_dl_sm64_material_077_v3
                0x0000000007053ab8                mat_castle_grounds_dl_sm64_material_077_v3
                0x0000000007053b70                mat_revert_castle_grounds_dl_sm64_material_076_v3
                0x0000000007053b90                mat_castle_grounds_dl_sm64_material_076_v3
                0x0000000007053c48                mat_revert_castle_grounds_dl_sm64_material_074_v3
                0x0000000007053c68                mat_castle_grounds_dl_sm64_material_074_v3
                0x0000000007053d20                mat_revert_castle_grounds_dl_sm64_material_075_v3
                0x0000000007053d40                mat_castle_grounds_dl_sm64_material_075_v3
                0x0000000007053df8                mat_revert_castle_grounds_dl_sm64_material_045_v3
                0x0000000007053e10                mat_castle_grounds_dl_sm64_material_045_v3
                0x0000000007053e90                mat_revert_castle_grounds_dl_sm64_material_058_v3
                0x0000000007053eb0                mat_castle_grounds_dl_sm64_material_058_v3
                0x0000000007053f68                mat_revert_castle_grounds_dl_sm64_material_059_v3
                0x0000000007053f88                mat_castle_grounds_dl_sm64_material_059_v3
                0x0000000007054040                mat_revert_castle_grounds_dl_sm64_material_078_v3
                0x0000000007054060                mat_castle_grounds_dl_sm64_material_078_v3
                0x0000000007054118                mat_revert_castle_grounds_dl_BBB3
                0x0000000007054130                mat_castle_grounds_dl_BBB3
                0x00000000070541b0                mat_revert_castle_grounds_dl_BBB2
                0x00000000070541c8                mat_castle_grounds_dl_BBB2
                0x0000000007054248                mat_revert_castle_grounds_dl_BBB1
                0x0000000007054260                mat_castle_grounds_dl_BBB1
                0x00000000070542e0                mat_revert_castle_grounds_dl_f3d_material_073
                0x00000000070542f8                mat_castle_grounds_dl_f3d_material_073
                0x0000000007054338                mat_revert_castle_grounds_dl_sm64_material_073_v3
                0x0000000007054350                mat_castle_grounds_dl_sm64_material_073_v3
                0x00000000070543d0                mat_revert_castle_grounds_dl_f3d_material_058
                0x00000000070543f0                mat_castle_grounds_dl_f3d_material_058
                0x00000000070544a8                mat_revert_castle_grounds_dl_f3d_material_057
                0x00000000070544c0                mat_castle_grounds_dl_f3d_material_057
                0x0000000007054540                mat_revert_castle_grounds_dl_f3d_material_056
                0x0000000007054558                mat_castle_grounds_dl_f3d_material_056
                0x00000000070545d8                mat_revert_castle_grounds_dl_f3d_material_050
                0x00000000070545f0                mat_castle_grounds_dl_f3d_material_050
                0x0000000007054670                mat_revert_castle_grounds_dl_sm64_material_015_v3
                0x0000000007054688                mat_castle_grounds_dl_sm64_material_015_v3
                0x0000000007054708                mat_revert_castle_grounds_dl_sm64_material_002_v3
                0x0000000007054728                mat_castle_grounds_dl_sm64_material_002_v3
                0x00000000070547e0                mat_revert_castle_grounds_dl_sm64_material_001
                0x00000000070547f8                mat_castle_grounds_dl_sm64_material_001
                0x0000000007054880                mat_revert_castle_grounds_dl_sm64_material_006_v3
                0x0000000007054898                mat_castle_grounds_dl_sm64_material_006_v3
                0x0000000007054918                mat_revert_castle_grounds_dl_GRAS_layer1
                0x0000000007054940                mat_castle_grounds_dl_GRAS_layer1
                0x0000000007054a10                mat_revert_castle_grounds_dl_sm64_material_022_v3
                0x0000000007054a28                mat_castle_grounds_dl_sm64_material_022_v3
                0x0000000007054aa8                mat_revert_castle_grounds_dl_sm64_material_117
                0x0000000007054ac0                mat_castle_grounds_dl_sm64_material_117
                0x0000000007054b40                mat_revert_castle_grounds_dl_sm64_material_118
                0x0000000007054b60                mat_castle_grounds_dl_sm64_material_118
                0x0000000007054c18                mat_revert_castle_grounds_dl_sm64_material_082_v3
                0x0000000007054c30                mat_castle_grounds_dl_sm64_material_082_v3
                0x0000000007054cb8                mat_revert_castle_grounds_dl_sm64_material_027_v3
                0x0000000007054cd8                mat_castle_grounds_dl_sm64_material_027_v3
                0x0000000007054d90                mat_revert_castle_grounds_dl_sm64_material_001_v3
                0x0000000007054da8                mat_castle_grounds_dl_sm64_material_001_v3
                0x0000000007054e28                mat_revert_castle_grounds_dl_f3d_material_layer0
                0x0000000007054e48                mat_castle_grounds_dl_f3d_material_layer0
                0x0000000007054e90                mat_revert_castle_grounds_dl_f3d_material_001
                0x0000000007054ea8                mat_castle_grounds_dl_f3d_material_001
                0x0000000007054f28                mat_revert_castle_grounds_dl_f3d_material_051
                0x0000000007054f40                mat_castle_grounds_dl_f3d_material_051
                0x0000000007054fb0                mat_revert_castle_grounds_dl_sm64_material_v3_001
                0x0000000007054fc8                mat_castle_grounds_dl_sm64_material_v3_001
                0x0000000007055048                mat_revert_castle_grounds_dl_sm64_material_026_v3
                0x0000000007055068                mat_castle_grounds_dl_sm64_material_026_v3
                0x0000000007055108                mat_revert_castle_grounds_dl_sm64_material_115
                0x0000000007055128                mat_castle_grounds_dl_sm64_material_115
                0x00000000070551e0                mat_revert_castle_grounds_dl_sm64_material_116
                0x0000000007055200                mat_castle_grounds_dl_sm64_material_116
                0x00000000070552b8                mat_revert_castle_grounds_dl_sm64_material_119
                0x00000000070552d8                mat_castle_grounds_dl_sm64_material_119
                0x0000000007055390                mat_revert_castle_grounds_dl_mario_cap_tx_f3d_001
                0x00000000070553a8                mat_castle_grounds_dl_mario_cap_tx_f3d_001
                0x0000000007055458                mat_revert_castle_grounds_dl_sm64_material_120
                0x0000000007055478                mat_castle_grounds_dl_sm64_material_120
                0x0000000007055530                mat_revert_castle_grounds_dl_OWWATER_layer5
                0x0000000007055558                mat_castle_grounds_dl_OWWATER_layer5
                0x0000000007055628                mat_revert_castle_grounds_dl_ALPHAGRAS_layer5
                0x0000000007055650                mat_castle_grounds_dl_ALPHAGRAS_layer5
                0x0000000007055720                mat_revert_castle_grounds_dl_sm64_material_011_v3
                0x0000000007055738                mat_castle_grounds_dl_sm64_material_011_v3
                0x00000000070557b8                mat_revert_castle_grounds_dl_sm64_material_013_v3
                0x00000000070557d8                mat_castle_grounds_dl_sm64_material_013_v3
                0x0000000007055890                mat_revert_castle_grounds_dl_sm64_material_016_v2_v3_001
                0x00000000070558b0                mat_castle_grounds_dl_sm64_material_016_v2_v3_001
                0x0000000007055970                mat_revert_castle_grounds_dl_CloudSky_layer5
                0x0000000007055998                mat_castle_grounds_dl_CloudSky_layer5
                0x0000000007055a70                mat_revert_castle_grounds_dl_test_001_v3
                0x0000000007055a88                mat_castle_grounds_dl_test_001_v3
                0x0000000007055af8                mat_revert_castle_grounds_dl_test_v3
                0x0000000007055b10                mat_castle_grounds_dl_test_v3
                0x0000000007055b80                mat_revert_castle_grounds_dl_sm64_material_014_v3
                0x0000000007055b98                mat_castle_grounds_dl_sm64_material_014_v3
                0x0000000007055c18                mat_revert_castle_grounds_dl_penishills
                0x0000000007055c30                mat_castle_grounds_dl_penishills
                0x0000000007055cb0                castle_grounds_dl_Plane_002_mesh_layer_6_tri_0
                0x0000000007055ce0                castle_grounds_dl_Plane_002_mesh_layer_6_vtx_0
                0x0000000007055de0                castle_grounds_dl_Plane_001_mesh_layer_1_tri_11
                0x0000000007056068                castle_grounds_dl_Plane_001_mesh_layer_1_vtx_11
                0x0000000007056aa8                castle_grounds_dl_Plane_001_mesh_layer_1_tri_10
                0x0000000007056b60                castle_grounds_dl_Plane_001_mesh_layer_1_vtx_10
                0x0000000007056ec0                castle_grounds_dl_Plane_001_mesh_layer_1_tri_9
                0x0000000007056ee8                castle_grounds_dl_Plane_001_mesh_layer_1_vtx_9
                0x0000000007056f68                castle_grounds_dl_Plane_001_mesh_layer_1_tri_8
                0x0000000007056f98                castle_grounds_dl_Plane_001_mesh_layer_1_vtx_8
                0x0000000007057058                castle_grounds_dl_Plane_001_mesh_layer_1_tri_7
                0x00000000070570d8                castle_grounds_dl_Plane_001_mesh_layer_1_vtx_7
                0x00000000070572d8                castle_grounds_dl_Plane_001_mesh_layer_1_tri_6
                0x0000000007057360                castle_grounds_dl_Plane_001_mesh_layer_1_vtx_6
                0x00000000070575e0                castle_grounds_dl_Plane_001_mesh_layer_1_tri_5
                0x0000000007057808                castle_grounds_dl_Plane_001_mesh_layer_1_vtx_5
                0x0000000007058348                castle_grounds_dl_Plane_001_mesh_layer_1_tri_4
                0x0000000007058548                castle_grounds_dl_Plane_001_mesh_layer_1_vtx_4
                0x0000000007058dc8                castle_grounds_dl_Plane_001_mesh_layer_1_tri_3
                0x0000000007058df8                castle_grounds_dl_Plane_001_mesh_layer_1_vtx_3
                0x0000000007058e98                castle_grounds_dl_Plane_001_mesh_layer_1_tri_2
                0x0000000007058fa8                castle_grounds_dl_Plane_001_mesh_layer_1_vtx_2
                0x00000000070594b8                castle_grounds_dl_Plane_001_mesh_layer_1_tri_1
                0x00000000070595f0                castle_grounds_dl_Plane_001_mesh_layer_1_vtx_1
                0x0000000007059da0                castle_grounds_dl_Plane_001_mesh_layer_1_tri_0
                0x0000000007059ee0                castle_grounds_dl_Plane_001_mesh_layer_1_vtx_0
                0x000000000705a600                castle_grounds_dl_ZZZmain_mesh_tri_10
                0x000000000705a678                castle_grounds_dl_ZZZmain_mesh_vtx_10
                0x000000000705a8f8                castle_grounds_dl_ZZZmain_mesh_tri_9
                0x000000000705a958                castle_grounds_dl_ZZZmain_mesh_vtx_9
                0x000000000705aad8                castle_grounds_dl_ZZZmain_mesh_tri_8
                0x000000000705aaf8                castle_grounds_dl_ZZZmain_mesh_vtx_8
                0x000000000705ab58                castle_grounds_dl_ZZZmain_mesh_tri_7
                0x000000000705ab90                castle_grounds_dl_ZZZmain_mesh_vtx_7
                0x000000000705ac40                castle_grounds_dl_ZZZmain_mesh_tri_6
                0x000000000705ac90                castle_grounds_dl_ZZZmain_mesh_vtx_6
                0x000000000705adb0                castle_grounds_dl_ZZZmain_mesh_tri_5
                0x000000000705adc8                castle_grounds_dl_ZZZmain_mesh_vtx_5
                0x000000000705ae08                castle_grounds_dl_ZZZmain_mesh_tri_4
                0x000000000705ae38                castle_grounds_dl_ZZZmain_mesh_vtx_4
                0x000000000705aef8                castle_grounds_dl_ZZZmain_mesh_tri_3
                0x000000000705af10                castle_grounds_dl_ZZZmain_mesh_vtx_3
                0x000000000705af50                castle_grounds_dl_ZZZmain_mesh_tri_2
                0x000000000705af80                castle_grounds_dl_ZZZmain_mesh_vtx_2
                0x000000000705b040                castle_grounds_dl_ZZZmain_mesh_tri_1
                0x000000000705b128                castle_grounds_dl_ZZZmain_mesh_vtx_1
                0x000000000705b4c8                castle_grounds_dl_ZZZmain_mesh_tri_0
                0x000000000705b520                castle_grounds_dl_ZZZmain_mesh_vtx_0
                0x000000000705b670                castle_grounds_dl_ZZbush_mesh_tri_3
                0x000000000705b690                castle_grounds_dl_ZZbush_mesh_vtx_3
                0x000000000705b6f0                castle_grounds_dl_ZZbush_mesh_tri_2
                0x000000000705b720                castle_grounds_dl_ZZbush_mesh_vtx_2
                0x000000000705b7c0                castle_grounds_dl_ZZbush_mesh_tri_1
                0x000000000705b828                castle_grounds_dl_ZZbush_mesh_vtx_1
                0x000000000705baa8                castle_grounds_dl_ZZbush_mesh_tri_0
                0x000000000705bb08                castle_grounds_dl_ZZbush_mesh_vtx_0
                0x000000000705bc88                castle_grounds_dl_skChairsRedCouchmesh_mesh_tri_2
                0x000000000705bce8                castle_grounds_dl_skChairsRedCouchmesh_mesh_vtx_2
                0x000000000705be28                castle_grounds_dl_skChairsRedCouchmesh_mesh_tri_1
                0x000000000705be98                castle_grounds_dl_skChairsRedCouchmesh_mesh_vtx_1
                0x000000000705bfe8                castle_grounds_dl_skChairsRedCouchmesh_mesh_tri_0
                0x000000000705c008                castle_grounds_dl_skChairsRedCouchmesh_mesh_vtx_0
                0x000000000705c068                castle_grounds_dl_skChairsRedCouchmesh_mesh_vtx_cull
                0x000000000705c0e8                castle_grounds_dl_raquet_mesh_tri_1
                0x000000000705c108                castle_grounds_dl_raquet_mesh_vtx_1
                0x000000000705c168                castle_grounds_dl_raquet_mesh_tri_0
                0x000000000705c268                castle_grounds_dl_raquet_mesh_vtx_0
                0x000000000705c938                castle_grounds_dl_raquet_mesh_vtx_cull
                0x000000000705c9b8                castle_grounds_dl_pPlane1_mesh_tri_4
                0x000000000705c9d0                castle_grounds_dl_pPlane1_mesh_vtx_4
                0x000000000705ca30                castle_grounds_dl_pPlane1_mesh_tri_3
                0x000000000705ca68                castle_grounds_dl_pPlane1_mesh_vtx_3
                0x000000000705cbe8                castle_grounds_dl_pPlane1_mesh_tri_2
                0x000000000705cc00                castle_grounds_dl_pPlane1_mesh_vtx_2
                0x000000000705cc40                castle_grounds_dl_pPlane1_mesh_tri_1
                0x000000000705ccd0                castle_grounds_dl_pPlane1_mesh_vtx_1
                0x000000000705cdf0                castle_grounds_dl_pPlane1_mesh_tri_0
                0x000000000705ce08                castle_grounds_dl_pPlane1_mesh_vtx_0
                0x000000000705ce48                castle_grounds_dl_pPlane1_mesh_vtx_cull
                0x000000000705cec8                castle_grounds_dl_pathtohouse_mesh_tri_0
                0x000000000705cef0                castle_grounds_dl_pathtohouse_mesh_vtx_0
                0x000000000705cf70                castle_grounds_dl_N64Logo_mesh_tri_0
                0x000000000705cf98                castle_grounds_dl_N64Logo_mesh_vtx_0
                0x000000000705d018                castle_grounds_dl_n64case_mesh_tri_22
                0x000000000705d030                castle_grounds_dl_n64case_mesh_vtx_22
                0x000000000705d070                castle_grounds_dl_n64case_mesh_tri_21
                0x000000000705d088                castle_grounds_dl_n64case_mesh_vtx_21
                0x000000000705d0c8                castle_grounds_dl_n64case_mesh_tri_20
                0x000000000705d0e0                castle_grounds_dl_n64case_mesh_vtx_20
                0x000000000705d120                castle_grounds_dl_n64case_mesh_tri_19
                0x000000000705d138                castle_grounds_dl_n64case_mesh_vtx_19
                0x000000000705d178                castle_grounds_dl_n64case_mesh_tri_18
                0x000000000705d190                castle_grounds_dl_n64case_mesh_vtx_18
                0x000000000705d1d0                castle_grounds_dl_n64case_mesh_tri_17
                0x000000000705d1e8                castle_grounds_dl_n64case_mesh_vtx_17
                0x000000000705d228                castle_grounds_dl_n64case_mesh_tri_16
                0x000000000705d240                castle_grounds_dl_n64case_mesh_vtx_16
                0x000000000705d280                castle_grounds_dl_n64case_mesh_tri_15
                0x000000000705d298                castle_grounds_dl_n64case_mesh_vtx_15
                0x000000000705d2d8                castle_grounds_dl_n64case_mesh_tri_14
                0x000000000705d2f0                castle_grounds_dl_n64case_mesh_vtx_14
                0x000000000705d330                castle_grounds_dl_n64case_mesh_tri_13
                0x000000000705d348                castle_grounds_dl_n64case_mesh_vtx_13
                0x000000000705d388                castle_grounds_dl_n64case_mesh_tri_12
                0x000000000705d3a0                castle_grounds_dl_n64case_mesh_vtx_12
                0x000000000705d3e0                castle_grounds_dl_n64case_mesh_tri_11
                0x000000000705d3f8                castle_grounds_dl_n64case_mesh_vtx_11
                0x000000000705d438                castle_grounds_dl_n64case_mesh_tri_10
                0x000000000705d450                castle_grounds_dl_n64case_mesh_vtx_10
                0x000000000705d490                castle_grounds_dl_n64case_mesh_tri_9
                0x000000000705d4a8                castle_grounds_dl_n64case_mesh_vtx_9
                0x000000000705d4e8                castle_grounds_dl_n64case_mesh_tri_8
                0x000000000705d500                castle_grounds_dl_n64case_mesh_vtx_8
                0x000000000705d540                castle_grounds_dl_n64case_mesh_tri_7
                0x000000000705d558                castle_grounds_dl_n64case_mesh_vtx_7
                0x000000000705d598                castle_grounds_dl_n64case_mesh_tri_6
                0x000000000705d5b8                castle_grounds_dl_n64case_mesh_vtx_6
                0x000000000705d638                castle_grounds_dl_n64case_mesh_tri_5
                0x000000000705d650                castle_grounds_dl_n64case_mesh_vtx_5
                0x000000000705d690                castle_grounds_dl_n64case_mesh_tri_4
                0x000000000705d6a8                castle_grounds_dl_n64case_mesh_vtx_4
                0x000000000705d6e8                castle_grounds_dl_n64case_mesh_tri_3
                0x000000000705d700                castle_grounds_dl_n64case_mesh_vtx_3
                0x000000000705d740                castle_grounds_dl_n64case_mesh_tri_2
                0x000000000705d768                castle_grounds_dl_n64case_mesh_vtx_2
                0x000000000705d828                castle_grounds_dl_n64case_mesh_tri_1
                0x000000000705d840                castle_grounds_dl_n64case_mesh_vtx_1
                0x000000000705d880                castle_grounds_dl_n64case_mesh_tri_0
                0x000000000705d9d8                castle_grounds_dl_n64case_mesh_vtx_0
                0x000000000705de58                castle_grounds_dl_n64case_mesh_vtx_cull
                0x000000000705ded8                castle_grounds_dl_maincupbaord_mesh_tri_2
                0x000000000705df38                castle_grounds_dl_maincupbaord_mesh_vtx_2
                0x000000000705e0b8                castle_grounds_dl_maincupbaord_mesh_tri_1
                0x000000000705e0d0                castle_grounds_dl_maincupbaord_mesh_vtx_1
                0x000000000705e110                castle_grounds_dl_maincupbaord_mesh_tri_0
                0x000000000705e1b8                castle_grounds_dl_maincupbaord_mesh_vtx_0
                0x000000000705e498                castle_grounds_dl_maincupbaord_mesh_vtx_cull
                0x000000000705e518                castle_grounds_dl_main_002_mesh_tri_0
                0x000000000705e538                castle_grounds_dl_main_002_mesh_vtx_0
                0x000000000705e5b8                castle_grounds_dl_hat_nintendo64_color_png_mesh_tri_1
                0x000000000705e610                castle_grounds_dl_hat_nintendo64_color_png_mesh_vtx_1
                0x000000000705e710                castle_grounds_dl_hat_nintendo64_color_png_mesh_tri_0
                0x000000000705eba8                castle_grounds_dl_hat_nintendo64_color_png_mesh_vtx_0
                0x0000000007060848                castle_grounds_dl_hat_nintendo64_color_png_mesh_vtx_cull
                0x00000000070608c8                castle_grounds_dl_fireflower_mesh_tri_2
                0x00000000070608f8                castle_grounds_dl_fireflower_mesh_vtx_2
                0x0000000007060a78                castle_grounds_dl_fireflower_mesh_tri_1
                0x0000000007060a90                castle_grounds_dl_fireflower_mesh_vtx_1
                0x0000000007060ad0                castle_grounds_dl_fireflower_mesh_tri_0
                0x0000000007060af0                castle_grounds_dl_fireflower_mesh_vtx_0
                0x0000000007060b80                castle_grounds_dl_fireflower_mesh_vtx_cull
                0x0000000007060c00                castle_grounds_dl_desk_mesh_tri_2
                0x0000000007060c18                castle_grounds_dl_desk_mesh_vtx_2
                0x0000000007060c58                castle_grounds_dl_desk_mesh_tri_1
                0x0000000007060ce8                castle_grounds_dl_desk_mesh_vtx_1
                0x0000000007060ea8                castle_grounds_dl_desk_mesh_tri_0
                0x0000000007060f78                castle_grounds_dl_desk_mesh_vtx_0
                0x00000000070612a8                castle_grounds_dl_desk_mesh_vtx_cull
                0x0000000007061328                castle_grounds_dl_default_004_mesh_tri_6
                0x0000000007061348                castle_grounds_dl_default_004_mesh_vtx_6
                0x00000000070613a8                castle_grounds_dl_default_004_mesh_tri_5
                0x00000000070613e8                castle_grounds_dl_default_004_mesh_vtx_5
                0x0000000007061498                castle_grounds_dl_default_004_mesh_tri_4
                0x00000000070614d0                castle_grounds_dl_default_004_mesh_vtx_4
                0x0000000007061540                castle_grounds_dl_default_004_mesh_tri_3
                0x00000000070616b0                castle_grounds_dl_default_004_mesh_vtx_3
                0x0000000007061d50                castle_grounds_dl_default_004_mesh_tri_2
                0x0000000007061e20                castle_grounds_dl_default_004_mesh_vtx_2
                0x0000000007061ff0                castle_grounds_dl_default_004_mesh_tri_1
                0x0000000007062298                castle_grounds_dl_default_004_mesh_vtx_1
                0x00000000070630a8                castle_grounds_dl_default_004_mesh_tri_0
                0x0000000007063100                castle_grounds_dl_default_004_mesh_vtx_0
                0x00000000070631f0                castle_grounds_dl_default_004_mesh_vtx_cull
                0x0000000007063270                castle_grounds_dl_curtain_mesh_tri_8
                0x0000000007063288                castle_grounds_dl_curtain_mesh_vtx_8
                0x00000000070632c8                castle_grounds_dl_curtain_mesh_tri_7
                0x00000000070632e0                castle_grounds_dl_curtain_mesh_vtx_7
                0x0000000007063320                castle_grounds_dl_curtain_mesh_tri_6
                0x0000000007063338                castle_grounds_dl_curtain_mesh_vtx_6
                0x0000000007063378                castle_grounds_dl_curtain_mesh_tri_5
                0x0000000007063398                castle_grounds_dl_curtain_mesh_vtx_5
                0x0000000007063418                castle_grounds_dl_curtain_mesh_tri_4
                0x0000000007063438                castle_grounds_dl_curtain_mesh_vtx_4
                0x00000000070634f8                castle_grounds_dl_curtain_mesh_tri_3
                0x0000000007063510                castle_grounds_dl_curtain_mesh_vtx_3
                0x0000000007063540                castle_grounds_dl_curtain_mesh_tri_2
                0x0000000007063558                castle_grounds_dl_curtain_mesh_vtx_2
                0x0000000007063598                castle_grounds_dl_curtain_mesh_tri_1
                0x00000000070635b0                castle_grounds_dl_curtain_mesh_vtx_1
                0x0000000007063610                castle_grounds_dl_curtain_mesh_tri_0
                0x0000000007063640                castle_grounds_dl_curtain_mesh_vtx_0
                0x0000000007063740                castle_grounds_dl_CrtDisplay_mesh_tri_2
                0x0000000007063758                castle_grounds_dl_CrtDisplay_mesh_vtx_2
                0x00000000070637b8                castle_grounds_dl_CrtDisplay_mesh_tri_1
                0x0000000007063800                castle_grounds_dl_CrtDisplay_mesh_vtx_1
                0x0000000007063920                castle_grounds_dl_CrtDisplay_mesh_tri_0
                0x0000000007063b28                castle_grounds_dl_CrtDisplay_mesh_vtx_0
                0x0000000007064388                castle_grounds_dl_CrtDisplay_mesh_vtx_cull
                0x0000000007064408                castle_grounds_dl_cartridges_mesh_tri_9
                0x0000000007064420                castle_grounds_dl_cartridges_mesh_vtx_9
                0x0000000007064460                castle_grounds_dl_cartridges_mesh_tri_8
                0x0000000007064478                castle_grounds_dl_cartridges_mesh_vtx_8
                0x00000000070644b8                castle_grounds_dl_cartridges_mesh_tri_7
                0x00000000070644d0                castle_grounds_dl_cartridges_mesh_vtx_7
                0x0000000007064510                castle_grounds_dl_cartridges_mesh_tri_6
                0x0000000007064528                castle_grounds_dl_cartridges_mesh_vtx_6
                0x0000000007064568                castle_grounds_dl_cartridges_mesh_tri_5
                0x0000000007064588                castle_grounds_dl_cartridges_mesh_vtx_5
                0x0000000007064608                castle_grounds_dl_cartridges_mesh_tri_4
                0x0000000007064628                castle_grounds_dl_cartridges_mesh_vtx_4
                0x0000000007064678                castle_grounds_dl_cartridges_mesh_tri_3
                0x0000000007064690                castle_grounds_dl_cartridges_mesh_vtx_3
                0x00000000070646d0                castle_grounds_dl_cartridges_mesh_tri_2
                0x00000000070646e8                castle_grounds_dl_cartridges_mesh_vtx_2
                0x0000000007064728                castle_grounds_dl_cartridges_mesh_tri_1
                0x0000000007064740                castle_grounds_dl_cartridges_mesh_vtx_1
                0x0000000007064780                castle_grounds_dl_cartridges_mesh_tri_0
                0x0000000007064798                castle_grounds_dl_cartridges_mesh_vtx_0
                0x00000000070647d8                castle_grounds_dl_cartridges_mesh_vtx_cull
                0x0000000007064858                castle_grounds_dl_borders_mesh_tri_5
                0x0000000007064898                castle_grounds_dl_borders_mesh_vtx_5
                0x0000000007064958                castle_grounds_dl_borders_mesh_tri_4
                0x0000000007064970                castle_grounds_dl_borders_mesh_vtx_4
                0x00000000070649b0                castle_grounds_dl_borders_mesh_tri_3
                0x00000000070649c8                castle_grounds_dl_borders_mesh_vtx_3
                0x0000000007064a08                castle_grounds_dl_borders_mesh_tri_2
                0x0000000007064a20                castle_grounds_dl_borders_mesh_vtx_2
                0x0000000007064a60                castle_grounds_dl_borders_mesh_tri_1
                0x0000000007064a78                castle_grounds_dl_borders_mesh_vtx_1
                0x0000000007064ab8                castle_grounds_dl_borders_mesh_tri_0
                0x0000000007064bd0                castle_grounds_dl_borders_mesh_vtx_0
                0x0000000007064f10                castle_grounds_dl_book_mesh_tri_0
                0x0000000007064fc8                castle_grounds_dl_book_mesh_vtx_0
                0x00000000070652e8                castle_grounds_dl_book_mesh_vtx_cull
                0x0000000007065368                castle_grounds_dl_bed_mesh_tri_5
                0x0000000007065410                castle_grounds_dl_bed_mesh_vtx_5
                0x00000000070655d0                castle_grounds_dl_bed_mesh_tri_4
                0x00000000070656f8                castle_grounds_dl_bed_mesh_vtx_4
                0x0000000007065a68                castle_grounds_dl_bed_mesh_tri_3
                0x0000000007065a90                castle_grounds_dl_bed_mesh_vtx_3
                0x0000000007065b10                castle_grounds_dl_bed_mesh_tri_2
                0x0000000007065ba0                castle_grounds_dl_bed_mesh_vtx_2
                0x0000000007065d90                castle_grounds_dl_bed_mesh_tri_1
                0x0000000007065db8                castle_grounds_dl_bed_mesh_vtx_1
                0x0000000007065e38                castle_grounds_dl_bed_mesh_tri_0
                0x0000000007065e68                castle_grounds_dl_bed_mesh_vtx_0
                0x0000000007065f68                castle_grounds_dl_bed_mesh_vtx_cull
                0x0000000007065fe8                castle_grounds_dl_actionfigures_mesh_tri_7
                0x0000000007066020                castle_grounds_dl_actionfigures_mesh_vtx_7
                0x00000000070660e0                castle_grounds_dl_actionfigures_mesh_tri_6
                0x00000000070660f8                castle_grounds_dl_actionfigures_mesh_vtx_6
                0x0000000007066138                castle_grounds_dl_actionfigures_mesh_tri_5
                0x0000000007066150                castle_grounds_dl_actionfigures_mesh_vtx_5
                0x0000000007066190                castle_grounds_dl_actionfigures_mesh_tri_4
                0x00000000070661a8                castle_grounds_dl_actionfigures_mesh_vtx_4
                0x00000000070661e8                castle_grounds_dl_actionfigures_mesh_tri_3
                0x0000000007066200                castle_grounds_dl_actionfigures_mesh_vtx_3
                0x0000000007066240                castle_grounds_dl_actionfigures_mesh_tri_2
                0x0000000007066258                castle_grounds_dl_actionfigures_mesh_vtx_2
                0x0000000007066298                castle_grounds_dl_actionfigures_mesh_tri_1
                0x00000000070662b0                castle_grounds_dl_actionfigures_mesh_vtx_1
                0x00000000070662f0                castle_grounds_dl_actionfigures_mesh_tri_0
                0x0000000007066308                castle_grounds_dl_actionfigures_mesh_vtx_0
                0x0000000007066348                castle_grounds_dl_actionfigures_mesh_vtx_cull
                0x00000000070663c8                castle_grounds_dl_AABackground_mesh_layer_0_tri_1
                0x0000000007066438                castle_grounds_dl_AABackground_mesh_layer_0_vtx_1
                0x0000000007066548                castle_grounds_dl_AABackground_mesh_layer_0_tri_0
                0x00000000070665c8                castle_grounds_dl_AABackground_mesh_layer_0_vtx_0
                0x0000000007066728                castle_grounds_dl_ZZZMain_003_mesh_layer_4_tri_1
                0x00000000070667a0                castle_grounds_dl_ZZZMain_003_mesh_layer_4_vtx_1
                0x0000000007066a40                castle_grounds_dl_ZZZMain_003_mesh_layer_4_tri_0
                0x0000000007066b18                castle_grounds_dl_ZZZMain_003_mesh_layer_4_vtx_0
                0x0000000007066ef8                castle_grounds_dl_ZZZMain_001_mesh_layer_1_tri_7
                0x0000000007066f68                castle_grounds_dl_ZZZMain_001_mesh_layer_1_vtx_7
                0x0000000007067108                castle_grounds_dl_ZZZMain_001_mesh_layer_1_tri_6
                0x00000000070675c0                castle_grounds_dl_ZZZMain_001_mesh_layer_1_vtx_6
                0x0000000007068cb0                castle_grounds_dl_ZZZMain_001_mesh_layer_1_tri_5
                0x0000000007068d50                castle_grounds_dl_ZZZMain_001_mesh_layer_1_vtx_5
                0x0000000007068fa0                castle_grounds_dl_ZZZMain_001_mesh_layer_1_tri_4
                0x0000000007068fc0                castle_grounds_dl_ZZZMain_001_mesh_layer_1_vtx_4
                0x0000000007069020                castle_grounds_dl_ZZZMain_001_mesh_layer_1_tri_3
                0x0000000007069170                castle_grounds_dl_ZZZMain_001_mesh_layer_1_vtx_3
                0x0000000007069820                castle_grounds_dl_ZZZMain_001_mesh_layer_1_tri_2
                0x0000000007069870                castle_grounds_dl_ZZZMain_001_mesh_layer_1_vtx_2
                0x0000000007069970                castle_grounds_dl_ZZZMain_001_mesh_layer_1_tri_1
                0x0000000007069a18                castle_grounds_dl_ZZZMain_001_mesh_layer_1_vtx_1
                0x0000000007069c98                castle_grounds_dl_ZZZMain_001_mesh_layer_1_tri_0
                0x0000000007069cf8                castle_grounds_dl_ZZZMain_001_mesh_layer_1_vtx_0
                0x0000000007069e18                castle_grounds_dl_ZZZMain_mesh_tri_1
                0x0000000007069e60                castle_grounds_dl_ZZZMain_mesh_vtx_1
                0x0000000007069f20                castle_grounds_dl_ZZZMain_mesh_tri_0
                0x0000000007069ff0                castle_grounds_dl_ZZZMain_mesh_vtx_0
                0x000000000706a270                castle_grounds_dl_ZZZMain_mesh_layer_1_tri_1
                0x000000000706a2e0                castle_grounds_dl_ZZZMain_mesh_layer_1_vtx_1
                0x000000000706a480                castle_grounds_dl_ZZZMain_mesh_layer_1_tri_0
                0x000000000706a700                castle_grounds_dl_ZZZMain_mesh_layer_1_vtx_0
                0x000000000706b020                castle_grounds_dl_zoo_002_mesh_tri_0
                0x000000000706b0b8                castle_grounds_dl_zoo_002_mesh_vtx_0
                0x000000000706b338                castle_grounds_dl_zoo_002_mesh_vtx_cull
                0x000000000706b3b8                castle_grounds_dl_Zbeanstalk_001_mesh_layer_5_tri_0
                0x000000000706b3e8                castle_grounds_dl_Zbeanstalk_001_mesh_layer_5_vtx_0
                0x000000000706b488                castle_grounds_dl_transparentzzfog_001_mesh_tri_0
                0x000000000706b4d0                castle_grounds_dl_transparentzzfog_001_mesh_vtx_0
                0x000000000706b690                castle_grounds_dl_transparentwater_001_mesh_layer_5_tri_0
                0x000000000706b710                castle_grounds_dl_transparentwater_001_mesh_layer_5_vtx_0
                0x000000000706b870                castle_grounds_dl_transparentwater_001_mesh_layer_5_vtx_cull
                0x000000000706b8f0                castle_grounds_dl_transparentsand_004_mesh_layer_5_tri_0
                0x000000000706b920                castle_grounds_dl_transparentsand_004_mesh_layer_5_vtx_0
                0x000000000706b9c0                castle_grounds_dl_transparentsand_001_mesh_layer_1_tri_5
                0x000000000706ba18                castle_grounds_dl_transparentsand_001_mesh_layer_1_vtx_5
                0x000000000706bbf8                castle_grounds_dl_transparentsand_001_mesh_layer_1_tri_4
                0x000000000706bc10                castle_grounds_dl_transparentsand_001_mesh_layer_1_vtx_4
                0x000000000706bc50                castle_grounds_dl_transparentsand_001_mesh_layer_1_tri_3
                0x000000000706bca0                castle_grounds_dl_transparentsand_001_mesh_layer_1_vtx_3
                0x000000000706bda0                castle_grounds_dl_transparentsand_001_mesh_layer_1_tri_2
                0x000000000706be18                castle_grounds_dl_transparentsand_001_mesh_layer_1_vtx_2
                0x000000000706bfd8                castle_grounds_dl_transparentsand_001_mesh_layer_1_tri_1
                0x000000000706c008                castle_grounds_dl_transparentsand_001_mesh_layer_1_vtx_1
                0x000000000706c0a8                castle_grounds_dl_transparentsand_001_mesh_layer_1_tri_0
                0x000000000706c108                castle_grounds_dl_transparentsand_001_mesh_layer_1_vtx_0
                0x000000000706c218                castle_grounds_dl_transparentsand_001_mesh_layer_1_vtx_cull
                0x000000000706c298                castle_grounds_dl_penishills_028_mesh_layer_1_tri_1
                0x000000000706c310                castle_grounds_dl_penishills_028_mesh_layer_1_vtx_1
                0x000000000706c4f0                castle_grounds_dl_penishills_028_mesh_layer_1_tri_0
                0x000000000706c950                castle_grounds_dl_penishills_028_mesh_layer_1_vtx_0
                0x000000000706d7e0                castle_grounds_dl_penishills_002_mesh_layer_6_tri_0
                0x000000000706d818                castle_grounds_dl_penishills_002_mesh_layer_6_vtx_0
                0x000000000706d8d8                castle_grounds_dl_dockpillars_mesh_tri_0
                0x000000000706dac0                castle_grounds_dl_dockpillars_mesh_vtx_0
                0x000000000706e600                castle_grounds_dl_dockpillars_mesh_vtx_cull
                0x000000000706e680                castle_grounds_dl_dockalpha_mesh_tri_6
                0x000000000706e698                castle_grounds_dl_dockalpha_mesh_vtx_6
                0x000000000706e6d8                castle_grounds_dl_dockalpha_mesh_tri_5
                0x000000000706e6f0                castle_grounds_dl_dockalpha_mesh_vtx_5
                0x000000000706e730                castle_grounds_dl_dockalpha_mesh_tri_4
                0x000000000706e778                castle_grounds_dl_dockalpha_mesh_vtx_4
                0x000000000706e8e8                castle_grounds_dl_dockalpha_mesh_tri_3
                0x000000000706e900                castle_grounds_dl_dockalpha_mesh_vtx_3
                0x000000000706e960                castle_grounds_dl_dockalpha_mesh_tri_2
                0x000000000706e990                castle_grounds_dl_dockalpha_mesh_vtx_2
                0x000000000706ea70                castle_grounds_dl_dockalpha_mesh_tri_1
                0x000000000706ead0                castle_grounds_dl_dockalpha_mesh_vtx_1
                0x000000000706ec90                castle_grounds_dl_dockalpha_mesh_tri_0
                0x000000000706eca8                castle_grounds_dl_dockalpha_mesh_vtx_0
                0x000000000706ece8                castle_grounds_dl_dockalpha_mesh_vtx_cull
                0x000000000706ed68                castle_grounds_dl_CloudOcean_001_mesh_layer_5_tri_0
                0x000000000706ee60                castle_grounds_dl_CloudOcean_001_mesh_layer_5_vtx_0
                0x000000000706f160                castle_grounds_dl_beanstalk_mesh_tri_0
                0x000000000706f210                castle_grounds_dl_beanstalk_mesh_vtx_0
                0x000000000706f3f0                castle_grounds_dl_AANoCullLayer6_mesh_layer_6_tri_2
                0x000000000706f408                castle_grounds_dl_AANoCullLayer6_mesh_layer_6_vtx_2
                0x000000000706f448                castle_grounds_dl_AANoCullLayer6_mesh_layer_6_tri_1
                0x000000000706f460                castle_grounds_dl_AANoCullLayer6_mesh_layer_6_vtx_1
                0x000000000706f4a0                castle_grounds_dl_AANoCullLayer6_mesh_layer_6_tri_0
                0x000000000706f4b8                castle_grounds_dl_AANoCullLayer6_mesh_layer_6_vtx_0
                0x000000000706f4f8                castle_grounds_dl_AANoCullAlphaMesh_mesh_layer_4_tri_0
                0x000000000706f660                castle_grounds_dl_AANoCullAlphaMesh_mesh_layer_4_vtx_0
                0x000000000706f760                castle_grounds_dl_AANoCullAlphaMesh_mesh_tri_2
                0x000000000706f778                castle_grounds_dl_AANoCullAlphaMesh_mesh_vtx_2
                0x000000000706f7b8                castle_grounds_dl_AANoCullAlphaMesh_mesh_tri_1
                0x000000000706f898                castle_grounds_dl_AANoCullAlphaMesh_mesh_vtx_1
                0x000000000706fc28                castle_grounds_dl_AANoCullAlphaMesh_mesh_tri_0
                0x000000000706fd68                castle_grounds_dl_AANoCullAlphaMesh_mesh_vtx_0
                0x0000000007070368                castle_grounds_dl_AABGMain_001_mesh_layer_0_tri_0
                0x0000000007070420                castle_grounds_dl_AABGMain_001_mesh_layer_0_vtx_0
                0x00000000070705f0                castle_grounds_dl_zzzzzsAND_mesh_tri_3
                0x0000000007070620                castle_grounds_dl_zzzzzsAND_mesh_vtx_3
                0x00000000070706a0                castle_grounds_dl_zzzzzsAND_mesh_tri_2
                0x0000000007070848                castle_grounds_dl_zzzzzsAND_mesh_vtx_2
                0x0000000007071048                castle_grounds_dl_zzzzzsAND_mesh_tri_1
                0x0000000007071118                castle_grounds_dl_zzzzzsAND_mesh_vtx_1
                0x0000000007071398                castle_grounds_dl_zzzzzsAND_mesh_tri_0
                0x0000000007071428                castle_grounds_dl_zzzzzsAND_mesh_vtx_0
                0x00000000070716b8                castle_grounds_dl_zzzzzsAND_mesh_layer_1_tri_4
                0x00000000070716f0                castle_grounds_dl_zzzzzsAND_mesh_layer_1_vtx_4
                0x00000000070717b0                castle_grounds_dl_zzzzzsAND_mesh_layer_1_tri_3
                0x0000000007071820                castle_grounds_dl_zzzzzsAND_mesh_layer_1_vtx_3
                0x00000000070719e0                castle_grounds_dl_zzzzzsAND_mesh_layer_1_tri_2
                0x0000000007071a10                castle_grounds_dl_zzzzzsAND_mesh_layer_1_vtx_2
                0x0000000007071ad0                castle_grounds_dl_zzzzzsAND_mesh_layer_1_tri_1
                0x0000000007071b08                castle_grounds_dl_zzzzzsAND_mesh_layer_1_vtx_1
                0x0000000007071be8                castle_grounds_dl_zzzzzsAND_mesh_layer_1_tri_0
                0x0000000007071e58                castle_grounds_dl_zzzzzsAND_mesh_layer_1_vtx_0
                0x0000000007072718                castle_grounds_dl_ZZZsand_002_mesh_tri_5
                0x0000000007072858                castle_grounds_dl_ZZZsand_002_mesh_vtx_5
                0x00000000070730d8                castle_grounds_dl_ZZZsand_002_mesh_tri_4
                0x0000000007073108                castle_grounds_dl_ZZZsand_002_mesh_vtx_4
                0x00000000070731a8                castle_grounds_dl_ZZZsand_002_mesh_tri_3
                0x00000000070731c8                castle_grounds_dl_ZZZsand_002_mesh_vtx_3
                0x0000000007073248                castle_grounds_dl_ZZZsand_002_mesh_tri_2
                0x0000000007073268                castle_grounds_dl_ZZZsand_002_mesh_vtx_2
                0x00000000070732e8                castle_grounds_dl_ZZZsand_002_mesh_tri_1
                0x0000000007073300                castle_grounds_dl_ZZZsand_002_mesh_vtx_1
                0x0000000007073360                castle_grounds_dl_ZZZsand_002_mesh_tri_0
                0x0000000007073488                castle_grounds_dl_ZZZsand_002_mesh_vtx_0
                0x0000000007073968                castle_grounds_dl_ZZSun_mesh_layer_0_tri_0
                0x0000000007073a18                castle_grounds_dl_ZZSun_mesh_layer_0_vtx_0
                0x0000000007073c08                castle_grounds_dl_ZZSun_mesh_layer_5_tri_0
                0x0000000007073c30                castle_grounds_dl_ZZSun_mesh_layer_5_vtx_0
                0x0000000007073ca0                castle_grounds_dl_ZEyes_mesh_layer_6_tri_0
                0x0000000007073ce8                castle_grounds_dl_ZEyes_mesh_layer_6_vtx_0
                0x0000000007073e48                castle_grounds_dl_ZEyes_mesh_tri_1
                0x0000000007073e70                castle_grounds_dl_ZEyes_mesh_vtx_1
                0x0000000007073f20                castle_grounds_dl_ZEyes_mesh_tri_0
                0x0000000007073f68                castle_grounds_dl_ZEyes_mesh_vtx_0
                0x0000000007074178                castle_grounds_dl_YachtHoo_mesh_tri_4
                0x00000000070741b8                castle_grounds_dl_YachtHoo_mesh_vtx_4
                0x0000000007074278                castle_grounds_dl_YachtHoo_mesh_tri_3
                0x0000000007074290                castle_grounds_dl_YachtHoo_mesh_vtx_3
                0x00000000070742d0                castle_grounds_dl_YachtHoo_mesh_tri_2
                0x0000000007074310                castle_grounds_dl_YachtHoo_mesh_vtx_2
                0x00000000070743f0                castle_grounds_dl_YachtHoo_mesh_tri_1
                0x0000000007074470                castle_grounds_dl_YachtHoo_mesh_vtx_1
                0x0000000007074630                castle_grounds_dl_YachtHoo_mesh_tri_0
                0x00000000070746c0                castle_grounds_dl_YachtHoo_mesh_vtx_0
                0x0000000007074860                castle_grounds_dl_YachtHoo_mesh_vtx_cull
                0x00000000070748e0                castle_grounds_dl_WaterAnimationOW_mesh_layer_5_tri_0
                0x0000000007074980                castle_grounds_dl_WaterAnimationOW_mesh_layer_5_vtx_0
                0x0000000007074b30                castle_grounds_dl_WateeTransparent_001_mesh_layer_5_tri_0
                0x0000000007074b78                castle_grounds_dl_WateeTransparent_001_mesh_layer_5_vtx_0
                0x0000000007074c78                castle_grounds_dl_transparentHay_002_mesh_tri_1
                0x0000000007074cc8                castle_grounds_dl_transparentHay_002_mesh_vtx_1
                0x0000000007074d78                castle_grounds_dl_transparentHay_002_mesh_tri_0
                0x0000000007074e38                castle_grounds_dl_transparentHay_002_mesh_vtx_0
                0x0000000007075408                castle_grounds_dl_transparentHay_002_mesh_vtx_cull
                0x0000000007075488                castle_grounds_dl_rainbow_003_mesh_tri_0
                0x0000000007075508                castle_grounds_dl_rainbow_003_mesh_vtx_0
                0x0000000007075708                castle_grounds_dl_rainbow_003_mesh_vtx_cull
                0x0000000007075788                castle_grounds_dl_CloudOcean_mesh_layer_5_tri_0
                0x0000000007075880                castle_grounds_dl_CloudOcean_mesh_layer_5_vtx_0
                0x0000000007075b80                castle_grounds_dl_APlane_mesh_tri_2
                0x0000000007075bd8                castle_grounds_dl_APlane_mesh_vtx_2
                0x0000000007075e08                castle_grounds_dl_APlane_mesh_tri_1
                0x0000000007075e60                castle_grounds_dl_APlane_mesh_vtx_1
                0x0000000007076090                castle_grounds_dl_APlane_mesh_tri_0
                0x0000000007076108                castle_grounds_dl_APlane_mesh_vtx_0
                0x0000000007076208                castle_grounds_dl_APlane_mesh_vtx_cull
                0x0000000007076288                castle_grounds_dl_APenisHills_mesh_tri_0
                0x0000000007076608                castle_grounds_dl_APenisHills_mesh_vtx_0
                0x0000000007077298                castle_grounds_dl_ScreendoorHLAMPD_ci4_pal_rgba16
                0x00000000070772b8                castle_grounds_dl_ScreendoorHLAMPD_ci4_pal_rgba16_aligner
                0x00000000070772c0                castle_grounds_dl_ScreendoorHLAMPD_ci4
                0x0000000007077ac0                castle_grounds_dl_ScreendoorHLAMPD_ci4_aligner
                0x0000000007077ac8                castle_grounds_dl_ScreendoorHD__1__ci4_pal_rgba16
                0x0000000007077ae8                castle_grounds_dl_ScreendoorHD__1__ci4_pal_rgba16_aligner
                0x0000000007077af0                castle_grounds_dl_ScreendoorHD__1__ci4
                0x00000000070782f0                castle_grounds_dl_ScreendoorHD__1__ci4_aligner
                0x00000000070782f8                castle_grounds_dl__3adc2000_fmt0431_slice0_mip00_512x512_tm04_i4
                0x00000000070792f8                castle_grounds_dl__3adc2000_fmt0431_slice0_mip00_512x512_tm04_i4_aligner
                0x0000000007079300                castle_grounds_dl__37706000_fmt0431_slice0_mip00_512x512_tm04_ci4_pal_rgba16
                0x0000000007079320                castle_grounds_dl__37706000_fmt0431_slice0_mip00_512x512_tm04_ci4_pal_rgba16_aligner
                0x0000000007079328                castle_grounds_dl__37706000_fmt0431_slice0_mip00_512x512_tm04_ci4
                0x0000000007079b28                castle_grounds_dl__37706000_fmt0431_slice0_mip00_512x512_tm04_ci4_aligner
                0x0000000007079b30                castle_grounds_dl__5D7C7EF6B714D7E2BBEFE0FB88C48068_ci8_pal_rgba16
                0x0000000007079c20                castle_grounds_dl__5D7C7EF6B714D7E2BBEFE0FB88C48068_ci8_pal_rgba16_aligner
                0x0000000007079c28                castle_grounds_dl__5D7C7EF6B714D7E2BBEFE0FB88C48068_ci8
                0x000000000707a028                castle_grounds_dl__5D7C7EF6B714D7E2BBEFE0FB88C48068_ci8_aligner
                0x000000000707a030                castle_grounds_dl_piston_bottom_ci8_pal_rgba16
                0x000000000707a060                castle_grounds_dl_piston_bottom_ci8_pal_rgba16_aligner
                0x000000000707a068                castle_grounds_dl_piston_bottom_ci8
                0x000000000707a468                castle_grounds_dl_piston_bottom_ci8_aligner
                0x000000000707a470                castle_grounds_dl_GALE01_742ec4ab_14_i4
                0x000000000707b470                castle_grounds_dl_GALE01_742ec4ab_14_i4_aligner
                0x000000000707b478                castle_grounds_dl_rrow_asset_1599_ci4_pal_rgba16
                0x000000000707b498                castle_grounds_dl_rrow_asset_1599_ci4_pal_rgba16_aligner
                0x000000000707b4a0                castle_grounds_dl_rrow_asset_1599_ci4
                0x000000000707b8a0                castle_grounds_dl_rrow_asset_1599_ci4_aligner
                0x000000000707b8a8                castle_grounds_dl_kibako_ci8_pal_rgba16
                0x000000000707b8f0                castle_grounds_dl_kibako_ci8_pal_rgba16_aligner
                0x000000000707b8f8                castle_grounds_dl_kibako_ci8
                0x000000000707bcf8                castle_grounds_dl_kibako_ci8_aligner
                0x000000000707bd00                castle_grounds_dl_woodI8_i4
                0x000000000707c500                castle_grounds_dl_woodI8_i4_aligner
                0x000000000707c508                castle_grounds_dl_K_s_kankyaku00_i4
                0x000000000707cd08                castle_grounds_dl_K_s_kankyaku00_i4_aligner
                0x000000000707cd10                castle_grounds_dl_Tatami00_ci4_pal_rgba16
                0x000000000707cd30                castle_grounds_dl_Tatami00_ci4_pal_rgba16_aligner
                0x000000000707cd38                castle_grounds_dl_Tatami00_ci4
                0x000000000707d538                castle_grounds_dl_Tatami00_ci4_aligner
                0x000000000707d540                castle_grounds_dl_KKIIDDZZ_DAT_1790__p00_i4
                0x000000000707dd40                castle_grounds_dl_KKIIDDZZ_DAT_1790__p00_i4_aligner
                0x000000000707dd48                castle_grounds_dl_F301_6_FishCover07_N_i4
                0x000000000707e548                castle_grounds_dl_F301_6_FishCover07_N_i4_aligner
                0x000000000707e550                castle_grounds_dl_CrashBox_0mirrormirror_ci4_pal_rgba16
                0x000000000707e570                castle_grounds_dl_CrashBox_0mirrormirror_ci4_pal_rgba16_aligner
                0x000000000707e578                castle_grounds_dl_CrashBox_0mirrormirror_ci4
                0x000000000707ed78                castle_grounds_dl_CrashBox_0mirrormirror_ci4_aligner
                0x000000000707ed80                castle_grounds_dl__0000EFA0_32x64_rgba16_ci8_pal_rgba16
                0x000000000707ee38                castle_grounds_dl__0000EFA0_32x64_rgba16_ci8_pal_rgba16_aligner
                0x000000000707ee40                castle_grounds_dl__0000EFA0_32x64_rgba16_ci8
                0x000000000707f640                castle_grounds_dl__0000EFA0_32x64_rgba16_ci8_aligner
                0x000000000707f648                castle_grounds_dl__0x5D80_ci4_pal_rgba16
                0x000000000707f668                castle_grounds_dl__0x5D80_ci4_pal_rgba16_aligner
                0x000000000707f670                castle_grounds_dl__0x5D80_ci4
                0x000000000707fe70                castle_grounds_dl__0x5D80_ci4_aligner
                0x000000000707fe78                castle_grounds_dl_halfwindoiw_ci8_pal_rgba16
                0x000000000707fee8                castle_grounds_dl_halfwindoiw_ci8_pal_rgba16_aligner
                0x000000000707fef0                castle_grounds_dl_halfwindoiw_ci8
                0x00000000070806f0                castle_grounds_dl_halfwindoiw_ci8_aligner
                0x00000000070806f8                castle_grounds_dl_FT_0x420A0_32x32_CI8_ci8_pal_rgba16
                0x0000000007080738                castle_grounds_dl_FT_0x420A0_32x32_CI8_ci8_pal_rgba16_aligner
                0x0000000007080740                castle_grounds_dl_FT_0x420A0_32x32_CI8_ci8
                0x0000000007080b40                castle_grounds_dl_FT_0x420A0_32x32_CI8_ci8_aligner
                0x0000000007080b48                castle_grounds_dl__512JHQDGPML_rgba16
                0x0000000007081b48                castle_grounds_dl__512JHQDGPML_rgba16_aligner
                0x0000000007081b50                castle_grounds_dl_Sanyo_HG_E180_Spine_ci8_pal_rgba16
                0x0000000007081c18                castle_grounds_dl_Sanyo_HG_E180_Spine_ci8_pal_rgba16_aligner
                0x0000000007081c20                castle_grounds_dl_Sanyo_HG_E180_Spine_ci8
                0x0000000007082020                castle_grounds_dl_Sanyo_HG_E180_Spine_ci8_aligner
                0x0000000007082028                castle_grounds_dl_GMPE01_4684b994_9_ci8_pal_rgba16
                0x0000000007082050                castle_grounds_dl_GMPE01_4684b994_9_ci8_pal_rgba16_aligner
                0x0000000007082058                castle_grounds_dl_GMPE01_4684b994_9_ci8
                0x0000000007082858                castle_grounds_dl_GMPE01_4684b994_9_ci8_aligner
                0x0000000007082860                castle_grounds_dl__0000EC00_128x32_i8_i8
                0x0000000007083860                castle_grounds_dl__0000EC00_128x32_i8_i8_aligner
                0x0000000007083868                castle_grounds_dl__3718896_ci4_pal_rgba16
                0x0000000007083888                castle_grounds_dl__3718896_ci4_pal_rgba16_aligner
                0x0000000007083890                castle_grounds_dl__3718896_ci4
                0x0000000007084090                castle_grounds_dl__3718896_ci4_aligner
                0x0000000007084098                castle_grounds_dl__048E6CCD64E749DC248F9B4EC0AEEFB4_ci4_pal_rgba16
                0x00000000070840b8                castle_grounds_dl__048E6CCD64E749DC248F9B4EC0AEEFB4_ci4_pal_rgba16_aligner
                0x00000000070840c0                castle_grounds_dl__048E6CCD64E749DC248F9B4EC0AEEFB4_ci4
                0x00000000070848c0                castle_grounds_dl__048E6CCD64E749DC248F9B4EC0AEEFB4_ci4_aligner
                0x00000000070848c8                castle_grounds_dl_Texture0567_RGB_rgba16
                0x00000000070850c8                castle_grounds_dl_Texture0567_RGB_rgba16_aligner
                0x00000000070850d0                castle_grounds_dl_Texture0566_RGB_rgba16
                0x00000000070858d0                castle_grounds_dl_Texture0566_RGB_rgba16_aligner
                0x00000000070858d8                castle_grounds_dl_MARIOKART64_497E0E1E_0_2_all_ci8_pal_rgba16
                0x0000000007085968                castle_grounds_dl_MARIOKART64_497E0E1E_0_2_all_ci8_pal_rgba16_aligner
                0x0000000007085970                castle_grounds_dl_MARIOKART64_497E0E1E_0_2_all_ci8
                0x0000000007085d70                castle_grounds_dl_MARIOKART64_497E0E1E_0_2_all_ci8_aligner
                0x0000000007085d78                castle_grounds_dl_M_BPwoodsgreyscale_ia4
                0x0000000007086d78                castle_grounds_dl_M_BPwoodsgreyscale_ia4_aligner
                0x0000000007086d80                castle_grounds_dl_cs_ironb01_alb_ci4_pal_rgba16
                0x0000000007086d90                castle_grounds_dl_cs_ironb01_alb_ci4_pal_rgba16_aligner
                0x0000000007086d98                castle_grounds_dl_cs_ironb01_alb_ci4
                0x0000000007086f98                castle_grounds_dl_cs_ironb01_alb_ci4_aligner
                0x0000000007086fa0                castle_grounds_dl_RMGP01_f8911f56_14_mip2_ci4_pal_rgba16
                0x0000000007086fc0                castle_grounds_dl_RMGP01_f8911f56_14_mip2_ci4_pal_rgba16_aligner
                0x0000000007086fc8                castle_grounds_dl_RMGP01_f8911f56_14_mip2_ci4
                0x00000000070871c8                castle_grounds_dl_RMGP01_f8911f56_14_mip2_ci4_aligner
                0x00000000070871d0                castle_grounds_dl_couches_ci8_pal_rgba16
                0x0000000007087228                castle_grounds_dl_couches_ci8_pal_rgba16_aligner
                0x0000000007087230                castle_grounds_dl_couches_ci8
                0x0000000007087a30                castle_grounds_dl_couches_ci8_aligner
                0x0000000007087a38                castle_grounds_dl_rk_mar_gut_ia4
                0x0000000007088a38                castle_grounds_dl_rk_mar_gut_ia4_aligner
                0x0000000007088a40                castle_grounds_dl_Handle_ia4
                0x0000000007089a40                castle_grounds_dl_Handle_ia4_aligner
                0x0000000007089a48                castle_grounds_dl_L_is_not_real_i8
                0x000000000708aa48                castle_grounds_dl_L_is_not_real_i8_aligner
                0x000000000708aa50                castle_grounds_dl_L_is_real_i8
                0x000000000708ba50                castle_grounds_dl_L_is_real_i8_aligner
                0x000000000708ba58                castle_grounds_dl_Gold_ci8_pal_rgba16
                0x000000000708bbc0                castle_grounds_dl_Gold_ci8_pal_rgba16_aligner
                0x000000000708bbc8                castle_grounds_dl_Gold_ci8
                0x000000000708bfc8                castle_grounds_dl_Gold_ci8_aligner
                0x000000000708bfd0                castle_grounds_dl_Mario_inKart_ci4_pal_rgba16
                0x000000000708bff0                castle_grounds_dl_Mario_inKart_ci4_pal_rgba16_aligner
                0x000000000708bff8                castle_grounds_dl_Mario_inKart_ci4
                0x000000000708c7f8                castle_grounds_dl_Mario_inKart_ci4_aligner
                0x000000000708c800                castle_grounds_dl__6D92D9A3_c_ci8_pal_rgba16
                0x000000000708c878                castle_grounds_dl__6D92D9A3_c_ci8_pal_rgba16_aligner
                0x000000000708c880                castle_grounds_dl__6D92D9A3_c_ci8
                0x000000000708d080                castle_grounds_dl__6D92D9A3_c_ci8_aligner
                0x000000000708d088                castle_grounds_dl_N64Frame_00019_ci4_pal_rgba16
                0x000000000708d0a8                castle_grounds_dl_N64Frame_00019_ci4_pal_rgba16_aligner
                0x000000000708d0b0                castle_grounds_dl_N64Frame_00019_ci4
                0x000000000708d8b0                castle_grounds_dl_N64Frame_00019_ci4_aligner
                0x000000000708d8b8                castle_grounds_dl_ci43_rgba16
                0x000000000708e8b8                castle_grounds_dl_ci43_rgba16_aligner
                0x000000000708e8c0                castle_grounds_dl_ci42_ci4_pal_rgba16
                0x000000000708e8e0                castle_grounds_dl_ci42_ci4_pal_rgba16_aligner
                0x000000000708e8e8                castle_grounds_dl_ci42_ci4
                0x000000000708f0e8                castle_grounds_dl_ci42_ci4_aligner
                0x000000000708f0f0                castle_grounds_dl_CI41_ci4_pal_rgba16
                0x000000000708f110                castle_grounds_dl_CI41_ci4_pal_rgba16_aligner
                0x000000000708f118                castle_grounds_dl_CI41_ci4
                0x000000000708f918                castle_grounds_dl_CI41_ci4_aligner
                0x000000000708f920                castle_grounds_dl_zein7_rgba16
                0x0000000007090920                castle_grounds_dl_zein7_rgba16_aligner
                0x0000000007090928                castle_grounds_dl_zein6_rgba16
                0x0000000007091928                castle_grounds_dl_zein6_rgba16_aligner
                0x0000000007091930                castle_grounds_dl_zein5_rgba16
                0x0000000007092930                castle_grounds_dl_zein5_rgba16_aligner
                0x0000000007092938                castle_grounds_dl_zein3_rgba16
                0x0000000007093938                castle_grounds_dl_zein3_rgba16_aligner
                0x0000000007093940                castle_grounds_dl_zein2_rgba16
                0x0000000007094940                castle_grounds_dl_zein2_rgba16_aligner
                0x0000000007094948                castle_grounds_dl_zein1_rgba16
                0x0000000007095948                castle_grounds_dl_zein1_rgba16_aligner
                0x0000000007095950                castle_grounds_dl_zein4_rgba16
                0x0000000007096950                castle_grounds_dl_zein4_rgba16_aligner
                0x0000000007096958                castle_grounds_dl__64games5_rgba16
                0x0000000007097958                castle_grounds_dl__64games5_rgba16_aligner
                0x0000000007097960                castle_grounds_dl__64games7_rgba16
                0x0000000007098960                castle_grounds_dl__64games7_rgba16_aligner
                0x0000000007098968                castle_grounds_dl__64games3_rgba16
                0x0000000007099968                castle_grounds_dl__64games3_rgba16_aligner
                0x0000000007099970                castle_grounds_dl__64games2_rgba16
                0x000000000709a970                castle_grounds_dl__64games2_rgba16_aligner
                0x000000000709a978                castle_grounds_dl__64games1_rgba16
                0x000000000709b978                castle_grounds_dl__64games1_rgba16_aligner
                0x000000000709b980                castle_grounds_dl__64games4_rgba16
                0x000000000709c980                castle_grounds_dl__64games4_rgba16_aligner
                0x000000000709c988                castle_grounds_dl_n64games3_rgba16
                0x000000000709d988                castle_grounds_dl_n64games3_rgba16_aligner
                0x000000000709d990                castle_grounds_dl_n64games2_rgba16
                0x000000000709e990                castle_grounds_dl_n64games2_rgba16_aligner
                0x000000000709e998                castle_grounds_dl_n64games1_rgba16
                0x000000000709f998                castle_grounds_dl_n64games1_rgba16_aligner
                0x000000000709f9a0                castle_grounds_dl_n64games4_rgba16
                0x00000000070a09a0                castle_grounds_dl_n64games4_rgba16_aligner
                0x00000000070a09a8                castle_grounds_dl_GPAE01_e919821d_6_i4
                0x00000000070a0da8                castle_grounds_dl_GPAE01_e919821d_6_i4_aligner
                0x00000000070a0db0                castle_grounds_dl_CURSED_rgba16
                0x00000000070a1db0                castle_grounds_dl_CURSED_rgba16_aligner
                0x00000000070a1db8                castle_grounds_dl_K_moku031_ci8_pal_rgba16
                0x00000000070a1e40                castle_grounds_dl_K_moku031_ci8_pal_rgba16_aligner
                0x00000000070a1e48                castle_grounds_dl_K_moku031_ci8
                0x00000000070a2648                castle_grounds_dl_K_moku031_ci8_aligner
                0x00000000070a2650                castle_grounds_dl_brock_02__2__ci8_pal_rgba16
                0x00000000070a26d8                castle_grounds_dl_brock_02__2__ci8_pal_rgba16_aligner
                0x00000000070a26e0                castle_grounds_dl_brock_02__2__ci8
                0x00000000070a2ae0                castle_grounds_dl_brock_02__2__ci8_aligner
                0x00000000070a2ae8                castle_grounds_dl_dst_maruta_ci4_pal_rgba16
                0x00000000070a2b08                castle_grounds_dl_dst_maruta_ci4_pal_rgba16_aligner
                0x00000000070a2b10                castle_grounds_dl_dst_maruta_ci4
                0x00000000070a3310                castle_grounds_dl_dst_maruta_ci4_aligner
                0x00000000070a3318                castle_grounds_dl__0x29560_ci8_pal_rgba16
                0x00000000070a3408                castle_grounds_dl__0x29560_ci8_pal_rgba16_aligner
                0x00000000070a3410                castle_grounds_dl__0x29560_ci8
                0x00000000070a3810                castle_grounds_dl__0x29560_ci8_aligner
                0x00000000070a3818                castle_grounds_dl_SUPER_MARIO_64_FE55B4F9_3_2_all_ia8
                0x00000000070a4818                castle_grounds_dl_SUPER_MARIO_64_FE55B4F9_3_2_all_ia8_aligner
                0x00000000070a4820                castle_grounds_dl__513IY2OJQWL__AC_SL1000__rgba16
                0x00000000070a5820                castle_grounds_dl__513IY2OJQWL__AC_SL1000__rgba16_aligner
                0x00000000070a5828                castle_grounds_dl_hat_nintendo64_color_ci4_pal_rgba16
                0x00000000070a5848                castle_grounds_dl_hat_nintendo64_color_ci4_pal_rgba16_aligner
                0x00000000070a5850                castle_grounds_dl_hat_nintendo64_color_ci4
                0x00000000070a6050                castle_grounds_dl_hat_nintendo64_color_ci4_aligner
                0x00000000070a6058                castle_grounds_dl__1200px_New_Super_Mario_Bros__U_Deluxe_Fire_Flower_rgba16
                0x00000000070a6858                castle_grounds_dl__1200px_New_Super_Mario_Bros__U_Deluxe_Fire_Flower_rgba16_aligner
                0x00000000070a6860                castle_grounds_dl_CloudFlower_ci4_pal_rgba16
                0x00000000070a6880                castle_grounds_dl_CloudFlower_ci4_pal_rgba16_aligner
                0x00000000070a6888                castle_grounds_dl_CloudFlower_ci4
                0x00000000070a7088                castle_grounds_dl_CloudFlower_ci4_aligner
                0x00000000070a7090                castle_grounds_dl__25730145750_dfaaeb89c7_b_ci4_pal_rgba16
                0x00000000070a70b0                castle_grounds_dl__25730145750_dfaaeb89c7_b_ci4_pal_rgba16_aligner
                0x00000000070a70b8                castle_grounds_dl__25730145750_dfaaeb89c7_b_ci4
                0x00000000070a78b8                castle_grounds_dl__25730145750_dfaaeb89c7_b_ci4_aligner
                0x00000000070a78c0                castle_grounds_dl__Blockci4_ci4_pal_rgba16
                0x00000000070a78e0                castle_grounds_dl__Blockci4_ci4_pal_rgba16_aligner
                0x00000000070a78e8                castle_grounds_dl__Blockci4_ci4
                0x00000000070a80e8                castle_grounds_dl__Blockci4_ci4_aligner
                0x00000000070a80f0                castle_grounds_dl__0x4720_ci4_pal_rgba16
                0x00000000070a8110                castle_grounds_dl__0x4720_ci4_pal_rgba16_aligner
                0x00000000070a8118                castle_grounds_dl__0x4720_ci4
                0x00000000070a8918                castle_grounds_dl__0x4720_ci4_aligner
                0x00000000070a8920                castle_grounds_dl_eyes_ci8_pal_rgba16
                0x00000000070a8a08                castle_grounds_dl_eyes_ci8_pal_rgba16_aligner
                0x00000000070a8a10                castle_grounds_dl_eyes_ci8
                0x00000000070a8e10                castle_grounds_dl_eyes_ci8_aligner
                0x00000000070a8e18                castle_grounds_dl_yoshibelly_ci8_pal_rgba16
                0x00000000070a8f08                castle_grounds_dl_yoshibelly_ci8_pal_rgba16_aligner
                0x00000000070a8f10                castle_grounds_dl_yoshibelly_ci8
                0x00000000070a9710                castle_grounds_dl_yoshibelly_ci8_aligner
                0x00000000070a9718                castle_grounds_dl_spikes_ci8_pal_rgba16
                0x00000000070a9790                castle_grounds_dl_spikes_ci8_pal_rgba16_aligner
                0x00000000070a9798                castle_grounds_dl_spikes_ci8
                0x00000000070a9b98                castle_grounds_dl_spikes_ci8_aligner
                0x00000000070a9ba0                castle_grounds_dl_shoes_ci8_pal_rgba16
                0x00000000070a9c68                castle_grounds_dl_shoes_ci8_pal_rgba16_aligner
                0x00000000070a9c70                castle_grounds_dl_shoes_ci8
                0x00000000070aa470                castle_grounds_dl_shoes_ci8_aligner
                0x00000000070aa478                castle_grounds_dl_nose_ci4_pal_rgba16
                0x00000000070aa498                castle_grounds_dl_nose_ci4_pal_rgba16_aligner
                0x00000000070aa4a0                castle_grounds_dl_nose_ci4
                0x00000000070aaca0                castle_grounds_dl_nose_ci4_aligner
                0x00000000070aaca8                castle_grounds_dl_wool_ci8_pal_rgba16
                0x00000000070aad48                castle_grounds_dl_wool_ci8_pal_rgba16_aligner
                0x00000000070aad50                castle_grounds_dl_wool_ci8
                0x00000000070ab550                castle_grounds_dl_wool_ci8_aligner
                0x00000000070ab558                castle_grounds_dl_YOSHISPOT_ci4_pal_rgba16
                0x00000000070ab578                castle_grounds_dl_YOSHISPOT_ci4_pal_rgba16_aligner
                0x00000000070ab580                castle_grounds_dl_YOSHISPOT_ci4
                0x00000000070abd80                castle_grounds_dl_YOSHISPOT_ci4_aligner
                0x00000000070abd88                castle_grounds_dl_M_ia8
                0x00000000070acd88                castle_grounds_dl_M_ia8_aligner
                0x00000000070acd90                castle_grounds_dl_L_ia8
                0x00000000070add90                castle_grounds_dl_L_ia8_aligner
                0x00000000070add98                castle_grounds_dl_Anotaci_n_2020_12_29_230122_23_2__ci4_pal_rgba16
                0x00000000070addb8                castle_grounds_dl_Anotaci_n_2020_12_29_230122_23_2__ci4_pal_rgba16_aligner
                0x00000000070addc0                castle_grounds_dl_Anotaci_n_2020_12_29_230122_23_2__ci4
                0x00000000070ae5c0                castle_grounds_dl_Anotaci_n_2020_12_29_230122_23_2__ci4_aligner
                0x00000000070ae5c8                castle_grounds_dl_th_saku_ci8_pal_rgba16
                0x00000000070ae610                castle_grounds_dl_th_saku_ci8_pal_rgba16_aligner
                0x00000000070ae618                castle_grounds_dl_th_saku_ci8
                0x00000000070aea18                castle_grounds_dl_th_saku_ci8_aligner
                0x00000000070aea20                castle_grounds_dl_CoinStar_ci8_pal_rgba16
                0x00000000070aebd0                castle_grounds_dl_CoinStar_ci8_pal_rgba16_aligner
                0x00000000070aebd8                castle_grounds_dl_CoinStar_ci8
                0x00000000070aefd8                castle_grounds_dl_CoinStar_ci8_aligner
                0x00000000070aefe0                castle_grounds_dl_mushroom_rgba16
                0x00000000070af7e0                castle_grounds_dl_mushroom_rgba16_aligner
                0x00000000070af7e8                castle_grounds_dl__963426_nintendosealI8_ia8
                0x00000000070b07e8                castle_grounds_dl__963426_nintendosealI8_ia8_aligner
                0x00000000070b07f0                castle_grounds_dl_PiranhaHead_G_ci8_pal_rgba16
                0x00000000070b08c0                castle_grounds_dl_PiranhaHead_G_ci8_pal_rgba16_aligner
                0x00000000070b08c8                castle_grounds_dl_PiranhaHead_G_ci8
                0x00000000070b10c8                castle_grounds_dl_PiranhaHead_G_ci8_aligner
                0x00000000070b10d0                castle_grounds_dl_imgbin_theater_drapes_and_stage_curtains_red_window_treatment_curtains_Zzw7kR5v68URVyPB1TBWeazSq_ci8_pal_rgba16
                0x00000000070b11d8                castle_grounds_dl_imgbin_theater_drapes_and_stage_curtains_red_window_treatment_curtains_Zzw7kR5v68URVyPB1TBWeazSq_ci8_pal_rgba16_aligner
                0x00000000070b11e0                castle_grounds_dl_imgbin_theater_drapes_and_stage_curtains_red_window_treatment_curtains_Zzw7kR5v68URVyPB1TBWeazSq_ci8
                0x00000000070b19e0                castle_grounds_dl_imgbin_theater_drapes_and_stage_curtains_red_window_treatment_curtains_Zzw7kR5v68URVyPB1TBWeazSq_ci8_aligner
                0x00000000070b19e8                castle_grounds_dl_PiranhaBranch_G_ci8_pal_rgba16
                0x00000000070b1ae0                castle_grounds_dl_PiranhaBranch_G_ci8_pal_rgba16_aligner
                0x00000000070b1ae8                castle_grounds_dl_PiranhaBranch_G_ci8
                0x00000000070b22e8                castle_grounds_dl_PiranhaBranch_G_ci8_aligner
                0x00000000070b22f0                castle_grounds_dl_greenMetalCylinder_ci8_pal_rgba16
                0x00000000070b2330                castle_grounds_dl_greenMetalCylinder_ci8_pal_rgba16_aligner
                0x00000000070b2338                castle_grounds_dl_greenMetalCylinder_ci8
                0x00000000070b2738                castle_grounds_dl_greenMetalCylinder_ci8_aligner
                0x00000000070b2740                castle_grounds_dl_wts3_rgba16
                0x00000000070b3740                castle_grounds_dl_wts3_rgba16_aligner
                0x00000000070b3748                castle_grounds_dl_wts2_rgba16
                0x00000000070b4748                castle_grounds_dl_wts2_rgba16_aligner
                0x00000000070b4750                castle_grounds_dl_ssb4_rgba16
                0x00000000070b5750                castle_grounds_dl_ssb4_rgba16_aligner
                0x00000000070b5758                castle_grounds_dl_ssb2_rgba16
                0x00000000070b6758                castle_grounds_dl_ssb2_rgba16_aligner
                0x00000000070b6760                castle_grounds_dl_oot2_rgba16
                0x00000000070b7760                castle_grounds_dl_oot2_rgba16_aligner
                0x00000000070b7768                castle_grounds_dl_s_l300_rgba16
                0x00000000070b8768                castle_grounds_dl_s_l300_rgba16_aligner
                0x00000000070b8770                castle_grounds_dl_mp2_rgba16
                0x00000000070b9770                castle_grounds_dl_mp2_rgba16_aligner
                0x00000000070b9778                castle_grounds_dl_mp1_rgba16
                0x00000000070ba778                castle_grounds_dl_mp1_rgba16_aligner
                0x00000000070ba780                castle_grounds_dl__449794_super_mario_64_nintendo_64_spine_sides_rgba16
                0x00000000070bb780                castle_grounds_dl__449794_super_mario_64_nintendo_64_spine_sides_rgba16_aligner
                0x00000000070bb788                castle_grounds_dl__336723_super_mario_64_nintendo_64_spine_sides_rgba16
                0x00000000070bc788                castle_grounds_dl__336723_super_mario_64_nintendo_64_spine_sides_rgba16_aligner
                0x00000000070bc790                castle_grounds_dl_GC_0x53700_32x64_CI8_ci8_pal_rgba16
                0x00000000070bc7d0                castle_grounds_dl_GC_0x53700_32x64_CI8_ci8_pal_rgba16_aligner
                0x00000000070bc7d8                castle_grounds_dl_GC_0x53700_32x64_CI8_ci8
                0x00000000070bcfd8                castle_grounds_dl_GC_0x53700_32x64_CI8_ci8_aligner
                0x00000000070bcfe0                castle_grounds_dl__17612_poster_unframed_mockup_ci4_pal_rgba16
                0x00000000070bd000                castle_grounds_dl__17612_poster_unframed_mockup_ci4_pal_rgba16_aligner
                0x00000000070bd008                castle_grounds_dl__17612_poster_unframed_mockup_ci4
                0x00000000070bd808                castle_grounds_dl__17612_poster_unframed_mockup_ci4_aligner
                0x00000000070bd810                castle_grounds_dl_wheredoyouplayyours2_ci4_pal_rgba16
                0x00000000070bd830                castle_grounds_dl_wheredoyouplayyours2_ci4_pal_rgba16_aligner
                0x00000000070bd838                castle_grounds_dl_wheredoyouplayyours2_ci4
                0x00000000070be038                castle_grounds_dl_wheredoyouplayyours2_ci4_aligner
                0x00000000070be040                castle_grounds_dl__887ded7c8497d3aa749877c00539ae08__minimalist_poster_minimalist_design_ci4_pal_rgba16
                0x00000000070be060                castle_grounds_dl__887ded7c8497d3aa749877c00539ae08__minimalist_poster_minimalist_design_ci4_pal_rgba16_aligner
                0x00000000070be068                castle_grounds_dl__887ded7c8497d3aa749877c00539ae08__minimalist_poster_minimalist_design_ci4
                0x00000000070be868                castle_grounds_dl__887ded7c8497d3aa749877c00539ae08__minimalist_poster_minimalist_design_ci4_aligner
                0x00000000070be870                castle_grounds_dl__0374ef731bf55c53847dfbf592ab497b_ci4_pal_rgba16
                0x00000000070be890                castle_grounds_dl__0374ef731bf55c53847dfbf592ab497b_ci4_pal_rgba16_aligner
                0x00000000070be898                castle_grounds_dl__0374ef731bf55c53847dfbf592ab497b_ci4
                0x00000000070bf098                castle_grounds_dl__0374ef731bf55c53847dfbf592ab497b_ci4_aligner
                0x00000000070bf0a0                castle_grounds_dl_dock_bmp_ci8_pal_rgba16
                0x00000000070bf0c8                castle_grounds_dl_dock_bmp_ci8_pal_rgba16_aligner
                0x00000000070bf0d0                castle_grounds_dl_dock_bmp_ci8
                0x00000000070bf8d0                castle_grounds_dl_dock_bmp_ci8_aligner
                0x00000000070bf8d8                castle_grounds_dl_book_i8
                0x00000000070c08d8                castle_grounds_dl_book_i8_aligner
                0x00000000070c08e0                castle_grounds_dl_Glover_0741944B_0_0_E3816F34_ciByRGBA_ci4_pal_rgba16
                0x00000000070c08f0                castle_grounds_dl_Glover_0741944B_0_0_E3816F34_ciByRGBA_ci4_pal_rgba16_aligner
                0x00000000070c08f8                castle_grounds_dl_Glover_0741944B_0_0_E3816F34_ciByRGBA_ci4
                0x00000000070c0af8                castle_grounds_dl_Glover_0741944B_0_0_E3816F34_ciByRGBA_ci4_aligner
                0x00000000070c0b00                castle_grounds_dl__3723656_ci4_pal_rgba16
                0x00000000070c0b20                castle_grounds_dl__3723656_ci4_pal_rgba16_aligner
                0x00000000070c0b28                castle_grounds_dl__3723656_ci4
                0x00000000070c1328                castle_grounds_dl__3723656_ci4_aligner
                0x00000000070c1330                castle_grounds_dl_carpet2_ci4_pal_rgba16
                0x00000000070c1340                castle_grounds_dl_carpet2_ci4_pal_rgba16_aligner
                0x00000000070c1348                castle_grounds_dl_carpet2_ci4
                0x00000000070c1548                castle_grounds_dl_carpet2_ci4_aligner
                0x00000000070c1550                castle_grounds_dl_ods_bridge_ci8_pal_rgba16
                0x00000000070c1630                castle_grounds_dl_ods_bridge_ci8_pal_rgba16_aligner
                0x00000000070c1638                castle_grounds_dl_ods_bridge_ci8
                0x00000000070c1e38                castle_grounds_dl_ods_bridge_ci8_aligner
                0x00000000070c1e40                castle_grounds_dl_greencarpet_ci4_pal_rgba16
                0x00000000070c1e60                castle_grounds_dl_greencarpet_ci4_pal_rgba16_aligner
                0x00000000070c1e68                castle_grounds_dl_greencarpet_ci4
                0x00000000070c2668                castle_grounds_dl_greencarpet_ci4_aligner
                0x00000000070c2670                castle_grounds_dl_ng_wa2ll02_ci8_pal_rgba16
                0x00000000070c2788                castle_grounds_dl_ng_wa2ll02_ci8_pal_rgba16_aligner
                0x00000000070c2790                castle_grounds_dl_ng_wa2ll02_ci8
                0x00000000070c2f90                castle_grounds_dl_ng_wa2ll02_ci8_aligner
                0x00000000070c2f98                castle_grounds_dl_ultra_pro_premium_pro_binder_pikachu_9_pocket_i4
                0x00000000070c3f98                castle_grounds_dl_ultra_pro_premium_pro_binder_pikachu_9_pocket_i4_aligner
                0x00000000070c3fa0                castle_grounds_dl_y1s202rqu3f01_ci4_pal_rgba16
                0x00000000070c3fc0                castle_grounds_dl_y1s202rqu3f01_ci4_pal_rgba16_aligner
                0x00000000070c3fc8                castle_grounds_dl_y1s202rqu3f01_ci4
                0x00000000070c47c8                castle_grounds_dl_y1s202rqu3f01_ci4_aligner
                0x00000000070c47d0                castle_grounds_dl_leftGBA_ci4_pal_rgba16
                0x00000000070c47f0                castle_grounds_dl_leftGBA_ci4_pal_rgba16_aligner
                0x00000000070c47f8                castle_grounds_dl_leftGBA_ci4
                0x00000000070c4ff8                castle_grounds_dl_leftGBA_ci4_aligner
                0x00000000070c5000                castle_grounds_dl_rightGBA_ci4_pal_rgba16
                0x00000000070c5020                castle_grounds_dl_rightGBA_ci4_pal_rgba16_aligner
                0x00000000070c5028                castle_grounds_dl_rightGBA_ci4
                0x00000000070c5828                castle_grounds_dl_rightGBA_ci4_aligner
                0x00000000070c5830                castle_grounds_dl_Unbenannt_2_rgba16
                0x00000000070c6830                castle_grounds_dl_Unbenannt_2_rgba16_aligner
                0x00000000070c6838                castle_grounds_dl_smash64figures_rgba16
                0x00000000070c7838                castle_grounds_dl_smash64figures_rgba16_aligner
                0x00000000070c7840                castle_grounds_dl_Unbenannt_1_rgba16
                0x00000000070c8840                castle_grounds_dl_Unbenannt_1_rgba16_aligner
                0x00000000070c8848                castle_grounds_dl_HTB1DkpIbjqhSKJjSspnq6A79XXaU_rgba16
                0x00000000070c9848                castle_grounds_dl_HTB1DkpIbjqhSKJjSspnq6A79XXaU_rgba16_aligner
                0x00000000070c9850                castle_grounds_dl_Texture0381_RGB_rgba16
                0x00000000070ca050                castle_grounds_dl_Texture0381_RGB_rgba16_aligner
                0x00000000070ca058                castle_grounds_dl_Texture0383_RGB_rgba16
                0x00000000070ca858                castle_grounds_dl_Texture0383_RGB_rgba16_aligner
                0x00000000070ca860                castle_grounds_dl_Unbenannt_1_i4
                0x00000000070cb860                castle_grounds_dl_Unbenannt_1_i4_aligner
                0x00000000070cb868                castle_grounds_dl_TexturesCom_BaroqueSet04_01_512_3dbrush_i4
                0x00000000070cc868                castle_grounds_dl_TexturesCom_BaroqueSet04_01_512_3dbrush_i4_aligner
                0x00000000070cc870                castle_grounds_dl_cs_stonetile02_alb_i8
                0x00000000070ccc70                castle_grounds_dl_cs_stonetile02_alb_i8_aligner
                0x00000000070ccc78                castle_grounds_dl_grass_top_i8
                0x00000000070cd078                castle_grounds_dl_grass_top_i8_aligner
                0x00000000070cd080                castle_grounds_dl_D61220C2810ABF78D9AF9C7DBF9760B8_i8
                0x00000000070ce080                castle_grounds_dl_D61220C2810ABF78D9AF9C7DBF9760B8_i8_aligner
                0x00000000070ce088                castle_grounds_dl_frs_step_01_3C680_i8
                0x00000000070ce888                castle_grounds_dl_frs_step_01_3C680_i8_aligner
                0x00000000070ce890                castle_grounds_dl__4DE6FF52_c_ci4_pal_rgba16
                0x00000000070ce8b0                castle_grounds_dl__4DE6FF52_c_ci4_pal_rgba16_aligner
                0x00000000070ce8b8                castle_grounds_dl__4DE6FF52_c_ci4
                0x00000000070ceab8                castle_grounds_dl__4DE6FF52_c_ci4_aligner
                0x00000000070ceac0                castle_grounds_dl_MARIOKART64_76433352_0_2_all_ci4_pal_rgba16
                0x00000000070ceae0                castle_grounds_dl_MARIOKART64_76433352_0_2_all_ci4_pal_rgba16_aligner
                0x00000000070ceae8                castle_grounds_dl_MARIOKART64_76433352_0_2_all_ci4
                0x00000000070cf2e8                castle_grounds_dl_MARIOKART64_76433352_0_2_all_ci4_aligner
                0x00000000070cf2f0                castle_grounds_dl_MARIOKART64_76433352_0_2_al23l_ci4_pal_rgba16
                0x00000000070cf310                castle_grounds_dl_MARIOKART64_76433352_0_2_al23l_ci4_pal_rgba16_aligner
                0x00000000070cf318                castle_grounds_dl_MARIOKART64_76433352_0_2_al23l_ci4
                0x00000000070cfb18                castle_grounds_dl_MARIOKART64_76433352_0_2_al23l_ci4_aligner
                0x00000000070cfb20                castle_grounds_dl_GrassTestie_i8
                0x00000000070d0b20                castle_grounds_dl_GrassTestie_i8_aligner
                0x00000000070d0b28                castle_grounds_dl__00030260_64x32_i8_i8
                0x00000000070d1328                castle_grounds_dl__00030260_64x32_i8_i8_aligner
                0x00000000070d1330                castle_grounds_dl_BookStone01_ci8_pal_rgba16
                0x00000000070d1410                castle_grounds_dl_BookStone01_ci8_pal_rgba16_aligner
                0x00000000070d1418                castle_grounds_dl_BookStone01_ci8
                0x00000000070d1818                castle_grounds_dl_BookStone01_ci8_aligner
                0x00000000070d1820                castle_grounds_dl_ia8_2_ia8
                0x00000000070d1c20                castle_grounds_dl_ia8_2_ia8_aligner
                0x00000000070d1c28                castle_grounds_dl__0x65E0_ci4_pal_rgba16
                0x00000000070d1c48                castle_grounds_dl__0x65E0_ci4_pal_rgba16_aligner
                0x00000000070d1c50                castle_grounds_dl__0x65E0_ci4
                0x00000000070d2450                castle_grounds_dl__0x65E0_ci4_aligner
                0x00000000070d2458                castle_grounds_dl__1ebdd000_fmt0431_slice0_mip00_128x128_tm04_ci4_pal_rgba16
                0x00000000070d2478                castle_grounds_dl__1ebdd000_fmt0431_slice0_mip00_128x128_tm04_ci4_pal_rgba16_aligner
                0x00000000070d2480                castle_grounds_dl__1ebdd000_fmt0431_slice0_mip00_128x128_tm04_ci4
                0x00000000070d2c80                castle_grounds_dl__1ebdd000_fmt0431_slice0_mip00_128x128_tm04_ci4_aligner
                0x00000000070d2c88                castle_grounds_dl_F001r_desk01_ci8_pal_rgba16
                0x00000000070d2d08                castle_grounds_dl_F001r_desk01_ci8_pal_rgba16_aligner
                0x00000000070d2d10                castle_grounds_dl_F001r_desk01_ci8
                0x00000000070d3510                castle_grounds_dl_F001r_desk01_ci8_aligner
                0x00000000070d3518                castle_grounds_dl__311AE0525B6022A7CE70D92EC5748D14__2__i8
                0x00000000070d4518                castle_grounds_dl__311AE0525B6022A7CE70D92EC5748D14__2__i8_aligner
                0x00000000070d4520                castle_grounds_dl_asdfTxe_Edanmae_yama__2__i4
                0x00000000070d4d20                castle_grounds_dl_asdfTxe_Edanmae_yama__2__i4_aligner
                0x00000000070d4d28                castle_grounds_dl_segment2_05800_rgba16__10__i4
                0x00000000070d5528                castle_grounds_dl_segment2_05800_rgba16__10__i4_aligner
                0x00000000070d5530                castle_grounds_dl_dfh_ci4_pal_rgba16
                0x00000000070d5550                castle_grounds_dl_dfh_ci4_pal_rgba16_aligner
                0x00000000070d5558                castle_grounds_dl_dfh_ci4
                0x00000000070d5d58                castle_grounds_dl_dfh_ci4_aligner
                0x00000000070d5d60                castle_grounds_dl_te2st_i8
                0x00000000070d6d60                castle_grounds_dl_te2st_i8_aligner
                0x00000000070d6d68                castle_grounds_dl_Glover_D85757B7_0_0_F32F127E_ciByRGBA_ci4_pal_rgba16
                0x00000000070d6d88                castle_grounds_dl_Glover_D85757B7_0_0_F32F127E_ciByRGBA_ci4_pal_rgba16_aligner
                0x00000000070d6d90                castle_grounds_dl_Glover_D85757B7_0_0_F32F127E_ciByRGBA_ci4
                0x00000000070d6f90                castle_grounds_dl_Glover_D85757B7_0_0_F32F127E_ciByRGBA_ci4_aligner
                0x00000000070d6f98                castle_grounds_dl_big_boos_cruise_sign___fortnite2_ci4_pal_rgba16
                0x00000000070d6fb8                castle_grounds_dl_big_boos_cruise_sign___fortnite2_ci4_pal_rgba16_aligner
                0x00000000070d6fc0                castle_grounds_dl_big_boos_cruise_sign___fortnite2_ci4
                0x00000000070d77c0                castle_grounds_dl_big_boos_cruise_sign___fortnite2_ci4_aligner
                0x00000000070d77c8                castle_grounds_dl_big_boos_cruise_sign___fortnite1_ci4_pal_rgba16
                0x00000000070d77e8                castle_grounds_dl_big_boos_cruise_sign___fortnite1_ci4_pal_rgba16_aligner
                0x00000000070d77f0                castle_grounds_dl_big_boos_cruise_sign___fortnite1_ci4
                0x00000000070d7ff0                castle_grounds_dl_big_boos_cruise_sign___fortnite1_ci4_aligner
                0x00000000070d7ff8                castle_grounds_dl_GLME01_c64080ee_14_ci8_pal_rgba16
                0x00000000070d8030                castle_grounds_dl_GLME01_c64080ee_14_ci8_pal_rgba16_aligner
                0x00000000070d8038                castle_grounds_dl_GLME01_c64080ee_14_ci8
                0x00000000070d8838                castle_grounds_dl_GLME01_c64080ee_14_ci8_aligner
                0x00000000070d8840                castle_grounds_dl_MarioParty_054CEDE3_2_0_ci_ci4_pal_rgba16
                0x00000000070d8860                castle_grounds_dl_MarioParty_054CEDE3_2_0_ci_ci4_pal_rgba16_aligner
                0x00000000070d8868                castle_grounds_dl_MarioParty_054CEDE3_2_0_ci_ci4
                0x00000000070d8a68                castle_grounds_dl_MarioParty_054CEDE3_2_0_ci_ci4_aligner
                0x00000000070d8a70                castle_grounds_dl_FIR_O_CC_STONE04_i4
                0x00000000070d9a70                castle_grounds_dl_FIR_O_CC_STONE04_i4_aligner
                0x00000000070d9a78                castle_grounds_dl_yahiki_tuta01_ci4_pal_rgba16
                0x00000000070d9a98                castle_grounds_dl_yahiki_tuta01_ci4_pal_rgba16_aligner
                0x00000000070d9aa0                castle_grounds_dl_yahiki_tuta01_ci4
                0x00000000070da2a0                castle_grounds_dl_yahiki_tuta01_ci4_aligner
                0x00000000070da2a8                castle_grounds_dl_n_bk_saku01_ci8_pal_rgba16
                0x00000000070da2f8                castle_grounds_dl_n_bk_saku01_ci8_pal_rgba16_aligner
                0x00000000070da300                castle_grounds_dl_n_bk_saku01_ci8
                0x00000000070da500                castle_grounds_dl_n_bk_saku01_ci8_aligner
                0x00000000070da508                castle_grounds_dl__47z45eteturu_00_ci4_pal_rgba16
                0x00000000070da528                castle_grounds_dl__47z45eteturu_00_ci4_pal_rgba16_aligner
                0x00000000070da530                castle_grounds_dl__47z45eteturu_00_ci4
                0x00000000070dad30                castle_grounds_dl__47z45eteturu_00_ci4_aligner
                0x00000000070dad38                castle_grounds_dl_Burrows_i4
                0x00000000070dbd38                castle_grounds_dl_Burrows_i4_aligner
                0x00000000070dbd40                castle_grounds_dl_Blazing_i4
                0x00000000070dcd40                castle_grounds_dl_Blazing_i4_aligner
                0x00000000070dcd48                castle_grounds_dl_BOwsers_i4
                0x00000000070ddd48                castle_grounds_dl_BOwsers_i4_aligner
                0x00000000070ddd50                castle_grounds_dl_ZootZootZooSign_rgba16
                0x00000000070e1a58                castle_grounds_dl_ZootZootZooSign_rgba16_aligner
                0x00000000070e1a60                castle_grounds_dl_tbrender__1__ia4
                0x00000000070e2a60                castle_grounds_dl_tbrender__1__ia4_aligner
                0x00000000070e2a68                castle_grounds_dl_SUPER_MARIO_64_FDDF5C31_0_2_rgb_ci4_pal_rgba16
                0x00000000070e2a88                castle_grounds_dl_SUPER_MARIO_64_FDDF5C31_0_2_rgb_ci4_pal_rgba16_aligner
                0x00000000070e2a90                castle_grounds_dl_SUPER_MARIO_64_FDDF5C31_0_2_rgb_ci4
                0x00000000070e3290                castle_grounds_dl_SUPER_MARIO_64_FDDF5C31_0_2_rgb_ci4_aligner
                0x00000000070e3298                castle_grounds_dl_tex1_256x256_m_751a431e018e3b35_14_i4
                0x00000000070e4298                castle_grounds_dl_tex1_256x256_m_751a431e018e3b35_14_i4_aligner
                0x00000000070e42a0                castle_grounds_dl_rrow_asset_911_i4
                0x00000000070e52a0                castle_grounds_dl_rrow_asset_911_i4_aligner
                0x00000000070e52a8                castle_grounds_dl_rrow_asset_939_i8
                0x00000000070e62a8                castle_grounds_dl_rrow_asset_939_i8_aligner
                0x00000000070e62b0                castle_grounds_dl_tex1_64x64_3ecb72f26797c6dc_14_i8
                0x00000000070e72b0                castle_grounds_dl_tex1_64x64_3ecb72f26797c6dc_14_i8_aligner
                0x00000000070e72b8                castle_grounds_dl_xx_9_ci8_pal_rgba16
                0x00000000070e72f0                castle_grounds_dl_xx_9_ci8_pal_rgba16_aligner
                0x00000000070e72f8                castle_grounds_dl_xx_9_ci8
                0x00000000070e76f8                castle_grounds_dl_xx_9_ci8_aligner
                0x00000000070e7700                castle_grounds_dl_RMGP01_018a573f_14_i4
                0x00000000070e8700                castle_grounds_dl_RMGP01_018a573f_14_i4_aligner
                0x00000000070e8708                castle_grounds_dl__12donebycdi_rgba16
                0x00000000070e9708                castle_grounds_dl__12donebycdi_rgba16_aligner
                0x00000000070e9710                castle_grounds_dl_BOMBERMAN_HERO_9600E8A3_2_0_5661A3B1_ciByRGBA_i4
                0x00000000070e9f10                castle_grounds_dl_BOMBERMAN_HERO_9600E8A3_2_0_5661A3B1_ciByRGBA_i4_aligner
                0x00000000070e9f18                castle_grounds_dl__08D3D86F69D6CCD5309418459BA49674_ia4
                0x00000000070ea718                castle_grounds_dl__08D3D86F69D6CCD5309418459BA49674_ia4_aligner
                0x00000000070ea720                castle_grounds_dl_grottdoc_rampetxynz_ia4
                0x00000000070eb720                castle_grounds_dl_grottdoc_rampetxynz_ia4_aligner
                0x00000000070eb728                castle_grounds_dl_SUPER_MARIO_64_C55C829F_0_2_all_ci4_pal_rgba16
                0x00000000070eb748                castle_grounds_dl_SUPER_MARIO_64_C55C829F_0_2_all_ci4_pal_rgba16_aligner
                0x00000000070eb750                castle_grounds_dl_SUPER_MARIO_64_C55C829F_0_2_all_ci4
                0x00000000070ebf50                castle_grounds_dl_SUPER_MARIO_64_C55C829F_0_2_all_ci4_aligner
                0x00000000070ebf58                castle_grounds_dl_ng_nukirgba16_rgba16
                0x00000000070ecf58                castle_grounds_dl_ng_nukirgba16_rgba16_aligner
                0x00000000070ecf60                castle_grounds_dl__1_ci4_pal_rgba16
                0x00000000070ecf80                castle_grounds_dl__1_ci4_pal_rgba16_aligner
                0x00000000070ecf88                castle_grounds_dl__1_ci4
                0x00000000070ed788                castle_grounds_dl__1_ci4_aligner
                0x00000000070ed790                castle_grounds_dl_uzifighihjkm_leaf01_ia8
                0x00000000070ee790                castle_grounds_dl_uzifighihjkm_leaf01_ia8_aligner
                0x00000000070ee798                castle_grounds_dl_thefuckingsun_i8
                0x00000000070ef798                castle_grounds_dl_thefuckingsun_i8_aligner
                0x00000000070ef7a0                castle_grounds_dl_shadow_i8
                0x00000000070f07a0                castle_grounds_dl_shadow_i8_aligner
                0x00000000070f07a8                castle_grounds_dl_bunnyfeet_ia8
                0x00000000070f0fa8                castle_grounds_dl_bunnyfeet_ia8_aligner
                0x00000000070f0fb0                castle_grounds_dl_FireflowerNSMB2_ci8_pal_rgba16
                0x00000000070f1078                castle_grounds_dl_FireflowerNSMB2_ci8_pal_rgba16_aligner
                0x00000000070f1080                castle_grounds_dl_FireflowerNSMB2_ci8
                0x00000000070f1880                castle_grounds_dl_FireflowerNSMB2_ci8_aligner
                0x00000000070f1888                castle_grounds_dl_tex1_128x128_m_b02c27165b9e7bde_5_mip2_ci8_pal_rgba16
                0x00000000070f1908                castle_grounds_dl_tex1_128x128_m_b02c27165b9e7bde_5_mip2_ci8_pal_rgba16_aligner
                0x00000000070f1910                castle_grounds_dl_tex1_128x128_m_b02c27165b9e7bde_5_mip2_ci8
                0x00000000070f1d10                castle_grounds_dl_tex1_128x128_m_b02c27165b9e7bde_5_mip2_ci8_aligner
                0x00000000070f1d18                castle_grounds_dl_dro_d_t_doatif_ci8_pal_rgba16
                0x00000000070f1d68                castle_grounds_dl_dro_d_t_doatif_ci8_pal_rgba16_aligner
                0x00000000070f1d70                castle_grounds_dl_dro_d_t_doatif_ci8
                0x00000000070f2570                castle_grounds_dl_dro_d_t_doatif_ci8_aligner
                0x00000000070f2578                castle_grounds_dl__2PLANKWOOD_ci4_pal_rgba16
                0x00000000070f2598                castle_grounds_dl__2PLANKWOOD_ci4_pal_rgba16_aligner
                0x00000000070f25a0                castle_grounds_dl__2PLANKWOOD_ci4
                0x00000000070f2da0                castle_grounds_dl__2PLANKWOOD_ci4_aligner
                0x00000000070f2da8                castle_grounds_dl_mario_logo_rgba16_ci4_pal_rgba16
                0x00000000070f2dc8                castle_grounds_dl_mario_logo_rgba16_ci4_pal_rgba16_aligner
                0x00000000070f2dd0                castle_grounds_dl_mario_logo_rgba16_ci4
                0x00000000070f35d0                castle_grounds_dl_mario_logo_rgba16_ci4_aligner
                0x00000000070f35d8                castle_grounds_dl__1woodply_ci4_pal_rgba16
                0x00000000070f35f8                castle_grounds_dl__1woodply_ci4_pal_rgba16_aligner
                0x00000000070f3600                castle_grounds_dl__1woodply_ci4
                0x00000000070f3e00                castle_grounds_dl__1woodply_ci4_aligner
                0x00000000070f3e08                castle_grounds_dl_firefox_2018_03_03_07_54_19L_i4
                0x00000000070f4608                castle_grounds_dl_firefox_2018_03_03_07_54_19L_i4_aligner
                0x00000000070f4610                castle_grounds_dl_firefox_2018_03_03_07_54_19_i4
                0x00000000070f4e10                castle_grounds_dl_firefox_2018_03_03_07_54_19_i4_aligner
                0x00000000070f4e18                castle_grounds_dl_NEWON0E223_i4
                0x00000000070f5618                castle_grounds_dl_NEWON0E223_i4_aligner
                0x00000000070f5620                castle_grounds_dl_mulittex1_i4
                0x00000000070f5e20                castle_grounds_dl_mulittex1_i4_aligner
                0x00000000070f5e28                castle_grounds_dl_Bark02_ci8_pal_rgba16
                0x00000000070f5eb0                castle_grounds_dl_Bark02_ci8_pal_rgba16_aligner
                0x00000000070f5eb8                castle_grounds_dl_Bark02_ci8
                0x00000000070f62b8                castle_grounds_dl_Bark02_ci8_aligner
                0x00000000070f62c0                castle_grounds_dl_Rainbowalphaedge_ci8_pal_rgba16
                0x00000000070f6350                castle_grounds_dl_Rainbowalphaedge_ci8_pal_rgba16_aligner
                0x00000000070f6358                castle_grounds_dl_Rainbowalphaedge_ci8
                0x00000000070f6758                castle_grounds_dl_Rainbowalphaedge_ci8_aligner
                0x00000000070f6760                castle_grounds_dl_NEWON0E22_i4
                0x00000000070f6f60                castle_grounds_dl_NEWON0E22_i4_aligner
                0x00000000070f6f68                castle_grounds_dl_KKIIDDZZ_DAT_1646__p00_i4
                0x00000000070f7768                castle_grounds_dl_KKIIDDZZ_DAT_1646__p00_i4_aligner
                0x00000000070f7770                castle_grounds_dl_Texture0117_RGB_greyscale_i8_copy
                0x00000000070f7b70                castle_grounds_dl_Texture0117_RGB_greyscale_i8_copy_aligner
                0x00000000070f7b78                castle_grounds_dl_Texture0117_RGB_greyscale_i8
                0x00000000070f7f78                castle_grounds_dl_Texture0117_RGB_greyscale_i8_aligner
                0x00000000070f7f80                castle_grounds_dl_gareki_i8
                0x00000000070f8f80                castle_grounds_dl_gareki_i8_aligner
                0x00000000070f8f88                castle_grounds_dl_test_i8
                0x00000000070f9f88                castle_grounds_dl_test_i8_aligner
                0x00000000070f9f90                castle_grounds_dl_f3d_material_084_lights
                0x00000000070f9fa8                castle_grounds_dl_f3d_material_083_lights
                0x00000000070f9fc0                castle_grounds_dl_f3d_material_070_lights
                0x00000000070f9fd8                castle_grounds_dl_f3d_material_082_lights
                0x00000000070f9ff0                castle_grounds_dl_f3d_material_079_lights
                0x00000000070fa008                castle_grounds_dl_f3d_material_080_lights
                0x00000000070fa020                castle_grounds_dl_f3d_material_081_lights
                0x00000000070fa038                castle_grounds_dl_f3d_material_076_lights
                0x00000000070fa050                castle_grounds_dl_f3d_material_077_lights
                0x00000000070fa068                castle_grounds_dl_f3d_material_075_lights
                0x00000000070fa080                castle_grounds_dl_f3d_material_069_layer1_lights
                0x00000000070fa098                castle_grounds_dl_f3d_material_074_lights
                0x00000000070fa0b0                castle_grounds_dl_f3d_material_072_layer1_lights
                0x00000000070fa0c8                castle_grounds_dl_sm64_material_040_lights
                0x00000000070fa0e0                castle_grounds_dl_sm64_material_050_lights
                0x00000000070fa0f8                castle_grounds_dl_sm64_material_008_lights
                0x00000000070fa110                castle_grounds_dl_sm64_material_007_lights
                0x00000000070fa128                castle_grounds_dl_sm64_material_002_lights
                0x00000000070fa140                castle_grounds_dl_sm64_material_100_lights
                0x00000000070fa158                castle_grounds_dl_sm64_material_101_lights
                0x00000000070fa170                castle_grounds_dl_sm64_material_044_lights
                0x00000000070fa188                castle_grounds_dl_sm64_material_042_lights
                0x00000000070fa1a0                castle_grounds_dl_sm64_material_041_lights
                0x00000000070fa1b8                castle_grounds_dl_sm64_material_lights
                0x00000000070fa1d0                castle_grounds_dl_sm64_material_106_lights
                0x00000000070fa1e8                castle_grounds_dl_sm64_material_107_lights
                0x00000000070fa200                castle_grounds_dl_sm64_material_105_lights
                0x00000000070fa218                castle_grounds_dl_sm64_material_104_lights
                0x00000000070fa230                castle_grounds_dl_sm64_material_038_lights
                0x00000000070fa248                castle_grounds_dl_sm64_material_037_lights
                0x00000000070fa260                castle_grounds_dl_Mat_f3d_lights
                0x00000000070fa278                castle_grounds_dl_Gut_f3d_lights
                0x00000000070fa290                castle_grounds_dl_sm64_material_079_lights
                0x00000000070fa2a8                castle_grounds_dl_handle_SPRT_f3d_lights
                0x00000000070fa2c0                castle_grounds_dl_base_MAT_f3d_lights
                0x00000000070fa2d8                castle_grounds_dl_L_Real_MAT_f3d_lights
                0x00000000070fa2f0                castle_grounds_dl_marioKart_SPRT_f3d_lights
                0x00000000070fa308                castle_grounds_dl_sm64_material_108_lights
                0x00000000070fa320                castle_grounds_dl_N64logo2_lights
                0x00000000070fa338                castle_grounds_dl_sm64_material_085_lights
                0x00000000070fa350                castle_grounds_dl_sm64_material_084_lights
                0x00000000070fa368                castle_grounds_dl_sm64_material_083_lights
                0x00000000070fa380                castle_grounds_dl_sm64_material_032_lights
                0x00000000070fa398                castle_grounds_dl_sm64_material_031_lights
                0x00000000070fa3b0                castle_grounds_dl_sm64_material_030_lights
                0x00000000070fa3c8                castle_grounds_dl_sm64_material_028_lights
                0x00000000070fa3e0                castle_grounds_dl_sm64_material_027_lights
                0x00000000070fa3f8                castle_grounds_dl_sm64_material_026_lights
                0x00000000070fa410                castle_grounds_dl_sm64_material_029_lights
                0x00000000070fa428                castle_grounds_dl_sm64_material_020_lights
                0x00000000070fa440                castle_grounds_dl_sm64_material_022_lights
                0x00000000070fa458                castle_grounds_dl_sm64_material_018_lights
                0x00000000070fa470                castle_grounds_dl_sm64_material_017_lights
                0x00000000070fa488                castle_grounds_dl_sm64_material_016_lights
                0x00000000070fa4a0                castle_grounds_dl_sm64_material_019_lights
                0x00000000070fa4b8                castle_grounds_dl_sm64_material_014_lights
                0x00000000070fa4d0                castle_grounds_dl_sm64_material_013_lights
                0x00000000070fa4e8                castle_grounds_dl_sm64_material_012_lights
                0x00000000070fa500                castle_grounds_dl_sm64_material_015_lights
                0x00000000070fa518                castle_grounds_dl_sm64_material_010_lights
                0x00000000070fa530                castle_grounds_dl_sm64_material_004_lights
                0x00000000070fa548                castle_grounds_dl_sm64_material_095_lights
                0x00000000070fa560                castle_grounds_dl_sm64_material_089_lights
                0x00000000070fa578                castle_grounds_dl_sm64_material_087_lights
                0x00000000070fa590                castle_grounds_dl_sm64_material_088_lights
                0x00000000070fa5a8                castle_grounds_dl_sm64_material_011_lights
                0x00000000070fa5c0                castle_grounds_dl_hat_nintendo64_color_png_f3d_lights
                0x00000000070fa5d8                castle_grounds_dl__03___Default_f3d_lights
                0x00000000070fa5f0                castle_grounds_dl_sm64_material_082_lights
                0x00000000070fa608                castle_grounds_dl_sm64_material_081_lights
                0x00000000070fa620                castle_grounds_dl_sm64_material_080_lights
                0x00000000070fa638                castle_grounds_dl_sm64_material_086_lights
                0x00000000070fa650                castle_grounds_dl_sm64_material_048_lights
                0x00000000070fa668                castle_grounds_dl_sm64_material_065_lights
                0x00000000070fa680                castle_grounds_dl_sm64_material_066_lights
                0x00000000070fa698                castle_grounds_dl_sm64_material_060_lights
                0x00000000070fa6b0                castle_grounds_dl_sm64_material_061_lights
                0x00000000070fa6c8                castle_grounds_dl_sm64_material_069_lights
                0x00000000070fa6e0                castle_grounds_dl_sm64_material_070_lights
                0x00000000070fa6f8                castle_grounds_dl_sm64_material_078_lights
                0x00000000070fa710                castle_grounds_dl_sm64_material_024_lights
                0x00000000070fa728                castle_grounds_dl_sm64_material_025_lights
                0x00000000070fa740                castle_grounds_dl_sm64_material_047_lights
                0x00000000070fa758                castle_grounds_dl_sm64_material_046_lights
                0x00000000070fa770                castle_grounds_dl_G_Coin_MAT_f3d_lights
                0x00000000070fa788                castle_grounds_dl_G_Shroom_MAT_f3d_lights
                0x00000000070fa7a0                castle_grounds_dl_NSOQ_L_MAT_f3d_lights
                0x00000000070fa7b8                castle_grounds_dl_Piranha_MAT_f3d_lights
                0x00000000070fa7d0                castle_grounds_dl_sm64_material_043_lights
                0x00000000070fa7e8                castle_grounds_dl_Branch_MAT_f3d_lights
                0x00000000070fa800                castle_grounds_dl_pitchBlack_MAT_f3d_lights
                0x00000000070fa818                castle_grounds_dl_pipe_MAT_f3d_lights
                0x00000000070fa830                castle_grounds_dl_Material_wts3_png_001_f3d_lights
                0x00000000070fa848                castle_grounds_dl_Material_wts2_png_001_f3d_lights
                0x00000000070fa860                castle_grounds_dl_Material_ssb4_png_001_f3d_lights
                0x00000000070fa878                castle_grounds_dl_Material_ssb2_png_001_f3d_lights
                0x00000000070fa890                castle_grounds_dl_Material_oot2_png_001_f3d_lights
                0x00000000070fa8a8                castle_grounds_dl_Material_s_l300_png_001_f3d_lights
                0x00000000070fa8c0                castle_grounds_dl_Material_mp2_png_001_f3d_lights
                0x00000000070fa8d8                castle_grounds_dl_Material_mp1_png_001_f3d_lights
                0x00000000070fa8f0                castle_grounds_dl_Material_449794_super_mario_64_nintendo_64_spine_sides_png_001__lights
                0x00000000070fa908                castle_grounds_dl_Material_336723_super_mario_64_nintendo_64_spine_sides_png_001__lights
                0x00000000070fa920                castle_grounds_dl_sm64_material_034_lights
                0x00000000070fa938                castle_grounds_dl_Material_17612_poster_unframed_mockup_png_001_f3d_lights
                0x00000000070fa950                castle_grounds_dl_Material_wheredoyouplayyours2_png_001_f3d_lights
                0x00000000070fa968                castle_grounds_dl_Material_887ded7c8497d3aa749877c00539ae08__minimalist_poste_001_lights
                0x00000000070fa980                castle_grounds_dl_Material_0374ef731bf55c53847dfbf592ab497b_png_f3d_lights
                0x00000000070fa998                castle_grounds_dl_Material_dock_bmp_png_001_f3d_lights
                0x00000000070fa9b0                castle_grounds_dl_mtBookt_mat_f3d_lights
                0x00000000070fa9c8                castle_grounds_dl_sm64_material_036_lights
                0x00000000070fa9e0                castle_grounds_dl_sm64_material_033_lights
                0x00000000070fa9f8                castle_grounds_dl_sm64_material_003_lights
                0x00000000070faa10                castle_grounds_dl_sm64_material_094_lights
                0x00000000070faa28                castle_grounds_dl_sm64_material_023_lights
                0x00000000070faa40                castle_grounds_dl_sm64_material_035_lights
                0x00000000070faa58                castle_grounds_dl_sm64_material_099_lights
                0x00000000070faa70                castle_grounds_dl_sm64_material_098_lights
                0x00000000070faa88                castle_grounds_dl_sm64_material_096_lights
                0x00000000070faaa0                castle_grounds_dl_sm64_material_097_lights
                0x00000000070faab8                castle_grounds_dl_sm64_material_092_lights
                0x00000000070faad0                castle_grounds_dl_sm64_material_093_lights
                0x00000000070faae8                castle_grounds_dl_sm64_material_091_lights
                0x00000000070fab00                castle_grounds_dl_sm64_material_090_lights
                0x00000000070fab18                castle_grounds_dl_f3d_material_012_layer0_lights
                0x00000000070fab30                castle_grounds_dl_f3d_material_045_lights
                0x00000000070fab48                castle_grounds_dl_f3d_material_046_lights
                0x00000000070fab60                castle_grounds_dl_f3d_material_040_lights
                0x00000000070fab78                castle_grounds_dl_f3d_material_037_lights
                0x00000000070fab90                castle_grounds_dl_f3d_material_044_lights
                0x00000000070faba8                castle_grounds_dl_f3d_material_047_lights
                0x00000000070fabc0                castle_grounds_dl_VMtl091_f3d_lights
                0x00000000070fabd8                castle_grounds_dl_f3d_material_048_lights
                0x00000000070fabf0                castle_grounds_dl_f3d_material_049_lights
                0x00000000070fac08                castle_grounds_dl_sm64_material_v3_lights
                0x00000000070fac20                castle_grounds_dl_f3d_material_043_lights
                0x00000000070fac38                castle_grounds_dl_sm64_material_060_v3_lights
                0x00000000070fac50                castle_grounds_dl_f3d_material_085_lights
                0x00000000070fac68                castle_grounds_dl_sm64_material_072_v3_lights
                0x00000000070fac80                castle_grounds_dl_f3d_material_059_lights
                0x00000000070fac98                castle_grounds_dl_BOWSERLIGHTS_lights
                0x00000000070facb0                castle_grounds_dl_f3d_material_025_lights
                0x00000000070facc8                castle_grounds_dl_f3d_material_033_lights
                0x00000000070face0                castle_grounds_dl_f3d_material_027_layer1_lights
                0x00000000070facf8                castle_grounds_dl_f3d_material_055_lights
                0x00000000070fad10                castle_grounds_dl_PENISHILLS2_lights
                0x00000000070fad28                castle_grounds_dl_f3d_material_024_lights
                0x00000000070fad40                castle_grounds_dl_sm64_material_044_v3_lights
                0x00000000070fad58                castle_grounds_dl_sm64_material_077_v3_lights
                0x00000000070fad70                castle_grounds_dl_sm64_material_076_v3_lights
                0x00000000070fad88                castle_grounds_dl_sm64_material_074_v3_lights
                0x00000000070fada0                castle_grounds_dl_sm64_material_075_v3_lights
                0x00000000070fadb8                castle_grounds_dl_sm64_material_045_v3_lights
                0x00000000070fadd0                castle_grounds_dl_sm64_material_058_v3_lights
                0x00000000070fade8                castle_grounds_dl_sm64_material_059_v3_lights
                0x00000000070fae00                castle_grounds_dl_sm64_material_078_v3_lights
                0x00000000070fae18                castle_grounds_dl_BBB3_lights
                0x00000000070fae30                castle_grounds_dl_BBB2_lights
                0x00000000070fae48                castle_grounds_dl_BBB1_lights
                0x00000000070fae60                castle_grounds_dl_f3d_material_073_lights
                0x00000000070fae78                castle_grounds_dl_sm64_material_073_v3_lights
                0x00000000070fae90                castle_grounds_dl_f3d_material_058_lights
                0x00000000070faea8                castle_grounds_dl_f3d_material_057_lights
                0x00000000070faec0                castle_grounds_dl_f3d_material_056_lights
                0x00000000070faed8                castle_grounds_dl_f3d_material_050_lights
                0x00000000070faef0                castle_grounds_dl_sm64_material_015_v3_lights
                0x00000000070faf08                castle_grounds_dl_sm64_material_002_v3_lights
                0x00000000070faf20                castle_grounds_dl_sm64_material_001_lights
                0x00000000070faf38                castle_grounds_dl_sm64_material_006_v3_lights
                0x00000000070faf50                castle_grounds_dl_GRAS_layer1_lights
                0x00000000070faf68                castle_grounds_dl_sm64_material_022_v3_lights
                0x00000000070faf80                castle_grounds_dl_sm64_material_117_lights
                0x00000000070faf98                castle_grounds_dl_sm64_material_118_lights
                0x00000000070fafb0                castle_grounds_dl_sm64_material_082_v3_lights
                0x00000000070fafc8                castle_grounds_dl_sm64_material_027_v3_lights
                0x00000000070fafe0                castle_grounds_dl_sm64_material_001_v3_lights
                0x00000000070faff8                castle_grounds_dl_f3d_material_layer0_lights
                0x00000000070fb010                castle_grounds_dl_f3d_material_001_lights
                0x00000000070fb028                castle_grounds_dl_sm64_material_v3_001_lights
                0x00000000070fb040                castle_grounds_dl_sm64_material_115_lights
                0x00000000070fb058                castle_grounds_dl_sm64_material_116_lights
                0x00000000070fb070                castle_grounds_dl_sm64_material_119_lights
                0x00000000070fb088                castle_grounds_dl_mario_cap_tx_f3d_001_lights
                0x00000000070fb0a0                castle_grounds_dl_sm64_material_120_lights
                0x00000000070fb0b8                castle_grounds_dl_OWWATER_layer5_lights
                0x00000000070fb0d0                castle_grounds_dl_ALPHAGRAS_layer5_lights
                0x00000000070fb0e8                castle_grounds_dl_sm64_material_011_v3_lights
                0x00000000070fb100                castle_grounds_dl_sm64_material_013_v3_lights
                0x00000000070fb118                castle_grounds_dl_sm64_material_016_v2_v3_001_lights
                0x00000000070fb130                castle_grounds_dl_CloudSky_layer5_lights
                0x00000000070fb148                castle_grounds_dl_sm64_material_014_v3_lights
                0x00000000070fb160                castle_grounds_dl_penishills_lights
                0x00000000070fb178                castle_grounds_area_4_macro_objs
                0x00000000070fb17c                castle_grounds_area_4_collision
                0x00000000070fc948                castle_grounds_area_3_macro_objs
                0x00000000070fc94c                castle_grounds_area_3_collision
                0x00000000070fd1e4                castle_grounds_area_2_macro_objs
                0x00000000070fd1e8                castle_grounds_area_2_collision
                0x0000000007100b38                castle_grounds_area_1_spline_IntroCutscenePos_005
                0x0000000007100b48                castle_grounds_area_1_spline_IntroCutscenePos_004
                0x0000000007100b58                castle_grounds_area_1_spline_IntroCutscenePos_003
                0x0000000007100b70                castle_grounds_area_1_spline_IntroCutscenePos_002
                0x0000000007100b88                castle_grounds_area_1_spline_IntroCutscenePos_001
                0x0000000007100b98                castle_grounds_area_1_spline_IntroCutscenePos
                0x0000000007100bb8                castle_grounds_area_1_spline_IntroCutsceneFoc_005
                0x0000000007100bd8                castle_grounds_area_1_spline_IntroCutsceneFoc_004
                0x0000000007100be8                castle_grounds_area_1_spline_IntroCutsceneFoc_003
                0x0000000007100bf8                castle_grounds_area_1_spline_IntroCutsceneFoc_002
                0x0000000007100c18                castle_grounds_area_1_spline_IntroCutsceneFoc_001
                0x0000000007100c28                castle_grounds_area_1_spline_IntroCutsceneFoc
                0x0000000007100c50                castle_grounds_area_1_macro_objs
                0x0000000007100c54                castle_grounds_area_1_collision

.data1
 *(.data1)

.got.plt
 *(.got.plt)
                0x0000000007102906                . = .
                0x000000000710a900                _gp = (ALIGN (0x10) + 0x7ff0)

.got
 *(.got)

.sdata
 *(.sdata .sdata.* .gnu.linkonce.s.*)

.lit8
 *(.lit8)

.lit4
 *(.lit4)
                0x0000000007102906                _edata = .
                [!provide]                        PROVIDE (edata = .)
                0x0000000007102906                . = .
                0x0000000007102906                __bss_start = .
                0x0000000007102906                _fbss = .

.sbss
 *(.dynsbss)
 *(.sbss .sbss.* .gnu.linkonce.sb.*)
 *(.scommon)

.bss            0x0000000007102906        0x0
 *(.dynbss)
 *(.bss .bss.* .gnu.linkonce.b.*)
 .bss           0x0000000007102906        0x0 build/us/levels/castle_grounds/leveldata.o
 *(COMMON)
                0x0000000007102906                . = ALIGN ((. != 0x0)?0x4:0x1)
                0x0000000007102908                . = ALIGN (0x4)
                0x0000000007102908                . = SEGMENT_START ("ldata-segment", .)
                0x0000000007102908                . = ALIGN (0x4)
                0x0000000007102908                _end = .
                [!provide]                        PROVIDE (end = .)
                0x0000000007102908                . = DATA_SEGMENT_END (.)

.stab
 *(.stab)

.stabstr
 *(.stabstr)

.stab.excl
 *(.stab.excl)

.stab.exclstr
 *(.stab.exclstr)

.stab.index
 *(.stab.index)

.stab.indexstr
 *(.stab.indexstr)

.comment        0x0000000000000000       0x12
 *(.comment)
 .comment       0x0000000000000000       0x12 build/us/levels/castle_grounds/leveldata.o
                                         0x13 (size before relaxing)

.pdr            0x0000000000000000        0x0
 .pdr           0x0000000000000000        0x0 build/us/levels/castle_grounds/leveldata.o

.gnu.build.attributes
 *(.gnu.build.attributes .gnu.build.attributes.*)

.debug
 *(.debug)

.line
 *(.line)

.debug_srcinfo
 *(.debug_srcinfo)

.debug_sfnames
 *(.debug_sfnames)

.debug_aranges
 *(.debug_aranges)

.debug_pubnames
 *(.debug_pubnames)

.debug_info
 *(.debug_info .gnu.linkonce.wi.*)

.debug_abbrev
 *(.debug_abbrev)

.debug_line
 *(.debug_line .debug_line.* .debug_line_end)

.debug_frame
 *(.debug_frame)

.debug_str
 *(.debug_str)

.debug_loc
 *(.debug_loc)

.debug_macinfo
 *(.debug_macinfo)

.debug_weaknames
 *(.debug_weaknames)

.debug_funcnames
 *(.debug_funcnames)

.debug_typenames
 *(.debug_typenames)

.debug_varnames
 *(.debug_varnames)

.debug_pubtypes
 *(.debug_pubtypes)

.debug_ranges
 *(.debug_ranges)

.debug_addr
 *(.debug_addr)

.debug_line_str
 *(.debug_line_str)

.debug_loclists
 *(.debug_loclists)

.debug_macro
 *(.debug_macro)

.debug_names
 *(.debug_names)

.debug_rnglists
 *(.debug_rnglists)

.debug_str_offsets
 *(.debug_str_offsets)

.debug_sup
 *(.debug_sup)

.gnu.attributes
                0x0000000000000000       0x10
 *(.gnu.attributes)
 .gnu.attributes
                0x0000000000000000       0x10 build/us/levels/castle_grounds/leveldata.o

.gptab.sdata
 *(.gptab.data)
 *(.gptab.sdata)

.gptab.sbss
 *(.gptab.bss)
 *(.gptab.sbss)

.mdebug.abi32   0x0000000000000000        0x0
 *(.mdebug.abi32)
 .mdebug.abi32  0x0000000000000000        0x0 build/us/levels/castle_grounds/leveldata.o

.mdebug.abiN32
 *(.mdebug.abiN32)

.mdebug.abi64
 *(.mdebug.abi64)

.mdebug.abiO64
 *(.mdebug.abiO64)

.mdebug.eabi32
 *(.mdebug.eabi32)

.mdebug.eabi64
 *(.mdebug.eabi64)

.gcc_compiled_long32
 *(.gcc_compiled_long32)

.gcc_compiled_long64
 *(.gcc_compiled_long64)

/DISCARD/
 *(.note.GNU-stack)
 *(.gnu_debuglink)
 *(.gnu.lto_*)
OUTPUT(build/us/levels/castle_grounds/leveldata.elf elf32-bigmips)
