
Memory Configuration

Name             Origin             Length             Attributes
*default*        0x0000000000000000 0xffffffffffffffff

Linker script and memory map

Address of section .text set to 0x7000000
LOAD build/us/bin/outside.elf
LOAD build/us/levels/vcutm/leveldata.o
                [!provide]                        PROVIDE (__executable_start = SEGMENT_START ("text-segment", 0x400000))
                0x0000000000400000                . = SEGMENT_START ("text-segment", 0x400000)

.interp
 *(.interp)

.MIPS.abiflags  0x0000000000400000       0x18
 *(.MIPS.abiflags)
 .MIPS.abiflags
                0x0000000000400000       0x18 build/us/levels/vcutm/leveldata.o

.reginfo        0x0000000000400018       0x18
 *(.reginfo)
 .reginfo       0x0000000000400018       0x18 build/us/levels/vcutm/leveldata.o

.MIPS.xhash
 *(.MIPS.xhash)

.note.gnu.build-id
 *(.note.gnu.build-id)

.dynamic
 *(.dynamic)

.hash
 *(.hash)

.gnu.hash
 *(.gnu.hash)

.dynsym
 *(.dynsym)

.dynstr
 *(.dynstr)

.gnu.version
 *(.gnu.version)

.gnu.version_d
 *(.gnu.version_d)

.gnu.version_r
 *(.gnu.version_r)

.rel.dyn        0x0000000000400018        0x0
 *(.rel.init)
 *(.rel.text .rel.text.* .rel.gnu.linkonce.t.*)
 *(.rel.fini)
 *(.rel.rodata .rel.rodata.* .rel.gnu.linkonce.r.*)
 *(.rel.data.rel.ro .rel.data.rel.ro.* .rel.gnu.linkonce.d.rel.ro.*)
 *(.rel.data .rel.data.* .rel.gnu.linkonce.d.*)
 *(.rel.tdata .rel.tdata.* .rel.gnu.linkonce.td.*)
 *(.rel.tbss .rel.tbss.* .rel.gnu.linkonce.tb.*)
 *(.rel.ctors)
 *(.rel.dtors)
 *(.rel.got)
 *(.rel.dyn)
 .rel.dyn       0x0000000000400018        0x0 build/us/levels/vcutm/leveldata.o
 *(.rel.sdata .rel.sdata.* .rel.gnu.linkonce.s.*)
 *(.rel.sbss .rel.sbss.* .rel.gnu.linkonce.sb.*)
 *(.rel.sdata2 .rel.sdata2.* .rel.gnu.linkonce.s2.*)
 *(.rel.sbss2 .rel.sbss2.* .rel.gnu.linkonce.sb2.*)
 *(.rel.bss .rel.bss.* .rel.gnu.linkonce.b.*)
                [!provide]                        PROVIDE (__rel_iplt_start = .)
 *(.rel.iplt)
                [!provide]                        PROVIDE (__rel_iplt_end = .)

.rela.dyn       0x0000000000400018        0x0
 *(.rela.init)
 *(.rela.text .rela.text.* .rela.gnu.linkonce.t.*)
 *(.rela.fini)
 *(.rela.rodata .rela.rodata.* .rela.gnu.linkonce.r.*)
 *(.rela.data .rela.data.* .rela.gnu.linkonce.d.*)
 *(.rela.tdata .rela.tdata.* .rela.gnu.linkonce.td.*)
 *(.rela.tbss .rela.tbss.* .rela.gnu.linkonce.tb.*)
 *(.rela.ctors)
 *(.rela.dtors)
 *(.rela.got)
 *(.rela.sdata .rela.sdata.* .rela.gnu.linkonce.s.*)
 *(.rela.sbss .rela.sbss.* .rela.gnu.linkonce.sb.*)
 *(.rela.sdata2 .rela.sdata2.* .rela.gnu.linkonce.s2.*)
 *(.rela.sbss2 .rela.sbss2.* .rela.gnu.linkonce.sb2.*)
 *(.rela.bss .rela.bss.* .rela.gnu.linkonce.b.*)
                [!provide]                        PROVIDE (__rela_iplt_start = .)
 *(.rela.iplt)
                [!provide]                        PROVIDE (__rela_iplt_end = .)

.rel.plt
 *(.rel.plt)

.rela.plt
 *(.rela.plt)

.init
 *(SORT_NONE(.init))

.plt
 *(.plt)

.iplt
 *(.iplt)

.text           0x0000000007000000        0x0
                0x0000000007000000                _ftext = .
 *(.text.unlikely .text.*_unlikely .text.unlikely.*)
 *(.text.exit .text.exit.*)
 *(.text.startup .text.startup.*)
 *(.text.hot .text.hot.*)
 *(SORT_BY_NAME(.text.sorted.*))
 *(.text .stub .text.* .gnu.linkonce.t.*)
 .text          0x0000000007000000        0x0 build/us/levels/vcutm/leveldata.o
 *(.gnu.warning)
 *(.mips16.fn.*)
 *(.mips16.call.*)

.fini
 *(SORT_NONE(.fini))
                [!provide]                        PROVIDE (__etext = .)
                [!provide]                        PROVIDE (_etext = .)
                [!provide]                        PROVIDE (etext = .)

.rodata
 *(.rodata .rodata.* .gnu.linkonce.r.*)

.rodata1
 *(.rodata1)

.sdata2
 *(.sdata2 .sdata2.* .gnu.linkonce.s2.*)

.sbss2
 *(.sbss2 .sbss2.* .gnu.linkonce.sb2.*)

.eh_frame_hdr
 *(.eh_frame_hdr)
 *(.eh_frame_entry .eh_frame_entry.*)

.eh_frame
 *(.eh_frame)
 *(.eh_frame.*)

.gcc_except_table
 *(.gcc_except_table .gcc_except_table.*)

.gnu_extab
 *(.gnu_extab*)

.exception_ranges
 *(.exception_ranges*)
                0x0000000007000000                . = DATA_SEGMENT_ALIGN (CONSTANT (MAXPAGESIZE), CONSTANT (COMMONPAGESIZE))

.eh_frame
 *(.eh_frame)
 *(.eh_frame.*)

.gnu_extab
 *(.gnu_extab)

.gcc_except_table
 *(.gcc_except_table .gcc_except_table.*)

.exception_ranges
 *(.exception_ranges*)

.tdata          0x0000000007000000        0x0
                [!provide]                        PROVIDE (__tdata_start = .)
 *(.tdata .tdata.* .gnu.linkonce.td.*)

.tbss
 *(.tbss .tbss.* .gnu.linkonce.tb.*)
 *(.tcommon)

.preinit_array  0x0000000007000000        0x0
                [!provide]                        PROVIDE (__preinit_array_start = .)
 *(.preinit_array)
                [!provide]                        PROVIDE (__preinit_array_end = .)

.init_array     0x0000000007000000        0x0
                [!provide]                        PROVIDE (__init_array_start = .)
 *(SORT_BY_INIT_PRIORITY(.init_array.*) SORT_BY_INIT_PRIORITY(.ctors.*))
 *(.init_array EXCLUDE_FILE(*crtend?.o *crtend.o *crtbegin?.o *crtbegin.o) .ctors)
                [!provide]                        PROVIDE (__init_array_end = .)

.fini_array     0x0000000007000000        0x0
                [!provide]                        PROVIDE (__fini_array_start = .)
 *(SORT_BY_INIT_PRIORITY(.fini_array.*) SORT_BY_INIT_PRIORITY(.dtors.*))
 *(.fini_array EXCLUDE_FILE(*crtend?.o *crtend.o *crtbegin?.o *crtbegin.o) .dtors)
                [!provide]                        PROVIDE (__fini_array_end = .)

.ctors
 *crtbegin.o(.ctors)
 *crtbegin?.o(.ctors)
 *(EXCLUDE_FILE(*crtend?.o *crtend.o) .ctors)
 *(SORT_BY_NAME(.ctors.*))
 *(.ctors)

.dtors
 *crtbegin.o(.dtors)
 *crtbegin?.o(.dtors)
 *(EXCLUDE_FILE(*crtend?.o *crtend.o) .dtors)
 *(SORT_BY_NAME(.dtors.*))
 *(.dtors)

.jcr
 *(.jcr)

.data.rel.ro
 *(.data.rel.ro.local* .gnu.linkonce.d.rel.ro.local.*)
 *(.data.rel.ro .data.rel.ro.* .gnu.linkonce.d.rel.ro.*)
                0x0000000007000000                . = DATA_SEGMENT_RELRO_END (., 0x0)

.data           0x0000000007000000    0x3aed6
                0x0000000007000000                _fdata = .
 *(.data .data.* .gnu.linkonce.d.*)
 .data          0x0000000007000000    0x3aed6 build/us/levels/vcutm/leveldata.o
                0x0000000007000000                cloud_material_revert_render_settings
                0x0000000007000040                cloud_Plane_001_mesh
                0x0000000007000060                mat_revert_cloud_sm64_material_001
                0x0000000007000080                mat_cloud_sm64_material_001
                0x0000000007000140                cloud_Plane_001_mesh_tri_0
                0x0000000007000260                cloud_Plane_001_mesh_vtx_0
                0x00000000070005e0                cloud_seamless_cloud_texture_3_by_xpm_ci4_pal_rgba16
                0x0000000007000600                cloud_seamless_cloud_texture_3_by_xpm_ci4_pal_rgba16_aligner
                0x0000000007000608                cloud_seamless_cloud_texture_3_by_xpm_ci4
                0x0000000007000e08                cloud_seamless_cloud_texture_3_by_xpm_ci4_aligner
                0x0000000007000e10                cloud_sm64_material_001_lights
                0x0000000007000e28                cloud_collision
                0x0000000007000e78                aircruise_collision
                0x0000000007001128                aircruise_anims
                0x0000000007001a18                aircruise_material_revert_render_settings
                0x0000000007001a58                aircruise_wwing2_r_mesh
                0x0000000007001a78                aircruise_wwing2_l_mesh
                0x0000000007001a98                aircruise_wing4_r_mesh
                0x0000000007001ab8                aircruise_wing4_l_mesh
                0x0000000007001ad8                aircruise_wing2_r_mesh
                0x0000000007001af8                aircruise_wing2_l_mesh
                0x0000000007001b18                aircruise_Bone_001_mesh
                0x0000000007001b38                aircruise_Bone_mesh
                0x0000000007001bb8                mat_revert_aircruise_mat3006_f3d
                0x0000000007001bd8                mat_aircruise_mat3006_f3d
                0x0000000007001c90                mat_revert_aircruise_mat3019_f3d
                0x0000000007001ca8                mat_aircruise_mat3019_f3d
                0x0000000007001d28                mat_revert_aircruise_mat3038_f3d
                0x0000000007001d40                mat_aircruise_mat3038_f3d
                0x0000000007001df0                mat_revert_aircruise_mat3037_f3d
                0x0000000007001e08                mat_aircruise_mat3037_f3d
                0x0000000007001eb8                mat_revert_aircruise_Shadow1_f3d
                0x0000000007001ed0                mat_aircruise_Shadow1_f3d
                0x0000000007001f50                mat_revert_aircruise_mat3020_f3d
                0x0000000007001f70                mat_aircruise_mat3020_f3d
                0x0000000007002028                mat_revert_aircruise_sm64_material
                0x0000000007002040                mat_aircruise_sm64_material
                0x0000000007002080                aircruise_wwing2_r_mesh_tri_0
                0x0000000007002098                aircruise_wwing2_r_mesh_vtx_0
                0x00000000070020d8                aircruise_wwing2_l_mesh_tri_0
                0x00000000070020f0                aircruise_wwing2_l_mesh_vtx_0
                0x0000000007002130                aircruise_wing4_r_mesh_tri_0
                0x0000000007002148                aircruise_wing4_r_mesh_vtx_0
                0x0000000007002188                aircruise_wing4_l_mesh_tri_0
                0x00000000070021a0                aircruise_wing4_l_mesh_vtx_0
                0x00000000070021e0                aircruise_wing2_r_mesh_tri_0
                0x00000000070021f8                aircruise_wing2_r_mesh_vtx_0
                0x0000000007002238                aircruise_wing2_l_mesh_tri_0
                0x0000000007002250                aircruise_wing2_l_mesh_vtx_0
                0x0000000007002290                aircruise_Bone_001_mesh_tri_0
                0x00000000070022c8                aircruise_Bone_001_mesh_vtx_0
                0x0000000007002388                aircruise_Bone_mesh_tri_4
                0x00000000070023b0                aircruise_Bone_mesh_vtx_4
                0x0000000007002490                aircruise_Bone_mesh_tri_3
                0x00000000070024d0                aircruise_Bone_mesh_vtx_3
                0x00000000070025d0                aircruise_Bone_mesh_tri_2
                0x0000000007002618                aircruise_Bone_mesh_vtx_2
                0x0000000007002728                aircruise_Bone_mesh_tri_1
                0x00000000070027e0                aircruise_Bone_mesh_vtx_1
                0x00000000070029a0                aircruise_Bone_mesh_tri_0
                0x0000000007002a40                aircruise_Bone_mesh_vtx_0
                0x0000000007002ca0                aircruise_GrdRCruiseShipHane_ci4_pal_rgba16
                0x0000000007002cc0                aircruise_GrdRCruiseShipHane_ci4_pal_rgba16_aligner
                0x0000000007002cc8                aircruise_GrdRCruiseShipHane_ci4
                0x00000000070034c8                aircruise_GrdRCruiseShipHane_ci4_aligner
                0x00000000070034d0                aircruise_GrdRCruiseShipSaku_ia4
                0x00000000070044d0                aircruise_GrdRCruiseShipSaku_ia4_aligner
                0x00000000070044d8                aircruise_GrdRCruiseShip0_ci8_pal_rgba16
                0x0000000007004538                aircruise_GrdRCruiseShip0_ci8_pal_rgba16_aligner
                0x0000000007004540                aircruise_GrdRCruiseShip0_ci8
                0x0000000007004740                aircruise_GrdRCruiseShip0_ci8_aligner
                0x0000000007004748                aircruise_GrdRCruiseShip1_ci4_pal_rgba16
                0x0000000007004768                aircruise_GrdRCruiseShip1_ci4_pal_rgba16_aligner
                0x0000000007004770                aircruise_GrdRCruiseShip1_ci4
                0x0000000007004f70                aircruise_GrdRCruiseShip1_ci4_aligner
                0x0000000007004f78                aircruise_withe_wood_texture_2_by_xpm_i4
                0x0000000007005f78                aircruise_withe_wood_texture_2_by_xpm_i4_aligner
                0x0000000007005f80                aircruise_GrdRCruiseShip00_ci4_pal_rgba16
                0x0000000007005fa0                aircruise_GrdRCruiseShip00_ci4_pal_rgba16_aligner
                0x0000000007005fa8                aircruise_GrdRCruiseShip00_ci4
                0x00000000070067a8                aircruise_GrdRCruiseShip00_ci4_aligner
                0x00000000070067b0                aircruise_mat3006_f3d_lights
                0x00000000070067c8                aircruise_mat3019_f3d_lights
                0x00000000070067e0                aircruise_mat3038_f3d_lights
                0x00000000070067f8                aircruise_mat3037_f3d_lights
                0x0000000007006810                aircruise_Shadow1_f3d_lights
                0x0000000007006828                aircruise_mat3020_f3d_lights
                0x0000000007006840                aircruise_sm64_material_lights
                0x0000000007006858                vcutm_dl_material_revert_render_settings
                0x0000000007006898                vcutm_dl_Plane_014_mesh
                0x0000000007006920                vcutm_dl_Plane_010_mesh
                0x0000000007006940                vcutm_dl_Plane_009_mesh
                0x00000000070069b0                vcutm_dl_Plane_008_mesh
                0x0000000007006a50                vcutm_dl_Plane_007_mesh
                0x0000000007006b20                vcutm_dl_Plane_006_mesh
                0x0000000007006b78                vcutm_dl_Plane_003_mesh
                0x0000000007006cb8                vcutm_dl_Cube_002_mesh
                0x0000000007006cd8                vcutm_dl_AAAAAAABackGround_003_mesh_layer_0
                0x0000000007006e60                mat_revert_vcutm_dl_sm64_material_009
                0x0000000007006e80                mat_vcutm_dl_sm64_material_009
                0x0000000007006f38                mat_revert_vcutm_dl_sm64_material_010
                0x0000000007006f58                mat_vcutm_dl_sm64_material_010
                0x0000000007007010                mat_revert_vcutm_dl_sm64_material_008
                0x0000000007007030                mat_vcutm_dl_sm64_material_008
                0x00000000070070e8                mat_revert_vcutm_dl_sm64_material_015
                0x0000000007007100                mat_vcutm_dl_sm64_material_015
                0x0000000007007188                mat_revert_vcutm_dl_sm64_material_029
                0x00000000070071a0                mat_vcutm_dl_sm64_material_029
                0x0000000007007220                mat_revert_vcutm_dl_sm64_material_028
                0x0000000007007240                mat_vcutm_dl_sm64_material_028
                0x00000000070072f8                mat_revert_vcutm_dl_sm64_material_016
                0x0000000007007318                mat_vcutm_dl_sm64_material_016
                0x00000000070073d0                mat_revert_vcutm_dl_sm64_material_014
                0x00000000070073f0                mat_vcutm_dl_sm64_material_014
                0x00000000070074a8                mat_revert_vcutm_dl_sm64_material_022
                0x00000000070074c8                mat_vcutm_dl_sm64_material_022
                0x0000000007007580                mat_revert_vcutm_dl_sm64_material_021
                0x00000000070075a0                mat_vcutm_dl_sm64_material_021
                0x0000000007007658                mat_revert_vcutm_dl_sm64_material_025
                0x0000000007007678                mat_vcutm_dl_sm64_material_025
                0x0000000007007730                mat_revert_vcutm_dl_sm64_material_026
                0x0000000007007750                mat_vcutm_dl_sm64_material_026
                0x0000000007007808                mat_revert_vcutm_dl_sm64_material_027
                0x0000000007007828                mat_vcutm_dl_sm64_material_027
                0x00000000070078e0                mat_revert_vcutm_dl_sm64_material_024
                0x0000000007007900                mat_vcutm_dl_sm64_material_024
                0x00000000070079b8                mat_revert_vcutm_dl_sm64_material_013
                0x00000000070079d8                mat_vcutm_dl_sm64_material_013
                0x0000000007007a90                mat_revert_vcutm_dl_sm64_material_017
                0x0000000007007ab0                mat_vcutm_dl_sm64_material_017
                0x0000000007007b68                mat_revert_vcutm_dl_sm64_material
                0x0000000007007b88                mat_vcutm_dl_sm64_material
                0x0000000007007c40                mat_revert_vcutm_dl_sm64_material_002
                0x0000000007007c60                mat_vcutm_dl_sm64_material_002
                0x0000000007007d18                mat_revert_vcutm_dl_sm64_material_012
                0x0000000007007d38                mat_vcutm_dl_sm64_material_012
                0x0000000007007df0                mat_revert_vcutm_dl_sm64_material_019
                0x0000000007007e10                mat_vcutm_dl_sm64_material_019
                0x0000000007007ec8                mat_revert_vcutm_dl_sm64_material_018
                0x0000000007007ee8                mat_vcutm_dl_sm64_material_018
                0x0000000007007fa0                mat_revert_vcutm_dl_sm64_material_006
                0x0000000007007fc0                mat_vcutm_dl_sm64_material_006
                0x0000000007008078                mat_revert_vcutm_dl_sm64_material_005
                0x0000000007008090                mat_vcutm_dl_sm64_material_005
                0x0000000007008110                mat_revert_vcutm_dl_sm64_material_042_v3_001
                0x0000000007008128                mat_vcutm_dl_sm64_material_042_v3_001
                0x0000000007008198                mat_revert_vcutm_dl_sm64_material_v3
                0x00000000070081b8                mat_vcutm_dl_sm64_material_v3
                0x0000000007008270                mat_revert_vcutm_dl_sm64_material_004
                0x0000000007008288                mat_vcutm_dl_sm64_material_004
                0x0000000007008308                mat_revert_vcutm_dl_sm64_material_001
                0x0000000007008328                mat_vcutm_dl_sm64_material_001
                0x00000000070083e8                mat_revert_vcutm_dl_sm64_material_007
                0x0000000007008408                mat_vcutm_dl_sm64_material_007
                0x00000000070084c0                mat_revert_vcutm_dl_f3d_material_016_layer0
                0x00000000070084e8                mat_vcutm_dl_f3d_material_016_layer0
                0x00000000070085a8                mat_revert_vcutm_dl_f3d_material_015_layer0
                0x00000000070085d0                mat_vcutm_dl_f3d_material_015_layer0
                0x0000000007008690                mat_revert_vcutm_dl_f3d_material_009_layer0
                0x00000000070086b8                mat_vcutm_dl_f3d_material_009_layer0
                0x0000000007008778                mat_revert_vcutm_dl_f3d_material_014_layer0
                0x00000000070087a0                mat_vcutm_dl_f3d_material_014_layer0
                0x0000000007008860                mat_revert_vcutm_dl_f3d_material_004_layer0
                0x0000000007008890                mat_vcutm_dl_f3d_material_004_layer0
                0x0000000007008958                mat_revert_vcutm_dl_f3d_material_013_layer0
                0x0000000007008980                mat_vcutm_dl_f3d_material_013_layer0
                0x0000000007008a40                mat_revert_vcutm_dl_f3d_material_011_layer0
                0x0000000007008a68                mat_vcutm_dl_f3d_material_011_layer0
                0x0000000007008b28                mat_revert_vcutm_dl_f3d_material_010_layer0
                0x0000000007008b50                mat_vcutm_dl_f3d_material_010_layer0
                0x0000000007008c10                mat_revert_vcutm_dl_f3d_material_002_layer0
                0x0000000007008c38                mat_vcutm_dl_f3d_material_002_layer0
                0x0000000007008cf8                mat_revert_vcutm_dl_f3d_material_003_layer0
                0x0000000007008d20                mat_vcutm_dl_f3d_material_003_layer0
                0x0000000007008de0                mat_revert_vcutm_dl_f3d_material_012_layer0
                0x0000000007008e08                mat_vcutm_dl_f3d_material_012_layer0
                0x0000000007008ec8                mat_revert_vcutm_dl_f3d_material_008_layer0
                0x0000000007008ef0                mat_vcutm_dl_f3d_material_008_layer0
                0x0000000007008fb0                mat_revert_vcutm_dl_f3d_material_017_layer0
                0x0000000007008fd8                mat_vcutm_dl_f3d_material_017_layer0
                0x0000000007009098                mat_revert_vcutm_dl_f3d_material_007_layer0
                0x00000000070090c0                mat_vcutm_dl_f3d_material_007_layer0
                0x0000000007009180                mat_revert_vcutm_dl_f3d_material_001_layer0
                0x00000000070091a0                mat_vcutm_dl_f3d_material_001_layer0
                0x0000000007009228                mat_revert_vcutm_dl_f3d_material_006_layer0
                0x0000000007009248                mat_vcutm_dl_f3d_material_006_layer0
                0x00000000070092d0                vcutm_dl_Plane_014_mesh_tri_3
                0x0000000007009300                vcutm_dl_Plane_014_mesh_vtx_3
                0x0000000007009390                vcutm_dl_Plane_014_mesh_tri_2
                0x00000000070093a8                vcutm_dl_Plane_014_mesh_vtx_2
                0x00000000070093e8                vcutm_dl_Plane_014_mesh_tri_1
                0x0000000007009418                vcutm_dl_Plane_014_mesh_vtx_1
                0x0000000007009498                vcutm_dl_Plane_014_mesh_tri_0
                0x0000000007009f40                vcutm_dl_Plane_014_mesh_vtx_0
                0x000000000700c470                vcutm_dl_Plane_014_mesh_vtx_cull
                0x000000000700c4f0                vcutm_dl_Plane_010_mesh_tri_0
                0x000000000700c868                vcutm_dl_Plane_010_mesh_vtx_0
                0x000000000700db48                vcutm_dl_Plane_009_mesh_tri_2
                0x000000000700dba8                vcutm_dl_Plane_009_mesh_vtx_2
                0x000000000700dcf8                vcutm_dl_Plane_009_mesh_tri_1
                0x000000000700dd68                vcutm_dl_Plane_009_mesh_vtx_1
                0x000000000700df48                vcutm_dl_Plane_009_mesh_tri_0
                0x000000000700e2e0                vcutm_dl_Plane_009_mesh_vtx_0
                0x000000000700eec0                vcutm_dl_Plane_009_mesh_vtx_cull
                0x000000000700ef40                vcutm_dl_Plane_008_mesh_tri_4
                0x000000000700ef60                vcutm_dl_Plane_008_mesh_vtx_4
                0x000000000700efe0                vcutm_dl_Plane_008_mesh_tri_3
                0x000000000700f038                vcutm_dl_Plane_008_mesh_vtx_3
                0x000000000700f128                vcutm_dl_Plane_008_mesh_tri_2
                0x000000000700f140                vcutm_dl_Plane_008_mesh_vtx_2
                0x000000000700f180                vcutm_dl_Plane_008_mesh_tri_1
                0x000000000700f1f0                vcutm_dl_Plane_008_mesh_vtx_1
                0x000000000700f330                vcutm_dl_Plane_008_mesh_tri_0
                0x000000000700f768                vcutm_dl_Plane_008_mesh_vtx_0
                0x00000000070106e8                vcutm_dl_Plane_008_mesh_vtx_cull
                0x0000000007010768                vcutm_dl_Plane_007_mesh_tri_6
                0x0000000007010820                vcutm_dl_Plane_007_mesh_vtx_6
                0x0000000007010b40                vcutm_dl_Plane_007_mesh_tri_5
                0x0000000007010b78                vcutm_dl_Plane_007_mesh_vtx_5
                0x0000000007010cb8                vcutm_dl_Plane_007_mesh_tri_4
                0x0000000007010d08                vcutm_dl_Plane_007_mesh_vtx_4
                0x0000000007010e08                vcutm_dl_Plane_007_mesh_tri_3
                0x0000000007010e38                vcutm_dl_Plane_007_mesh_vtx_3
                0x0000000007010f38                vcutm_dl_Plane_007_mesh_tri_2
                0x0000000007011058                vcutm_dl_Plane_007_mesh_vtx_2
                0x00000000070114b8                vcutm_dl_Plane_007_mesh_tri_1
                0x00000000070114d0                vcutm_dl_Plane_007_mesh_vtx_1
                0x0000000007011530                vcutm_dl_Plane_007_mesh_tri_0
                0x0000000007011c60                vcutm_dl_Plane_007_mesh_vtx_0
                0x00000000070135b0                vcutm_dl_Plane_007_mesh_vtx_cull
                0x0000000007013630                vcutm_dl_Plane_006_mesh_tri_1
                0x0000000007013670                vcutm_dl_Plane_006_mesh_vtx_1
                0x0000000007013770                vcutm_dl_Plane_006_mesh_tri_0
                0x0000000007013a88                vcutm_dl_Plane_006_mesh_vtx_0
                0x0000000007014168                vcutm_dl_Plane_006_mesh_vtx_cull
                0x00000000070141e8                vcutm_dl_Plane_003_mesh_tri_12
                0x0000000007014238                vcutm_dl_Plane_003_mesh_vtx_12
                0x0000000007014378                vcutm_dl_Plane_003_mesh_tri_11
                0x00000000070143c0                vcutm_dl_Plane_003_mesh_vtx_11
                0x0000000007014500                vcutm_dl_Plane_003_mesh_tri_10
                0x0000000007014570                vcutm_dl_Plane_003_mesh_vtx_10
                0x0000000007014760                vcutm_dl_Plane_003_mesh_tri_9
                0x00000000070147c0                vcutm_dl_Plane_003_mesh_vtx_9
                0x0000000007014990                vcutm_dl_Plane_003_mesh_tri_8
                0x00000000070149c0                vcutm_dl_Plane_003_mesh_vtx_8
                0x0000000007014ac0                vcutm_dl_Plane_003_mesh_tri_7
                0x0000000007014af0                vcutm_dl_Plane_003_mesh_vtx_7
                0x0000000007014bd0                vcutm_dl_Plane_003_mesh_tri_6
                0x0000000007014c30                vcutm_dl_Plane_003_mesh_vtx_6
                0x0000000007014d90                vcutm_dl_Plane_003_mesh_tri_5
                0x0000000007014df0                vcutm_dl_Plane_003_mesh_vtx_5
                0x0000000007014f70                vcutm_dl_Plane_003_mesh_tri_4
                0x0000000007015038                vcutm_dl_Plane_003_mesh_vtx_4
                0x00000000070153d8                vcutm_dl_Plane_003_mesh_tri_3
                0x0000000007015518                vcutm_dl_Plane_003_mesh_vtx_3
                0x0000000007016118                vcutm_dl_Plane_003_mesh_tri_2
                0x00000000070165d0                vcutm_dl_Plane_003_mesh_vtx_2
                0x0000000007017a80                vcutm_dl_Plane_003_mesh_tri_1
                0x0000000007017af0                vcutm_dl_Plane_003_mesh_vtx_1
                0x0000000007017cb0                vcutm_dl_Plane_003_mesh_tri_0
                0x00000000070183c8                vcutm_dl_Plane_003_mesh_vtx_0
                0x0000000007019d98                vcutm_dl_Cube_002_mesh_tri_0
                0x0000000007019e70                vcutm_dl_Cube_002_mesh_vtx_0
                0x000000000701a210                vcutm_dl_AAAAAAABackGround_003_mesh_layer_0_tri_15
                0x000000000701a238                vcutm_dl_AAAAAAABackGround_003_mesh_layer_0_vtx_15
                0x000000000701a2f8                vcutm_dl_AAAAAAABackGround_003_mesh_layer_0_tri_14
                0x000000000701a320                vcutm_dl_AAAAAAABackGround_003_mesh_layer_0_vtx_14
                0x000000000701a3e0                vcutm_dl_AAAAAAABackGround_003_mesh_layer_0_tri_13
                0x000000000701a408                vcutm_dl_AAAAAAABackGround_003_mesh_layer_0_vtx_13
                0x000000000701a4c8                vcutm_dl_AAAAAAABackGround_003_mesh_layer_0_tri_12
                0x000000000701a4f0                vcutm_dl_AAAAAAABackGround_003_mesh_layer_0_vtx_12
                0x000000000701a5b0                vcutm_dl_AAAAAAABackGround_003_mesh_layer_0_tri_11
                0x000000000701a638                vcutm_dl_AAAAAAABackGround_003_mesh_layer_0_vtx_11
                0x000000000701a8c8                vcutm_dl_AAAAAAABackGround_003_mesh_layer_0_tri_10
                0x000000000701a8f0                vcutm_dl_AAAAAAABackGround_003_mesh_layer_0_vtx_10
                0x000000000701a9b0                vcutm_dl_AAAAAAABackGround_003_mesh_layer_0_tri_9
                0x000000000701a9d8                vcutm_dl_AAAAAAABackGround_003_mesh_layer_0_vtx_9
                0x000000000701aa98                vcutm_dl_AAAAAAABackGround_003_mesh_layer_0_tri_8
                0x000000000701aac0                vcutm_dl_AAAAAAABackGround_003_mesh_layer_0_vtx_8
                0x000000000701ab80                vcutm_dl_AAAAAAABackGround_003_mesh_layer_0_tri_7
                0x000000000701ac08                vcutm_dl_AAAAAAABackGround_003_mesh_layer_0_vtx_7
                0x000000000701ae98                vcutm_dl_AAAAAAABackGround_003_mesh_layer_0_tri_6
                0x000000000701aec0                vcutm_dl_AAAAAAABackGround_003_mesh_layer_0_vtx_6
                0x000000000701af80                vcutm_dl_AAAAAAABackGround_003_mesh_layer_0_tri_5
                0x000000000701afa8                vcutm_dl_AAAAAAABackGround_003_mesh_layer_0_vtx_5
                0x000000000701b068                vcutm_dl_AAAAAAABackGround_003_mesh_layer_0_tri_4
                0x000000000701b090                vcutm_dl_AAAAAAABackGround_003_mesh_layer_0_vtx_4
                0x000000000701b150                vcutm_dl_AAAAAAABackGround_003_mesh_layer_0_tri_3
                0x000000000701b178                vcutm_dl_AAAAAAABackGround_003_mesh_layer_0_vtx_3
                0x000000000701b238                vcutm_dl_AAAAAAABackGround_003_mesh_layer_0_tri_2
                0x000000000701b260                vcutm_dl_AAAAAAABackGround_003_mesh_layer_0_vtx_2
                0x000000000701b320                vcutm_dl_AAAAAAABackGround_003_mesh_layer_0_tri_1
                0x000000000701b348                vcutm_dl_AAAAAAABackGround_003_mesh_layer_0_vtx_1
                0x000000000701b408                vcutm_dl_AAAAAAABackGround_003_mesh_layer_0_tri_0
                0x000000000701b430                vcutm_dl_AAAAAAABackGround_003_mesh_layer_0_vtx_0
                0x000000000701b4f0                vcutm_dl_GZLE01_e9122588_14_mip1_ci4_pal_rgba16
                0x000000000701b510                vcutm_dl_GZLE01_e9122588_14_mip1_ci4_pal_rgba16_aligner
                0x000000000701b518                vcutm_dl_GZLE01_e9122588_14_mip1_ci4
                0x000000000701bd18                vcutm_dl_GZLE01_e9122588_14_mip1_ci4_aligner
                0x000000000701bd20                vcutm_dl_GMSE01_89b6e3c2_14_ci4_pal_rgba16
                0x000000000701bd40                vcutm_dl_GMSE01_89b6e3c2_14_ci4_pal_rgba16_aligner
                0x000000000701bd48                vcutm_dl_GMSE01_89b6e3c2_14_ci4
                0x000000000701c548                vcutm_dl_GMSE01_89b6e3c2_14_ci4_aligner
                0x000000000701c550                vcutm_dl__0x4100_ci4_pal_rgba16
                0x000000000701c570                vcutm_dl__0x4100_ci4_pal_rgba16_aligner
                0x000000000701c578                vcutm_dl__0x4100_ci4
                0x000000000701cd78                vcutm_dl__0x4100_ci4_aligner
                0x000000000701cd80                vcutm_dl_SUPER_MARIO_64_BD4BA854_0_2_all_rgba32
                0x000000000701dd80                vcutm_dl_SUPER_MARIO_64_BD4BA854_0_2_all_rgba32_aligner
                0x000000000701dd88                vcutm_dl_GZLE01_80c2930c_14_i4
                0x000000000701ed88                vcutm_dl_GZLE01_80c2930c_14_i4_aligner
                0x000000000701ed90                vcutm_dl_lift_han_wood_ci8_pal_rgba16
                0x000000000701eee0                vcutm_dl_lift_han_wood_ci8_pal_rgba16_aligner
                0x000000000701eee8                vcutm_dl_lift_han_wood_ci8
                0x000000000701f2e8                vcutm_dl_lift_han_wood_ci8_aligner
                0x000000000701f2f0                vcutm_dl_Tex_0032_0_ci4_pal_rgba16
                0x000000000701f310                vcutm_dl_Tex_0032_0_ci4_pal_rgba16_aligner
                0x000000000701f318                vcutm_dl_Tex_0032_0_ci4
                0x000000000701fb18                vcutm_dl_Tex_0032_0_ci4_aligner
                0x000000000701fb20                vcutm_dl_walls_ci4_pal_rgba16
                0x000000000701fb40                vcutm_dl_walls_ci4_pal_rgba16_aligner
                0x000000000701fb48                vcutm_dl_walls_ci4
                0x0000000007020348                vcutm_dl_walls_ci4_aligner
                0x0000000007020350                vcutm_dl_brock_ki01_ci8_pal_rgba16
                0x0000000007020410                vcutm_dl_brock_ki01_ci8_pal_rgba16_aligner
                0x0000000007020418                vcutm_dl_brock_ki01_ci8
                0x0000000007020818                vcutm_dl_brock_ki01_ci8_aligner
                0x0000000007020820                vcutm_dl__0001EB00_32x32_rgba16_ci8_pal_rgba16
                0x0000000007020890                vcutm_dl__0001EB00_32x32_rgba16_ci8_pal_rgba16_aligner
                0x0000000007020898                vcutm_dl__0001EB00_32x32_rgba16_ci8
                0x0000000007020c98                vcutm_dl__0001EB00_32x32_rgba16_ci8_aligner
                0x0000000007020ca0                vcutm_dl_D003_1_Line02CI4_ci4_pal_rgba16
                0x0000000007020cc0                vcutm_dl_D003_1_Line02CI4_ci4_pal_rgba16_aligner
                0x0000000007020cc8                vcutm_dl_D003_1_Line02CI4_ci4
                0x00000000070214c8                vcutm_dl_D003_1_Line02CI4_ci4_aligner
                0x00000000070214d0                vcutm_dl_D101_cmn_Saku00_ci8_pal_rgba16
                0x00000000070216c0                vcutm_dl_D101_cmn_Saku00_ci8_pal_rgba16_aligner
                0x00000000070216c8                vcutm_dl_D101_cmn_Saku00_ci8
                0x0000000007021ec8                vcutm_dl_D101_cmn_Saku00_ci8_aligner
                0x0000000007021ed0                vcutm_dl_D101_cmn_Wall03_ci8_pal_rgba16
                0x0000000007022050                vcutm_dl_D101_cmn_Wall03_ci8_pal_rgba16_aligner
                0x0000000007022058                vcutm_dl_D101_cmn_Wall03_ci8
                0x0000000007022858                vcutm_dl_D101_cmn_Wall03_ci8_aligner
                0x0000000007022860                vcutm_dl_templ_feu_joayo02txy_ci4_pal_rgba16
                0x0000000007022880                vcutm_dl_templ_feu_joayo02txy_ci4_pal_rgba16_aligner
                0x0000000007022888                vcutm_dl_templ_feu_joayo02txy_ci4
                0x0000000007023088                vcutm_dl_templ_feu_joayo02txy_ci4_aligner
                0x0000000007023090                vcutm_dl_barukoni_wood_ci4_pal_rgba16
                0x00000000070230b0                vcutm_dl_barukoni_wood_ci4_pal_rgba16_aligner
                0x00000000070230b8                vcutm_dl_barukoni_wood_ci4
                0x00000000070238b8                vcutm_dl_barukoni_wood_ci4_aligner
                0x00000000070238c0                vcutm_dl__0x5140_ci4_pal_rgba16
                0x00000000070238e0                vcutm_dl__0x5140_ci4_pal_rgba16_aligner
                0x00000000070238e8                vcutm_dl__0x5140_ci4
                0x0000000007023ce8                vcutm_dl__0x5140_ci4_aligner
                0x0000000007023cf0                vcutm_dl_GALE01_2f9e7cc3_14_mip1_ci8_pal_rgba16
                0x0000000007023e68                vcutm_dl_GALE01_2f9e7cc3_14_mip1_ci8_pal_rgba16_aligner
                0x0000000007023e70                vcutm_dl_GALE01_2f9e7cc3_14_mip1_ci8
                0x0000000007024670                vcutm_dl_GALE01_2f9e7cc3_14_mip1_ci8_aligner
                0x0000000007024678                vcutm_dl_gardef_avbras02txyCI4_ci4_pal_rgba16
                0x0000000007024698                vcutm_dl_gardef_avbras02txyCI4_ci4_pal_rgba16_aligner
                0x00000000070246a0                vcutm_dl_gardef_avbras02txyCI4_ci4
                0x0000000007024ea0                vcutm_dl_gardef_avbras02txyCI4_ci4_aligner
                0x0000000007024ea8                vcutm_dl_gold_ci8_pal_rgba16
                0x0000000007024f58                vcutm_dl_gold_ci8_pal_rgba16_aligner
                0x0000000007024f60                vcutm_dl_gold_ci8
                0x0000000007025760                vcutm_dl_gold_ci8_aligner
                0x0000000007025768                vcutm_dl_GZLE01_d14ef2b2_14_ci4_pal_rgba16
                0x0000000007025788                vcutm_dl_GZLE01_d14ef2b2_14_ci4_pal_rgba16_aligner
                0x0000000007025790                vcutm_dl_GZLE01_d14ef2b2_14_ci4
                0x0000000007025f90                vcutm_dl_GZLE01_d14ef2b2_14_ci4_aligner
                0x0000000007025f98                vcutm_dl_ss_trim_3_ci4_ci4_pal_rgba16
                0x0000000007025fb8                vcutm_dl_ss_trim_3_ci4_ci4_pal_rgba16_aligner
                0x0000000007025fc0                vcutm_dl_ss_trim_3_ci4_ci4
                0x00000000070267c0                vcutm_dl_ss_trim_3_ci4_ci4_aligner
                0x00000000070267c8                vcutm_dl_Texture0159_RGB_ci8_pal_rgba16
                0x0000000007026860                vcutm_dl_Texture0159_RGB_ci8_pal_rgba16_aligner
                0x0000000007026868                vcutm_dl_Texture0159_RGB_ci8
                0x0000000007026c68                vcutm_dl_Texture0159_RGB_ci8_aligner
                0x0000000007026c70                vcutm_dl_D301_obj_floor_edge_C_1_rgba16
                0x0000000007027c70                vcutm_dl_D301_obj_floor_edge_C_1_rgba16_aligner
                0x0000000007027c78                vcutm_dl_Texture0117_RGB_greyscale_i8
                0x0000000007028078                vcutm_dl_Texture0117_RGB_greyscale_i8_aligner
                0x0000000007028080                vcutm_dl_tex_bridge_ci8_pal_rgba16
                0x0000000007028178                vcutm_dl_tex_bridge_ci8_pal_rgba16_aligner
                0x0000000007028180                vcutm_dl_tex_bridge_ci8
                0x0000000007028580                vcutm_dl_tex_bridge_ci8_aligner
                0x0000000007028588                vcutm_dl_stars_rgba16
                0x0000000007029588                vcutm_dl_stars_rgba16_aligner
                0x0000000007029590                vcutm_dl_seamless_cloud_texture_3_by_xpm_ci4_pal_rgba16
                0x00000000070295b0                vcutm_dl_seamless_cloud_texture_3_by_xpm_ci4_pal_rgba16_aligner
                0x00000000070295b8                vcutm_dl_seamless_cloud_texture_3_by_xpm_ci4
                0x0000000007029db8                vcutm_dl_seamless_cloud_texture_3_by_xpm_ci4_aligner
                0x0000000007029dc0                vcutm_dl_BRIDGEWALL_ci4_pal_rgba16
                0x0000000007029de0                vcutm_dl_BRIDGEWALL_ci4_pal_rgba16_aligner
                0x0000000007029de8                vcutm_dl_BRIDGEWALL_ci4
                0x000000000702a5e8                vcutm_dl_BRIDGEWALL_ci4_aligner
                0x000000000702a5f0                vcutm_dl_image_part_007_ci8_pal_rgba16
                0x000000000702a678                vcutm_dl_image_part_007_ci8_pal_rgba16_aligner
                0x000000000702a680                vcutm_dl_image_part_007_ci8
                0x000000000702ae80                vcutm_dl_image_part_007_ci8_aligner
                0x000000000702ae88                vcutm_dl_image_part_006_ci8_pal_rgba16
                0x000000000702af10                vcutm_dl_image_part_006_ci8_pal_rgba16_aligner
                0x000000000702af18                vcutm_dl_image_part_006_ci8
                0x000000000702b718                vcutm_dl_image_part_006_ci8_aligner
                0x000000000702b720                vcutm_dl_image_part_015_ci8_pal_rgba16
                0x000000000702b878                vcutm_dl_image_part_015_ci8_pal_rgba16_aligner
                0x000000000702b880                vcutm_dl_image_part_015_ci8
                0x000000000702c080                vcutm_dl_image_part_015_ci8_aligner
                0x000000000702c088                vcutm_dl_image_part_005_ci8_pal_rgba16
                0x000000000702c188                vcutm_dl_image_part_005_ci8_pal_rgba16_aligner
                0x000000000702c190                vcutm_dl_image_part_005_ci8
                0x000000000702c990                vcutm_dl_image_part_005_ci8_aligner
                0x000000000702c998                vcutm_dl_image_part_011_ci8_pal_rgba16
                0x000000000702cb88                vcutm_dl_image_part_011_ci8_pal_rgba16_aligner
                0x000000000702cb90                vcutm_dl_image_part_011_ci8
                0x000000000702d390                vcutm_dl_image_part_011_ci8_aligner
                0x000000000702d398                vcutm_dl_image_part_004_ci8_pal_rgba16
                0x000000000702d448                vcutm_dl_image_part_004_ci8_pal_rgba16_aligner
                0x000000000702d450                vcutm_dl_image_part_004_ci8
                0x000000000702dc50                vcutm_dl_image_part_004_ci8_aligner
                0x000000000702dc58                vcutm_dl_image_part_002_ci8_pal_rgba16
                0x000000000702dcc8                vcutm_dl_image_part_002_ci8_pal_rgba16_aligner
                0x000000000702dcd0                vcutm_dl_image_part_002_ci8
                0x000000000702e4d0                vcutm_dl_image_part_002_ci8_aligner
                0x000000000702e4d8                vcutm_dl_image_part_016_ci8_pal_rgba16
                0x000000000702e6a8                vcutm_dl_image_part_016_ci8_pal_rgba16_aligner
                0x000000000702e6b0                vcutm_dl_image_part_016_ci8
                0x000000000702eeb0                vcutm_dl_image_part_016_ci8_aligner
                0x000000000702eeb8                vcutm_dl_image_part_001_ci8_pal_rgba16
                0x000000000702ef18                vcutm_dl_image_part_001_ci8_pal_rgba16_aligner
                0x000000000702ef20                vcutm_dl_image_part_001_ci8
                0x000000000702f720                vcutm_dl_image_part_001_ci8_aligner
                0x000000000702f728                vcutm_dl_image_part_010_ci8_pal_rgba16
                0x000000000702f8d0                vcutm_dl_image_part_010_ci8_pal_rgba16_aligner
                0x000000000702f8d8                vcutm_dl_image_part_010_ci8
                0x00000000070300d8                vcutm_dl_image_part_010_ci8_aligner
                0x00000000070300e0                vcutm_dl_image_part_003_ci8_pal_rgba16
                0x0000000007030188                vcutm_dl_image_part_003_ci8_pal_rgba16_aligner
                0x0000000007030190                vcutm_dl_image_part_003_ci8
                0x0000000007030990                vcutm_dl_image_part_003_ci8_aligner
                0x0000000007030998                vcutm_dl_image_part_014_ci8_pal_rgba16
                0x0000000007030b58                vcutm_dl_image_part_014_ci8_pal_rgba16_aligner
                0x0000000007030b60                vcutm_dl_image_part_014_ci8
                0x0000000007031360                vcutm_dl_image_part_014_ci8_aligner
                0x0000000007031368                vcutm_dl_image_part_008_ci8_pal_rgba16
                0x00000000070313f8                vcutm_dl_image_part_008_ci8_pal_rgba16_aligner
                0x0000000007031400                vcutm_dl_image_part_008_ci8
                0x0000000007031c00                vcutm_dl_image_part_008_ci8_aligner
                0x0000000007031c08                vcutm_dl_image_part_013_ci8_pal_rgba16
                0x0000000007031dc8                vcutm_dl_image_part_013_ci8_pal_rgba16_aligner
                0x0000000007031dd0                vcutm_dl_image_part_013_ci8
                0x00000000070325d0                vcutm_dl_image_part_013_ci8_aligner
                0x00000000070325d8                vcutm_dl_image_part_009_rgba16
                0x00000000070335d8                vcutm_dl_image_part_009_rgba16_aligner
                0x00000000070335e0                vcutm_dl_image_part_012_rgba16
                0x00000000070345e0                vcutm_dl_image_part_012_rgba16_aligner
                0x00000000070345e8                vcutm_dl_sm64_material_009_lights
                0x0000000007034600                vcutm_dl_sm64_material_010_lights
                0x0000000007034618                vcutm_dl_sm64_material_008_lights
                0x0000000007034630                vcutm_dl_sm64_material_015_lights
                0x0000000007034648                vcutm_dl_sm64_material_029_lights
                0x0000000007034660                vcutm_dl_sm64_material_028_lights
                0x0000000007034678                vcutm_dl_sm64_material_016_lights
                0x0000000007034690                vcutm_dl_sm64_material_014_lights
                0x00000000070346a8                vcutm_dl_sm64_material_022_lights
                0x00000000070346c0                vcutm_dl_sm64_material_021_lights
                0x00000000070346d8                vcutm_dl_sm64_material_025_lights
                0x00000000070346f0                vcutm_dl_sm64_material_026_lights
                0x0000000007034708                vcutm_dl_sm64_material_027_lights
                0x0000000007034720                vcutm_dl_sm64_material_024_lights
                0x0000000007034738                vcutm_dl_sm64_material_013_lights
                0x0000000007034750                vcutm_dl_sm64_material_017_lights
                0x0000000007034768                vcutm_dl_sm64_material_lights
                0x0000000007034780                vcutm_dl_sm64_material_002_lights
                0x0000000007034798                vcutm_dl_sm64_material_012_lights
                0x00000000070347b0                vcutm_dl_sm64_material_019_lights
                0x00000000070347c8                vcutm_dl_sm64_material_018_lights
                0x00000000070347e0                vcutm_dl_sm64_material_006_lights
                0x00000000070347f8                vcutm_dl_sm64_material_005_lights
                0x0000000007034810                vcutm_dl_sm64_material_v3_lights
                0x0000000007034828                vcutm_dl_sm64_material_004_lights
                0x0000000007034840                vcutm_dl_sm64_material_001_lights
                0x0000000007034858                vcutm_dl_sm64_material_007_lights
                0x0000000007034870                vcutm_dl_f3d_material_016_layer0_lights
                0x0000000007034888                vcutm_dl_f3d_material_015_layer0_lights
                0x00000000070348a0                vcutm_dl_f3d_material_009_layer0_lights
                0x00000000070348b8                vcutm_dl_f3d_material_014_layer0_lights
                0x00000000070348d0                vcutm_dl_f3d_material_004_layer0_lights
                0x00000000070348e8                vcutm_dl_f3d_material_013_layer0_lights
                0x0000000007034900                vcutm_dl_f3d_material_011_layer0_lights
                0x0000000007034918                vcutm_dl_f3d_material_010_layer0_lights
                0x0000000007034930                vcutm_dl_f3d_material_002_layer0_lights
                0x0000000007034948                vcutm_dl_f3d_material_003_layer0_lights
                0x0000000007034960                vcutm_dl_f3d_material_012_layer0_lights
                0x0000000007034978                vcutm_dl_f3d_material_008_layer0_lights
                0x0000000007034990                vcutm_dl_f3d_material_017_layer0_lights
                0x00000000070349a8                vcutm_dl_f3d_material_007_layer0_lights
                0x00000000070349c0                vcutm_dl_f3d_material_001_layer0_lights
                0x00000000070349d8                vcutm_dl_f3d_material_006_layer0_lights
                0x00000000070349f0                vcutm_area_1_spline_ship_path_001
                0x0000000007034a44                vcutm_area_1_macro_objs
                0x0000000007034a48                vcutm_area_1_collision

.data1
 *(.data1)

.got.plt
 *(.got.plt)
                0x000000000703aed6                . = .
                0x0000000007042ed0                _gp = (ALIGN (0x10) + 0x7ff0)

.got
 *(.got)

.sdata
 *(.sdata .sdata.* .gnu.linkonce.s.*)

.lit8
 *(.lit8)

.lit4
 *(.lit4)
                0x000000000703aed6                _edata = .
                [!provide]                        PROVIDE (edata = .)
                0x000000000703aed6                . = .
                0x000000000703aed6                __bss_start = .
                0x000000000703aed6                _fbss = .

.sbss
 *(.dynsbss)
 *(.sbss .sbss.* .gnu.linkonce.sb.*)
 *(.scommon)

.bss            0x000000000703aed6        0x0
 *(.dynbss)
 *(.bss .bss.* .gnu.linkonce.b.*)
 .bss           0x000000000703aed6        0x0 build/us/levels/vcutm/leveldata.o
 *(COMMON)
                0x000000000703aed6                . = ALIGN ((. != 0x0)?0x4:0x1)
                0x000000000703aed8                . = ALIGN (0x4)
                0x000000000703aed8                . = SEGMENT_START ("ldata-segment", .)
                0x000000000703aed8                . = ALIGN (0x4)
                0x000000000703aed8                _end = .
                [!provide]                        PROVIDE (end = .)
                0x000000000703aed8                . = DATA_SEGMENT_END (.)

.stab
 *(.stab)

.stabstr
 *(.stabstr)

.stab.excl
 *(.stab.excl)

.stab.exclstr
 *(.stab.exclstr)

.stab.index
 *(.stab.index)

.stab.indexstr
 *(.stab.indexstr)

.comment        0x0000000000000000       0x12
 *(.comment)
 .comment       0x0000000000000000       0x12 build/us/levels/vcutm/leveldata.o
                                         0x13 (size before relaxing)

.pdr            0x0000000000000000        0x0
 .pdr           0x0000000000000000        0x0 build/us/levels/vcutm/leveldata.o

.gnu.build.attributes
 *(.gnu.build.attributes .gnu.build.attributes.*)

.debug
 *(.debug)

.line
 *(.line)

.debug_srcinfo
 *(.debug_srcinfo)

.debug_sfnames
 *(.debug_sfnames)

.debug_aranges
 *(.debug_aranges)

.debug_pubnames
 *(.debug_pubnames)

.debug_info
 *(.debug_info .gnu.linkonce.wi.*)

.debug_abbrev
 *(.debug_abbrev)

.debug_line
 *(.debug_line .debug_line.* .debug_line_end)

.debug_frame
 *(.debug_frame)

.debug_str
 *(.debug_str)

.debug_loc
 *(.debug_loc)

.debug_macinfo
 *(.debug_macinfo)

.debug_weaknames
 *(.debug_weaknames)

.debug_funcnames
 *(.debug_funcnames)

.debug_typenames
 *(.debug_typenames)

.debug_varnames
 *(.debug_varnames)

.debug_pubtypes
 *(.debug_pubtypes)

.debug_ranges
 *(.debug_ranges)

.debug_addr
 *(.debug_addr)

.debug_line_str
 *(.debug_line_str)

.debug_loclists
 *(.debug_loclists)

.debug_macro
 *(.debug_macro)

.debug_names
 *(.debug_names)

.debug_rnglists
 *(.debug_rnglists)

.debug_str_offsets
 *(.debug_str_offsets)

.debug_sup
 *(.debug_sup)

.gnu.attributes
                0x0000000000000000       0x10
 *(.gnu.attributes)
 .gnu.attributes
                0x0000000000000000       0x10 build/us/levels/vcutm/leveldata.o

.gptab.sdata
 *(.gptab.data)
 *(.gptab.sdata)

.gptab.sbss
 *(.gptab.bss)
 *(.gptab.sbss)

.mdebug.abi32   0x0000000000000000        0x0
 *(.mdebug.abi32)
 .mdebug.abi32  0x0000000000000000        0x0 build/us/levels/vcutm/leveldata.o

.mdebug.abiN32
 *(.mdebug.abiN32)

.mdebug.abi64
 *(.mdebug.abi64)

.mdebug.abiO64
 *(.mdebug.abiO64)

.mdebug.eabi32
 *(.mdebug.eabi32)

.mdebug.eabi64
 *(.mdebug.eabi64)

.gcc_compiled_long32
 *(.gcc_compiled_long32)

.gcc_compiled_long64
 *(.gcc_compiled_long64)

/DISCARD/
 *(.note.GNU-stack)
 *(.gnu_debuglink)
 *(.gnu.lto_*)
OUTPUT(build/us/levels/vcutm/leveldata.elf elf32-bigmips)
