
Memory Configuration

Name             Origin             Length             Attributes
*default*        0x0000000000000000 0xffffffffffffffff

Linker script and memory map

Address of section .text set to 0x7000000
LOAD build/us/bin/grass.elf
LOAD build/us/levels/wf/leveldata.o
                [!provide]                        PROVIDE (__executable_start = SEGMENT_START ("text-segment", 0x400000))
                0x0000000000400000                . = SEGMENT_START ("text-segment", 0x400000)

.interp
 *(.interp)

.MIPS.abiflags  0x0000000000400000       0x18
 *(.MIPS.abiflags)
 .MIPS.abiflags
                0x0000000000400000       0x18 build/us/levels/wf/leveldata.o

.reginfo        0x0000000000400018       0x18
 *(.reginfo)
 .reginfo       0x0000000000400018       0x18 build/us/levels/wf/leveldata.o

.MIPS.xhash
 *(.MIPS.xhash)

.note.gnu.build-id
 *(.note.gnu.build-id)

.dynamic
 *(.dynamic)

.hash
 *(.hash)

.gnu.hash
 *(.gnu.hash)

.dynsym
 *(.dynsym)

.dynstr
 *(.dynstr)

.gnu.version
 *(.gnu.version)

.gnu.version_d
 *(.gnu.version_d)

.gnu.version_r
 *(.gnu.version_r)

.rel.dyn        0x0000000000400018        0x0
 *(.rel.init)
 *(.rel.text .rel.text.* .rel.gnu.linkonce.t.*)
 *(.rel.fini)
 *(.rel.rodata .rel.rodata.* .rel.gnu.linkonce.r.*)
 *(.rel.data.rel.ro .rel.data.rel.ro.* .rel.gnu.linkonce.d.rel.ro.*)
 *(.rel.data .rel.data.* .rel.gnu.linkonce.d.*)
 *(.rel.tdata .rel.tdata.* .rel.gnu.linkonce.td.*)
 *(.rel.tbss .rel.tbss.* .rel.gnu.linkonce.tb.*)
 *(.rel.ctors)
 *(.rel.dtors)
 *(.rel.got)
 *(.rel.dyn)
 .rel.dyn       0x0000000000400018        0x0 build/us/levels/wf/leveldata.o
 *(.rel.sdata .rel.sdata.* .rel.gnu.linkonce.s.*)
 *(.rel.sbss .rel.sbss.* .rel.gnu.linkonce.sb.*)
 *(.rel.sdata2 .rel.sdata2.* .rel.gnu.linkonce.s2.*)
 *(.rel.sbss2 .rel.sbss2.* .rel.gnu.linkonce.sb2.*)
 *(.rel.bss .rel.bss.* .rel.gnu.linkonce.b.*)
                [!provide]                        PROVIDE (__rel_iplt_start = .)
 *(.rel.iplt)
                [!provide]                        PROVIDE (__rel_iplt_end = .)

.rela.dyn       0x0000000000400018        0x0
 *(.rela.init)
 *(.rela.text .rela.text.* .rela.gnu.linkonce.t.*)
 *(.rela.fini)
 *(.rela.rodata .rela.rodata.* .rela.gnu.linkonce.r.*)
 *(.rela.data .rela.data.* .rela.gnu.linkonce.d.*)
 *(.rela.tdata .rela.tdata.* .rela.gnu.linkonce.td.*)
 *(.rela.tbss .rela.tbss.* .rela.gnu.linkonce.tb.*)
 *(.rela.ctors)
 *(.rela.dtors)
 *(.rela.got)
 *(.rela.sdata .rela.sdata.* .rela.gnu.linkonce.s.*)
 *(.rela.sbss .rela.sbss.* .rela.gnu.linkonce.sb.*)
 *(.rela.sdata2 .rela.sdata2.* .rela.gnu.linkonce.s2.*)
 *(.rela.sbss2 .rela.sbss2.* .rela.gnu.linkonce.sb2.*)
 *(.rela.bss .rela.bss.* .rela.gnu.linkonce.b.*)
                [!provide]                        PROVIDE (__rela_iplt_start = .)
 *(.rela.iplt)
                [!provide]                        PROVIDE (__rela_iplt_end = .)

.rel.plt
 *(.rel.plt)

.rela.plt
 *(.rela.plt)

.init
 *(SORT_NONE(.init))

.plt
 *(.plt)

.iplt
 *(.iplt)

.text           0x0000000007000000        0x0
                0x0000000007000000                _ftext = .
 *(.text.unlikely .text.*_unlikely .text.unlikely.*)
 *(.text.exit .text.exit.*)
 *(.text.startup .text.startup.*)
 *(.text.hot .text.hot.*)
 *(SORT_BY_NAME(.text.sorted.*))
 *(.text .stub .text.* .gnu.linkonce.t.*)
 .text          0x0000000007000000        0x0 build/us/levels/wf/leveldata.o
 *(.gnu.warning)
 *(.mips16.fn.*)
 *(.mips16.call.*)

.fini
 *(SORT_NONE(.fini))
                [!provide]                        PROVIDE (__etext = .)
                [!provide]                        PROVIDE (_etext = .)
                [!provide]                        PROVIDE (etext = .)

.rodata
 *(.rodata .rodata.* .gnu.linkonce.r.*)

.rodata1
 *(.rodata1)

.sdata2
 *(.sdata2 .sdata2.* .gnu.linkonce.s2.*)

.sbss2
 *(.sbss2 .sbss2.* .gnu.linkonce.sb2.*)

.eh_frame_hdr
 *(.eh_frame_hdr)
 *(.eh_frame_entry .eh_frame_entry.*)

.eh_frame
 *(.eh_frame)
 *(.eh_frame.*)

.gcc_except_table
 *(.gcc_except_table .gcc_except_table.*)

.gnu_extab
 *(.gnu_extab*)

.exception_ranges
 *(.exception_ranges*)
                0x0000000007000000                . = DATA_SEGMENT_ALIGN (CONSTANT (MAXPAGESIZE), CONSTANT (COMMONPAGESIZE))

.eh_frame
 *(.eh_frame)
 *(.eh_frame.*)

.gnu_extab
 *(.gnu_extab)

.gcc_except_table
 *(.gcc_except_table .gcc_except_table.*)

.exception_ranges
 *(.exception_ranges*)

.tdata          0x0000000007000000        0x0
                [!provide]                        PROVIDE (__tdata_start = .)
 *(.tdata .tdata.* .gnu.linkonce.td.*)

.tbss
 *(.tbss .tbss.* .gnu.linkonce.tb.*)
 *(.tcommon)

.preinit_array  0x0000000007000000        0x0
                [!provide]                        PROVIDE (__preinit_array_start = .)
 *(.preinit_array)
                [!provide]                        PROVIDE (__preinit_array_end = .)

.init_array     0x0000000007000000        0x0
                [!provide]                        PROVIDE (__init_array_start = .)
 *(SORT_BY_INIT_PRIORITY(.init_array.*) SORT_BY_INIT_PRIORITY(.ctors.*))
 *(.init_array EXCLUDE_FILE(*crtend?.o *crtend.o *crtbegin?.o *crtbegin.o) .ctors)
                [!provide]                        PROVIDE (__init_array_end = .)

.fini_array     0x0000000007000000        0x0
                [!provide]                        PROVIDE (__fini_array_start = .)
 *(SORT_BY_INIT_PRIORITY(.fini_array.*) SORT_BY_INIT_PRIORITY(.dtors.*))
 *(.fini_array EXCLUDE_FILE(*crtend?.o *crtend.o *crtbegin?.o *crtbegin.o) .dtors)
                [!provide]                        PROVIDE (__fini_array_end = .)

.ctors
 *crtbegin.o(.ctors)
 *crtbegin?.o(.ctors)
 *(EXCLUDE_FILE(*crtend?.o *crtend.o) .ctors)
 *(SORT_BY_NAME(.ctors.*))
 *(.ctors)

.dtors
 *crtbegin.o(.dtors)
 *crtbegin?.o(.dtors)
 *(EXCLUDE_FILE(*crtend?.o *crtend.o) .dtors)
 *(SORT_BY_NAME(.dtors.*))
 *(.dtors)

.jcr
 *(.jcr)

.data.rel.ro
 *(.data.rel.ro.local* .gnu.linkonce.d.rel.ro.local.*)
 *(.data.rel.ro .data.rel.ro.* .gnu.linkonce.d.rel.ro.*)
                0x0000000007000000                . = DATA_SEGMENT_RELRO_END (., 0x0)

.data           0x0000000007000000    0xaec86
                0x0000000007000000                _fdata = .
 *(.data .data.* .gnu.linkonce.d.*)
 .data          0x0000000007000000    0xaec86 build/us/levels/wf/leveldata.o
                0x0000000007000000                bigUnagi_anims
                0x0000000007004db8                bigUnagi_material_revert_render_settings
                0x0000000007004df8                bigUnagi_003_offset_mesh_layer_1
                0x0000000007004e20                bigUnagi_003_offset_skinned_mesh_layer_1
                0x0000000007004e40                bigUnagi_001_offset_mesh_layer_1
                0x0000000007004e60                bigUnagi_000_offset_005_mesh_layer_1
                0x0000000007004e80                bigUnagi_000_offset_005_skinned_mesh_layer_1
                0x0000000007004ea0                bigUnagi_000_offset_004_mesh_layer_1
                0x0000000007004ed8                bigUnagi_000_offset_004_skinned_mesh_layer_1
                0x0000000007004ef8                bigUnagi_000_offset_003_mesh_layer_1
                0x0000000007004f18                bigUnagi_000_offset_003_skinned_mesh_layer_1
                0x0000000007004f38                bigUnagi_000_offset_002_mesh_layer_1
                0x0000000007004f58                bigUnagi_000_offset_002_skinned_mesh_layer_1
                0x0000000007004f78                mat_revert_bigUnagi_f3d_material
                0x0000000007004f90                mat_bigUnagi_f3d_material
                0x0000000007005030                mat_revert_bigUnagi_f3d_material_002
                0x0000000007005048                mat_bigUnagi_f3d_material_002
                0x00000000070050e8                mat_revert_bigUnagi_f3d_material_001
                0x0000000007005100                mat_bigUnagi_f3d_material_001
                0x00000000070051a0                bigUnagi_003_offset_mesh_layer_1_tri_1
                0x0000000007005218                bigUnagi_003_offset_mesh_layer_1_vtx_1
                0x00000000070053b8                bigUnagi_003_offset_mesh_layer_1_tri_0
                0x00000000070053f8                bigUnagi_003_offset_mesh_layer_1_vtx_0
                0x0000000007005458                bigUnagi_003_offset_skinned_mesh_layer_1_tri_0
                0x0000000007005468                bigUnagi_003_offset_skinned_mesh_layer_1_vtx_0
                0x00000000070054b8                bigUnagi_001_offset_mesh_layer_1_tri_0
                0x0000000007005518                bigUnagi_001_offset_mesh_layer_1_vtx_0
                0x0000000007005658                bigUnagi_000_offset_005_mesh_layer_1_tri_0
                0x0000000007005690                bigUnagi_000_offset_005_mesh_layer_1_vtx_0
                0x00000000070056e0                bigUnagi_000_offset_005_skinned_mesh_layer_1_tri_0
                0x00000000070056f0                bigUnagi_000_offset_005_skinned_mesh_layer_1_vtx_0
                0x0000000007005730                bigUnagi_000_offset_004_mesh_layer_1_tri_1
                0x0000000007005760                bigUnagi_000_offset_004_mesh_layer_1_vtx_1
                0x00000000070057d0                bigUnagi_000_offset_004_mesh_layer_1_tri_0
                0x0000000007005800                bigUnagi_000_offset_004_mesh_layer_1_vtx_0
                0x0000000007005840                bigUnagi_000_offset_004_skinned_mesh_layer_1_tri_0
                0x0000000007005850                bigUnagi_000_offset_004_skinned_mesh_layer_1_vtx_0
                0x0000000007005890                bigUnagi_000_offset_003_mesh_layer_1_tri_0
                0x00000000070058c0                bigUnagi_000_offset_003_mesh_layer_1_vtx_0
                0x0000000007005900                bigUnagi_000_offset_003_skinned_mesh_layer_1_tri_0
                0x0000000007005910                bigUnagi_000_offset_003_skinned_mesh_layer_1_vtx_0
                0x0000000007005960                bigUnagi_000_offset_002_mesh_layer_1_tri_0
                0x0000000007005990                bigUnagi_000_offset_002_mesh_layer_1_vtx_0
                0x00000000070059d0                bigUnagi_000_offset_002_skinned_mesh_layer_1_tri_0
                0x00000000070059e0                bigUnagi_000_offset_002_skinned_mesh_layer_1_vtx_0
                0x0000000007005a20                bigUnagi__0500B920_ci8_pal_rgba16
                0x0000000007005b20                bigUnagi__0500B920_ci8_pal_rgba16_aligner
                0x0000000007005b28                bigUnagi__0500B920_ci8
                0x0000000007005f28                bigUnagi__0500B920_ci8_aligner
                0x0000000007005f30                bigUnagi__0500C3A0_ci8_pal_rgba16
                0x0000000007005ff8                bigUnagi__0500C3A0_ci8_pal_rgba16_aligner
                0x0000000007006000                bigUnagi__0500C3A0_ci8
                0x0000000007006400                bigUnagi__0500C3A0_ci8_aligner
                0x0000000007006408                bigUnagi__0500AF20_ci8_pal_rgba16
                0x0000000007006490                bigUnagi__0500AF20_ci8_pal_rgba16_aligner
                0x0000000007006498                bigUnagi__0500AF20_ci8
                0x0000000007006898                bigUnagi__0500AF20_ci8_aligner
                0x00000000070068a0                breakingblock_collision
                0x0000000007006908                breakingblock_material_revert_render_settings
                0x0000000007006948                breakingblock_Transparent_mesh_layer_6
                0x0000000007006968                breakingblock_Circle_030_mesh_layer_1
                0x0000000007006988                mat_revert_breakingblock_f3d_material
                0x00000000070069a0                mat_breakingblock_f3d_material
                0x0000000007006a08                mat_revert_breakingblock_f3d_material_007
                0x0000000007006a20                mat_breakingblock_f3d_material_007
                0x0000000007006aa0                breakingblock_Transparent_mesh_layer_6_tri_0
                0x0000000007006ac8                breakingblock_Transparent_mesh_layer_6_vtx_0
                0x0000000007006b48                breakingblock_Circle_030_mesh_layer_1_tri_0
                0x0000000007006b70                breakingblock_Circle_030_mesh_layer_1_vtx_0
                0x0000000007006bf0                breakingblock_EConvex_0004_tex_i8
                0x0000000007007bf0                breakingblock_EConvex_0004_tex_i8_aligner
                0x0000000007007bf8                breakingblock_ruinsstone00_s_spc_i8
                0x0000000007008bf8                breakingblock_ruinsstone00_s_spc_i8_aligner
                0x0000000007008c00                breakingblock_f3d_material_007_lights
                0x0000000007008c18                bombwall_collision
                0x0000000007008c50                bombwall_material_revert_render_settings
                0x0000000007008c90                bombwall_Icosphere_mesh_layer_1
                0x0000000007008cb0                mat_revert_bombwall_sm64_material_002_v4
                0x0000000007008cd0                mat_bombwall_sm64_material_002_v4
                0x0000000007008d88                bombwall_Icosphere_mesh_layer_1_tri_0
                0x0000000007008df0                bombwall_Icosphere_mesh_layer_1_vtx_0
                0x0000000007008f80                bombwall_garekici4_ci4_pal_rgba16
                0x0000000007008fa0                bombwall_garekici4_ci4_pal_rgba16_aligner
                0x0000000007008fa8                bombwall_garekici4_ci4
                0x00000000070097a8                bombwall_garekici4_ci4_aligner
                0x00000000070097b0                bombwall_sm64_material_002_v4_lights
                0x00000000070097c8                fireturretbase_collision
                0x0000000007009878                fireturretbase_material_revert_render_settings
                0x00000000070098b8                fireturretbase_Circle_mesh_layer_1
                0x00000000070098f8                mat_revert_fireturretbase_f3d_material_004
                0x0000000007009918                mat_fireturretbase_f3d_material_004
                0x00000000070099d0                fireturretbase_Circle_mesh_layer_1_tri_0
                0x0000000007009a20                fireturretbase_Circle_mesh_layer_1_vtx_0
                0x0000000007009b40                fireturretbase_Circle_mesh_layer_1_vtx_cull
                0x0000000007009bc0                fireturretbase_Dark_Metallic_1_ci8_pal_rgba16
                0x0000000007009c40                fireturretbase_Dark_Metallic_1_ci8_pal_rgba16_aligner
                0x0000000007009c48                fireturretbase_Dark_Metallic_1_ci8
                0x000000000700a048                fireturretbase_Dark_Metallic_1_ci8_aligner
                0x000000000700a050                fireturretbase_f3d_material_004_lights
                0x000000000700a068                fireturret_collision
                0x000000000700a108                fireturret_material_revert_render_settings
                0x000000000700a148                fireturret_Circle_001_mesh_layer_1
                0x000000000700a1a0                mat_revert_fireturret_f3d_material_005
                0x000000000700a1c0                mat_fireturret_f3d_material_005
                0x000000000700a278                mat_revert_fireturret_f3d_material_006
                0x000000000700a298                mat_fireturret_f3d_material_006
                0x000000000700a350                fireturret_Circle_001_mesh_layer_1_tri_1
                0x000000000700a370                fireturret_Circle_001_mesh_layer_1_vtx_1
                0x000000000700a3c0                fireturret_Circle_001_mesh_layer_1_tri_0
                0x000000000700a3f8                fireturret_Circle_001_mesh_layer_1_vtx_0
                0x000000000700a538                fireturret_Circle_001_mesh_layer_1_vtx_cull
                0x000000000700a5b8                fireturret_Texture0564_RGB_ci8_pal_rgba16
                0x000000000700a650                fireturret_Texture0564_RGB_ci8_pal_rgba16_aligner
                0x000000000700a658                fireturret_Texture0564_RGB_ci8
                0x000000000700aa58                fireturret_Texture0564_RGB_ci8_aligner
                0x000000000700aa60                fireturret_Texture0565_RGB_ci8_pal_rgba16
                0x000000000700ab10                fireturret_Texture0565_RGB_ci8_pal_rgba16_aligner
                0x000000000700ab18                fireturret_Texture0565_RGB_ci8
                0x000000000700af18                fireturret_Texture0565_RGB_ci8_aligner
                0x000000000700af20                fireturret_f3d_material_005_lights
                0x000000000700af38                fireturret_f3d_material_006_lights
                0x000000000700af50                buzzy_anims
                0x000000000700d728                donutblock_collision
                0x000000000700d7e8                buzzy_material_revert_render_settings
                0x000000000700d828                buzzy_foreleg_r_skinned
                0x000000000700d848                buzzy_foreleg_r_mesh
                0x000000000700d880                buzzy_foreleg_l_skinned
                0x000000000700d8a0                buzzy_foreleg_l_mesh
                0x000000000700d8d8                buzzy_behindleg_r_skinned
                0x000000000700d8f8                buzzy_behindleg_r_mesh
                0x000000000700d930                buzzy_behindleg_l_skinned
                0x000000000700d950                buzzy_behindleg_l_mesh
                0x000000000700d988                buzzy_Bone_005_mesh
                0x000000000700d9a8                buzzy_Bone_001_skinned
                0x000000000700d9c8                buzzy_Bone_001_mesh
                0x000000000700da00                buzzy_Bone_mesh
                0x000000000700da50                mat_revert_buzzy_sm64_material_004
                0x000000000700da70                mat_buzzy_sm64_material_004
                0x000000000700db28                mat_revert_buzzy_sm64_material_002
                0x000000000700db48                mat_buzzy_sm64_material_002
                0x000000000700dc00                mat_revert_buzzy_sm64_material_005
                0x000000000700dc20                mat_buzzy_sm64_material_005
                0x000000000700dcd8                mat_revert_buzzy_sm64_material_003
                0x000000000700dcf0                mat_buzzy_sm64_material_003
                0x000000000700dd70                buzzy_foreleg_r_skinned_tri_0
                0x000000000700dd80                buzzy_foreleg_r_skinned_vtx_0
                0x000000000700ddb0                buzzy_foreleg_r_mesh_tri_1
                0x000000000700ddc8                buzzy_foreleg_r_mesh_vtx_1
                0x000000000700de08                buzzy_foreleg_r_mesh_tri_0
                0x000000000700de38                buzzy_foreleg_r_mesh_vtx_0
                0x000000000700de88                buzzy_foreleg_l_skinned_tri_0
                0x000000000700de98                buzzy_foreleg_l_skinned_vtx_0
                0x000000000700dec8                buzzy_foreleg_l_mesh_tri_1
                0x000000000700dee0                buzzy_foreleg_l_mesh_vtx_1
                0x000000000700df20                buzzy_foreleg_l_mesh_tri_0
                0x000000000700df50                buzzy_foreleg_l_mesh_vtx_0
                0x000000000700dfa0                buzzy_behindleg_r_skinned_tri_0
                0x000000000700dfb0                buzzy_behindleg_r_skinned_vtx_0
                0x000000000700dfe0                buzzy_behindleg_r_mesh_tri_1
                0x000000000700dff8                buzzy_behindleg_r_mesh_vtx_1
                0x000000000700e038                buzzy_behindleg_r_mesh_tri_0
                0x000000000700e068                buzzy_behindleg_r_mesh_vtx_0
                0x000000000700e0c8                buzzy_behindleg_l_skinned_tri_0
                0x000000000700e0d8                buzzy_behindleg_l_skinned_vtx_0
                0x000000000700e108                buzzy_behindleg_l_mesh_tri_1
                0x000000000700e120                buzzy_behindleg_l_mesh_vtx_1
                0x000000000700e160                buzzy_behindleg_l_mesh_tri_0
                0x000000000700e190                buzzy_behindleg_l_mesh_vtx_0
                0x000000000700e1f0                buzzy_Bone_005_mesh_tri_0
                0x000000000700e210                buzzy_Bone_005_mesh_vtx_0
                0x000000000700e250                buzzy_Bone_001_skinned_tri_0
                0x000000000700e260                buzzy_Bone_001_skinned_vtx_0
                0x000000000700e2e0                buzzy_Bone_001_mesh_tri_1
                0x000000000700e2f8                buzzy_Bone_001_mesh_vtx_1
                0x000000000700e338                buzzy_Bone_001_mesh_tri_0
                0x000000000700e370                buzzy_Bone_001_mesh_vtx_0
                0x000000000700e3c0                buzzy_Bone_mesh_tri_2
                0x000000000700e3d8                buzzy_Bone_mesh_vtx_2
                0x000000000700e418                buzzy_Bone_mesh_tri_1
                0x000000000700e460                buzzy_Bone_mesh_vtx_1
                0x000000000700e510                buzzy_Bone_mesh_tri_0
                0x000000000700e590                buzzy_Bone_mesh_vtx_0
                0x000000000700e690                buzzy_feet_ci8_pal_rgba16
                0x000000000700e700                buzzy_feet_ci8_pal_rgba16_aligner
                0x000000000700e708                buzzy_feet_ci8
                0x000000000700ef08                buzzy_feet_ci8_aligner
                0x000000000700ef10                buzzy_face_ci8_pal_rgba16
                0x000000000700ef40                buzzy_face_ci8_pal_rgba16_aligner
                0x000000000700ef48                buzzy_face_ci8
                0x000000000700f748                buzzy_face_ci8_aligner
                0x000000000700f750                buzzy_shellblue_ci4_pal_rgba16
                0x000000000700f758                buzzy_shellblue_ci4_pal_rgba16_aligner
                0x000000000700f760                buzzy_shellblue_ci4
                0x000000000700f7e0                buzzy_shellblue_ci4_aligner
                0x000000000700f7e8                buzzy_shell3_i4
                0x000000000700ffe8                buzzy_shell3_i4_aligner
                0x000000000700fff0                buzzy_sm64_material_004_lights
                0x0000000007010008                buzzy_sm64_material_002_lights
                0x0000000007010020                buzzy_sm64_material_005_lights
                0x0000000007010038                buzzy_sm64_material_003_lights
                0x0000000007010050                donutblock_material_revert_render_settings
                0x0000000007010090                donutblock_Cube_mesh
                0x00000000070100c0                mat_revert_donutblock_sm64_material_002
                0x00000000070100e8                mat_donutblock_sm64_material_002
                0x00000000070101a8                donutblock_Cube_mesh_tri_0
                0x0000000007010210                donutblock_Cube_mesh_vtx_0
                0x0000000007010490                donutblock_Cube_mesh_vtx_cull
                0x0000000007010510                donutblock_donutblock_ci4_pal_rgba16
                0x0000000007010518                donutblock_donutblock_ci4_pal_rgba16_aligner
                0x0000000007010520                donutblock_donutblock_ci4
                0x00000000070105a0                donutblock_donutblock_ci4_aligner
                0x00000000070105a8                donutblock_sm64_material_002_lights
                0x00000000070105c0                martoise_anims
                0x0000000007012068                martoise_material_revert_render_settings
                0x00000000070120a8                martoise_flotte3_r_skinned
                0x00000000070120c8                martoise_flotte3_r_mesh
                0x00000000070120e8                martoise_flotte2_r_skinned
                0x0000000007012108                martoise_flotte2_r_mesh
                0x0000000007012128                martoise_flotte3_l_skinned
                0x0000000007012148                martoise_flotte3_l_mesh
                0x0000000007012168                martoise_flotte2_l_skinned
                0x0000000007012188                martoise_flotte2_l_mesh
                0x00000000070121a8                martoise_backflotte3_r_skinned
                0x00000000070121c8                martoise_backflotte3_r_mesh
                0x00000000070121e8                martoise_backflotte2_r_skinned
                0x0000000007012208                martoise_backflotte2_r_mesh
                0x0000000007012228                martoise_backflotte3_l_skinned
                0x0000000007012248                martoise_backflotte3_l_mesh
                0x0000000007012268                martoise_backflotte2_l_skinned
                0x0000000007012288                martoise_backflotte2_l_mesh
                0x00000000070122a8                martoise_Bone_004_skinned
                0x00000000070122c8                martoise_Bone_004_mesh
                0x00000000070122e8                martoise_Bone_003_skinned
                0x0000000007012308                martoise_Bone_003_mesh
                0x0000000007012358                martoise_Bone_002_skinned
                0x0000000007012378                martoise_Bone_002_mesh
                0x00000000070123b0                martoise_Bone_mesh
                0x0000000007012400                mat_revert_martoise_sm64_material_001_layer1
                0x0000000007012428                mat_martoise_sm64_material_001_layer1
                0x00000000070124c8                mat_revert_martoise_sm64_material_005_layer1
                0x00000000070124f8                mat_martoise_sm64_material_005_layer1
                0x00000000070125a0                mat_revert_martoise_sm64_material_003_layer1
                0x00000000070125d0                mat_martoise_sm64_material_003_layer1
                0x00000000070126a8                mat_revert_martoise_sm64_material_layer1
                0x00000000070126d8                mat_martoise_sm64_material_layer1
                0x00000000070127b0                mat_revert_martoise_sm64_material_002_layer1
                0x00000000070127e0                mat_martoise_sm64_material_002_layer1
                0x00000000070128b8                martoise_flotte3_r_skinned_tri_0
                0x00000000070128c8                martoise_flotte3_r_skinned_vtx_0
                0x0000000007012908                martoise_flotte3_r_mesh_tri_0
                0x0000000007012930                martoise_flotte3_r_mesh_vtx_0
                0x0000000007012950                martoise_flotte2_r_skinned_tri_0
                0x0000000007012960                martoise_flotte2_r_skinned_vtx_0
                0x00000000070129a0                martoise_flotte2_r_mesh_tri_0
                0x00000000070129d0                martoise_flotte2_r_mesh_vtx_0
                0x0000000007012a10                martoise_flotte3_l_skinned_tri_0
                0x0000000007012a20                martoise_flotte3_l_skinned_vtx_0
                0x0000000007012a60                martoise_flotte3_l_mesh_tri_0
                0x0000000007012a88                martoise_flotte3_l_mesh_vtx_0
                0x0000000007012aa8                martoise_flotte2_l_skinned_tri_0
                0x0000000007012ab8                martoise_flotte2_l_skinned_vtx_0
                0x0000000007012af8                martoise_flotte2_l_mesh_tri_0
                0x0000000007012b28                martoise_flotte2_l_mesh_vtx_0
                0x0000000007012b68                martoise_backflotte3_r_skinned_tri_0
                0x0000000007012b78                martoise_backflotte3_r_skinned_vtx_0
                0x0000000007012bb8                martoise_backflotte3_r_mesh_tri_0
                0x0000000007012be0                martoise_backflotte3_r_mesh_vtx_0
                0x0000000007012c00                martoise_backflotte2_r_skinned_tri_0
                0x0000000007012c10                martoise_backflotte2_r_skinned_vtx_0
                0x0000000007012c50                martoise_backflotte2_r_mesh_tri_0
                0x0000000007012c80                martoise_backflotte2_r_mesh_vtx_0
                0x0000000007012cc0                martoise_backflotte3_l_skinned_tri_0
                0x0000000007012cd0                martoise_backflotte3_l_skinned_vtx_0
                0x0000000007012d10                martoise_backflotte3_l_mesh_tri_0
                0x0000000007012d38                martoise_backflotte3_l_mesh_vtx_0
                0x0000000007012d58                martoise_backflotte2_l_skinned_tri_0
                0x0000000007012d68                martoise_backflotte2_l_skinned_vtx_0
                0x0000000007012da8                martoise_backflotte2_l_mesh_tri_0
                0x0000000007012dd8                martoise_backflotte2_l_mesh_vtx_0
                0x0000000007012e18                martoise_Bone_004_skinned_tri_0
                0x0000000007012e28                martoise_Bone_004_skinned_vtx_0
                0x0000000007012e68                martoise_Bone_004_mesh_tri_0
                0x0000000007012e88                martoise_Bone_004_mesh_vtx_0
                0x0000000007012e98                martoise_Bone_003_skinned_tri_0
                0x0000000007012ea8                martoise_Bone_003_skinned_vtx_0
                0x0000000007012f08                martoise_Bone_003_mesh_tri_2
                0x0000000007012f28                martoise_Bone_003_mesh_vtx_2
                0x0000000007012f88                martoise_Bone_003_mesh_tri_1
                0x0000000007012fd0                martoise_Bone_003_mesh_vtx_1
                0x0000000007013090                martoise_Bone_003_mesh_tri_0
                0x00000000070130e0                martoise_Bone_003_mesh_vtx_0
                0x0000000007013180                martoise_Bone_002_skinned_tri_0
                0x0000000007013190                martoise_Bone_002_skinned_vtx_0
                0x00000000070131d0                martoise_Bone_002_mesh_tri_1
                0x00000000070131f0                martoise_Bone_002_mesh_vtx_1
                0x0000000007013250                martoise_Bone_002_mesh_tri_0
                0x0000000007013280                martoise_Bone_002_mesh_vtx_0
                0x00000000070132c0                martoise_Bone_mesh_tri_2
                0x0000000007013310                martoise_Bone_mesh_vtx_2
                0x0000000007013410                martoise_Bone_mesh_tri_1
                0x0000000007013498                martoise_Bone_mesh_vtx_1
                0x00000000070135c8                martoise_Bone_mesh_tri_0
                0x0000000007013610                martoise_Bone_mesh_vtx_0
                0x0000000007013700                martoise__0501C588_i8
                0x0000000007013800                martoise__0501C588_i8_aligner
                0x0000000007013808                martoise_t0012_0_i4
                0x0000000007014808                martoise_t0012_0_i4_aligner
                0x0000000007014810                martoise_t0024_0_ci8_pal_rgba16
                0x0000000007014890                martoise_t0024_0_ci8_pal_rgba16_aligner
                0x0000000007014898                martoise_t0024_0_ci8
                0x0000000007014a98                martoise_t0024_0_ci8_aligner
                0x0000000007014aa0                martoise_miroisadgr_anu_ci8_pal_rgba16
                0x0000000007014be0                martoise_miroisadgr_anu_ci8_pal_rgba16_aligner
                0x0000000007014be8                martoise_miroisadgr_anu_ci8
                0x00000000070153e8                martoise_miroisadgr_anu_ci8_aligner
                0x00000000070153f0                martoise_t0018_0ci4_ci4_pal_rgba16
                0x0000000007015410                martoise_t0018_0ci4_ci4_pal_rgba16_aligner
                0x0000000007015418                martoise_t0018_0ci4_ci4
                0x0000000007015c18                martoise_t0018_0ci4_ci4_aligner
                0x0000000007015c20                martoise_sm64_material_001_layer1_lights
                0x0000000007015c38                martoise_sm64_material_005_layer1_lights
                0x0000000007015c50                martoise_sm64_material_003_layer1_lights
                0x0000000007015c68                martoise_sm64_material_layer1_lights
                0x0000000007015c80                martoise_sm64_material_002_layer1_lights
                0x0000000007015c98                pushrock_material_revert_render_settings
                0x0000000007015cd8                pushrock_Icosphere_mesh
                0x0000000007015d18                mat_revert_pushrock_sm64_material_002
                0x0000000007015d38                mat_pushrock_sm64_material_002
                0x0000000007015df0                pushrock_Icosphere_mesh_tri_0
                0x0000000007015e40                pushrock_Icosphere_mesh_vtx_0
                0x0000000007015ee0                pushrock_Icosphere_mesh_vtx_cull
                0x0000000007015f60                pushrock_garekici4_ci4_pal_rgba16
                0x0000000007015f80                pushrock_garekici4_ci4_pal_rgba16_aligner
                0x0000000007015f88                pushrock_garekici4_ci4
                0x0000000007016788                pushrock_garekici4_ci4_aligner
                0x0000000007016790                pushrock_sm64_material_002_lights
                0x00000000070167a8                martoise_collision
                0x0000000007016954                stardomedoor_collision
                0x00000000070169e0                underwaterdoor_collision
                0x0000000007016a48                stardomedoor_material_revert_render_settings
                0x0000000007016a88                stardomedoor_thing_mesh
                0x0000000007016ab0                mat_stardomedoor_sm64_material_003
                0x0000000007016b30                stardomedoor_thing_mesh_tri_0
                0x0000000007016b70                stardomedoor_thing_mesh_vtx_0
                0x0000000007016bf0                stardomedoor_thing_mesh_vtx_cull
                0x0000000007016c70                stardomedoor_cs_stonetile01_alb_i8
                0x0000000007017070                stardomedoor_cs_stonetile01_alb_i8_aligner
                0x0000000007017078                stardomedoor_sm64_material_003_lights
                0x0000000007017090                arrowgates_collision
                0x00000000070170c8                arrowgates_material_revert_render_settings
                0x0000000007017108                arrowgates_Circle_006_mesh
                0x0000000007017138                mat_revert_arrowgates_sm64_material_002
                0x0000000007017158                mat_arrowgates_sm64_material_002
                0x0000000007017210                arrowgates_Circle_006_mesh_tri_0
                0x0000000007017228                arrowgates_Circle_006_mesh_vtx_0
                0x0000000007017268                arrowgates_Circle_006_mesh_vtx_cull
                0x00000000070172e8                arrowgates_mini2_21_ci8_pal_rgba16
                0x00000000070173a8                arrowgates_mini2_21_ci8_pal_rgba16_aligner
                0x00000000070173b0                arrowgates_mini2_21_ci8
                0x0000000007017bb0                arrowgates_mini2_21_ci8_aligner
                0x0000000007017bb8                arrowgates_sm64_material_002_lights
                0x0000000007017bd0                jelly_material_revert_render_settings
                0x0000000007017c10                jelly_Icosphere_mesh_layer_5
                0x0000000007017c60                jelly_Icosphere_mesh_layer_1
                0x0000000007017c80                mat_revert_jelly_A
                0x0000000007017c98                mat_jelly_A
                0x0000000007017d18                mat_revert_jelly_B
                0x0000000007017d30                mat_jelly_B
                0x0000000007017db0                mat_revert_jelly_C
                0x0000000007017dc8                mat_jelly_C
                0x0000000007017e48                mat_revert_jelly_f3d_material_006
                0x0000000007017e68                mat_jelly_f3d_material_006
                0x0000000007017f20                jelly_Icosphere_mesh_layer_5_tri_2
                0x0000000007017f38                jelly_Icosphere_mesh_layer_5_vtx_2
                0x0000000007017f78                jelly_Icosphere_mesh_layer_5_tri_1
                0x0000000007017f90                jelly_Icosphere_mesh_layer_5_vtx_1
                0x0000000007017fd0                jelly_Icosphere_mesh_layer_5_tri_0
                0x0000000007018008                jelly_Icosphere_mesh_layer_5_vtx_0
                0x0000000007018098                jelly_Icosphere_mesh_layer_1_tri_0
                0x00000000070180d8                jelly_Icosphere_mesh_layer_1_vtx_0
                0x0000000007018178                jelly_lmapshine_i8
                0x0000000007019178                jelly_lmapshine_i8_aligner
                0x0000000007019180                jelly_GALE01_b0bd6f84_14_ia4
                0x000000000701a180                jelly_GALE01_b0bd6f84_14_ia4_aligner
                0x000000000701a188                jelly_KKIIDDZZ_DAT_624__p00__2__i8
                0x000000000701b188                jelly_KKIIDDZZ_DAT_624__p00__2__i8_aligner
                0x000000000701b190                jelly_tomacco_bushel_bmp_ci4_pal_rgba16
                0x000000000701b1b0                jelly_tomacco_bushel_bmp_ci4_pal_rgba16_aligner
                0x000000000701b1b8                jelly_tomacco_bushel_bmp_ci4
                0x000000000701b3b8                jelly_tomacco_bushel_bmp_ci4_aligner
                0x000000000701b3c0                jelly_A_lights
                0x000000000701b3d8                jelly_B_lights
                0x000000000701b3f0                jelly_C_lights
                0x000000000701b408                jelly_f3d_material_006_lights
                0x000000000701b420                underwaterdoor_material_revert_render_settings
                0x000000000701b460                underwaterdoor_Bone_002_mesh_layer_1_mat_override_closeddoor_0
                0x000000000701b480                underwaterdoor_Bone_002_mesh_layer_1
                0x000000000701b4a0                mat_revert_underwaterdoor_closeddoor_layer1
                0x000000000701b4d8                mat_underwaterdoor_closeddoor_layer1
                0x000000000701b5b8                mat_revert_underwaterdoor_sm64_material_012_layer1
                0x000000000701b5e8                mat_underwaterdoor_sm64_material_012_layer1
                0x000000000701b690                underwaterdoor_Bone_002_mesh_layer_1_tri_0
                0x000000000701b6b8                underwaterdoor_Bone_002_mesh_layer_1_vtx_0
                0x000000000701b778                underwaterdoor__23804E96B3FDF23B496994478B9BC426_ci4_pal_rgba16
                0x000000000701b798                underwaterdoor__23804E96B3FDF23B496994478B9BC426_ci4_pal_rgba16_aligner
                0x000000000701b7a0                underwaterdoor__23804E96B3FDF23B496994478B9BC426_ci4
                0x000000000701bfa0                underwaterdoor__23804E96B3FDF23B496994478B9BC426_ci4_aligner
                0x000000000701bfa8                underwaterdoor_trd_doatif_ia8
                0x000000000701cfa8                underwaterdoor_trd_doatif_ia8_aligner
                0x000000000701cfb0                underwaterdoor_closeddoor_layer1_lights
                0x000000000701cfc8                underwaterdoor_sm64_material_012_layer1_lights
                0x000000000701cfe0                wf_dl_material_revert_render_settings
                0x000000000701d020                wf_dl_Water_mesh_layer_5
                0x000000000701d040                wf_dl_Circle_029_mesh
                0x000000000701d078                wf_dl_Circle_029_mesh_layer_4
                0x000000000701d098                wf_dl_Circle_029_mesh_layer_1
                0x000000000701d238                wf_dl_Circle_027_mesh_layer_5
                0x000000000701d258                wf_dl_area5alpha_001_mesh_layer_6
                0x000000000701d278                wf_dl_area5alpha_mesh
                0x000000000701d298                wf_dl_singlebloclk_001_mesh
                0x000000000701d2d8                wf_dl_singlebloclk_mesh
                0x000000000701d348                wf_dl_Plane_004_mesh
                0x000000000701d380                wf_dl_Plane_001_mesh
                0x000000000701d3b8                wf_dl_Plane_mesh_layer_4
                0x000000000701d3d8                wf_dl_Plane_mesh
                0x000000000701d410                wf_dl_ceiling_mesh
                0x000000000701d430                wf_dl_Wobbly_001_mesh_layer_0
                0x000000000701d450                wf_dl_Wobbly_mesh_layer_1
                0x000000000701d4a0                wf_dl_WAVEY_mesh_layer_5
                0x000000000701d4c0                wf_dl_CitymeshColl_001_mesh_layer_6
                0x000000000701d4f0                wf_dl_CitymeshColl_001_mesh_layer_1
                0x000000000701d510                wf_dl_Citymesh_002_mesh_layer_1
                0x000000000701d580                wf_dl_Citymesh_001_mesh
                0x000000000701d5c0                wf_dl_Citymesh_001_mesh_layer_1
                0x000000000701d6a8                wf_dl_Citymesh_mesh
                0x000000000701d6c8                wf_dl_Citymesh_mesh_layer_1
                0x000000000701d850                wf_dl_Circle_006_mesh
                0x000000000701d870                wf_dl_Circle_006_mesh_layer_4
                0x000000000701d8c0                wf_dl_zzzshroom_mesh
                0x000000000701d8f8                wf_dl_Circle_004_mesh
                0x000000000701d918                wf_dl_Circle_002_mesh
                0x000000000701d950                wf_dl_Circle_mesh
                0x000000000701dc10                wf_dl_ZZZZZZmaingeometry_002_mesh_layer_6
                0x000000000701dc30                wf_dl_ZZZZZZmaingeometry_001_mesh_layer_0
                0x000000000701dc50                wf_dl_ZZZZZZmaingeometry_mesh
                0x000000000701dc88                wf_dl_STAR4domeinsidecpucull_mesh
                0x000000000701dca8                wf_dl_STAR4domeinside_solidcpucull_mesh
                0x000000000701dce0                wf_dl_REDCOINDOMEinsidecpucull_mesh
                0x000000000701dd00                wf_dl_REDCOINDOMEinside_solid2cpucull_mesh
                0x000000000701dd80                wf_dl_REDCOINDOMEinside_ALPHAcpucull_mesh
                0x000000000701dda0                wf_dl_FSTAR1DOME_mesh
                0x000000000701ddc0                wf_dl_Frocks_mesh_layer_1
                0x000000000701dde0                wf_dl_Frocks_mesh
                0x000000000701de18                wf_dl_freeplaysub_mesh
                0x000000000701dea0                wf_dl_FBridges_001_mesh
                0x000000000701def8                wf_dl_FBridges_mesh
                0x000000000701df50                wf_dl_EDomes_mesh
                0x000000000701dfb8                wf_dl_domeinside3cpucull_mesh
                0x000000000701dff0                wf_dl_domeinside3_SOLIDcpucull_mesh
                0x000000000701e028                wf_dl_domeinside2cpucull_mesh
                0x000000000701e048                wf_dl_domeinside2_SOLIDLIGHTScpucull_mesh
                0x000000000701e088                wf_dl_domeinside2_SOLIDcpucull_mesh
                0x000000000701e120                wf_dl_domeinside2_Alphacpucull_mesh
                0x000000000701e158                wf_dl_domeinside1cpucull_mesh
                0x000000000701e178                wf_dl_domeinside1_SOLIDLIGHTScpucull_mesh
                0x000000000701e1b8                wf_dl_domeinside1_SOLIDcpucull_mesh
                0x000000000701e220                wf_dl_domeinside1_Alphacpucull_mesh
                0x000000000701e240                wf_dl_AAAAAcorals_mesh
                0x000000000701e260                mat_revert_wf_dl_UNDERGROUNDWATER_layer5
                0x000000000701e288                mat_wf_dl_UNDERGROUNDWATER_layer5
                0x000000000701e360                mat_revert_wf_dl_f3d_material_019
                0x000000000701e378                mat_wf_dl_f3d_material_019
                0x000000000701e3f8                mat_revert_wf_dl_f3d_material_017
                0x000000000701e410                mat_wf_dl_f3d_material_017
                0x000000000701e490                mat_revert_wf_dl_f3d_material_016
                0x000000000701e4a8                mat_wf_dl_f3d_material_016
                0x000000000701e528                mat_revert_wf_dl_f3d_material_005
                0x000000000701e540                mat_wf_dl_f3d_material_005
                0x000000000701e5c0                mat_revert_wf_dl_f3d_material_020
                0x000000000701e5d8                mat_wf_dl_f3d_material_020
                0x000000000701e658                mat_revert_wf_dl_f3d_material_018
                0x000000000701e678                mat_wf_dl_f3d_material_018
                0x000000000701e730                mat_revert_wf_dl_f3d_material_010
                0x000000000701e748                mat_wf_dl_f3d_material_010
                0x000000000701e7d0                mat_revert_wf_dl_sm64_material_099
                0x000000000701e7e8                mat_wf_dl_sm64_material_099
                0x000000000701e868                mat_revert_wf_dl_sm64_material_098
                0x000000000701e880                mat_wf_dl_sm64_material_098
                0x000000000701e900                mat_revert_wf_dl_f3d_material_009
                0x000000000701e918                mat_wf_dl_f3d_material_009
                0x000000000701e9a0                mat_revert_wf_dl_f3d_material_014
                0x000000000701e9b8                mat_wf_dl_f3d_material_014
                0x000000000701ea38                mat_revert_wf_dl_f3d_material_015
                0x000000000701ea50                mat_wf_dl_f3d_material_015
                0x000000000701ead0                mat_revert_wf_dl_f3d_material_013
                0x000000000701eae8                mat_wf_dl_f3d_material_013
                0x000000000701eb68                mat_revert_wf_dl_f3d_material_012
                0x000000000701eb80                mat_wf_dl_f3d_material_012
                0x000000000701ec00                mat_revert_wf_dl_f3d_material_006
                0x000000000701ec20                mat_wf_dl_f3d_material_006
                0x000000000701ecd8                mat_revert_wf_dl_f3d_material_022
                0x000000000701ecf0                mat_wf_dl_f3d_material_022
                0x000000000701ed70                mat_revert_wf_dl_f3d_material_023
                0x000000000701ed88                mat_wf_dl_f3d_material_023
                0x000000000701ee08                mat_revert_wf_dl_f3d_material_007
                0x000000000701ee28                mat_wf_dl_f3d_material_007
                0x000000000701eee0                mat_revert_wf_dl_f3d_material_024
                0x000000000701ef00                mat_wf_dl_f3d_material_024
                0x000000000701efb8                mat_revert_wf_dl_f3d_material_021
                0x000000000701efd0                mat_wf_dl_f3d_material_021
                0x000000000701f050                mat_revert_wf_dl_f3d_material_011
                0x000000000701f068                mat_wf_dl_f3d_material_011
                0x000000000701f0f0                mat_revert_wf_dl_f3d_material_025
                0x000000000701f108                mat_wf_dl_f3d_material_025
                0x000000000701f188                mat_revert_wf_dl_sm64_material_084
                0x000000000701f1a0                mat_wf_dl_sm64_material_084
                0x000000000701f220                mat_revert_wf_dl_sm64_material_075
                0x000000000701f240                mat_wf_dl_sm64_material_075
                0x000000000701f2f8                mat_revert_wf_dl_sm64_material_070
                0x000000000701f318                mat_wf_dl_sm64_material_070
                0x000000000701f3d0                mat_revert_wf_dl_sm64_material_069
                0x000000000701f3f8                mat_wf_dl_sm64_material_069
                0x000000000701f4b8                mat_revert_wf_dl_sm64_material_080
                0x000000000701f4d0                mat_wf_dl_sm64_material_080
                0x000000000701f538                mat_revert_wf_dl_sm64_material_081
                0x000000000701f560                mat_wf_dl_sm64_material_081
                0x000000000701f628                mat_revert_wf_dl_sm64_material_079
                0x000000000701f650                mat_wf_dl_sm64_material_079
                0x000000000701f718                mat_revert_wf_dl_f3d_material
                0x000000000701f738                mat_wf_dl_f3d_material
                0x000000000701f7f0                mat_revert_wf_dl_sm64_material_078
                0x000000000701f810                mat_wf_dl_sm64_material_078
                0x000000000701f8c8                mat_revert_wf_dl_sm64_material_077
                0x000000000701f8e8                mat_wf_dl_sm64_material_077
                0x000000000701f9a0                mat_revert_wf_dl_f3d_material_056_layer0
                0x000000000701f9c0                mat_wf_dl_f3d_material_056_layer0
                0x000000000701f9f8                mat_revert_wf_dl_f3d_material_032_layer1
                0x000000000701fa20                mat_wf_dl_f3d_material_032_layer1
                0x000000000701fab8                mat_revert_wf_dl_f3d_material_030_layer1
                0x000000000701fae0                mat_wf_dl_f3d_material_030_layer1
                0x000000000701fb78                mat_revert_wf_dl_f3d_material_029_layer1
                0x000000000701fba0                mat_wf_dl_f3d_material_029_layer1
                0x000000000701fc38                mat_revert_wf_dl_f3d_material_026
                0x000000000701fc50                mat_wf_dl_f3d_material_026
                0x000000000701fcd8                mat_revert_wf_dl_f3d_material_054
                0x000000000701fcf0                mat_wf_dl_f3d_material_054
                0x000000000701fd70                mat_wf_dl_f3d_material_052
                0x000000000701fdd8                mat_revert_wf_dl_f3d_material_053_layer1
                0x000000000701fe00                mat_wf_dl_f3d_material_053_layer1
                0x000000000701fed0                mat_revert_wf_dl_f3d_material_057
                0x000000000701fee8                mat_wf_dl_f3d_material_057
                0x000000000701ff68                mat_revert_wf_dl_f3d_material_041
                0x000000000701ff88                mat_wf_dl_f3d_material_041
                0x0000000007020040                mat_revert_wf_dl_ZZZDomeLast_layer1
                0x0000000007020068                mat_wf_dl_ZZZDomeLast_layer1
                0x0000000007020138                mat_revert_wf_dl_f3d_material_049
                0x0000000007020150                mat_wf_dl_f3d_material_049
                0x00000000070201d0                mat_revert_wf_dl_f3d_material_048
                0x00000000070201f0                mat_wf_dl_f3d_material_048
                0x00000000070202a8                mat_revert_wf_dl_f3d_material_047
                0x00000000070202c0                mat_wf_dl_f3d_material_047
                0x0000000007020340                mat_revert_wf_dl_f3d_material_046
                0x0000000007020358                mat_wf_dl_f3d_material_046
                0x00000000070203d8                mat_revert_wf_dl_f3d_material_045
                0x00000000070203f0                mat_wf_dl_f3d_material_045
                0x0000000007020470                mat_revert_wf_dl_f3d_material_044
                0x0000000007020488                mat_wf_dl_f3d_material_044
                0x0000000007020508                mat_revert_wf_dl_f3d_material_043_layer1
                0x0000000007020530                mat_wf_dl_f3d_material_043_layer1
                0x0000000007020600                mat_revert_wf_dl_f3d_material_040
                0x0000000007020618                mat_wf_dl_f3d_material_040
                0x0000000007020698                mat_revert_wf_dl_f3d_material_038
                0x00000000070206b0                mat_wf_dl_f3d_material_038
                0x0000000007020730                mat_revert_wf_dl_f3d_material_036
                0x0000000007020748                mat_wf_dl_f3d_material_036
                0x00000000070207c8                mat_revert_wf_dl_f3d_material_035
                0x00000000070207e0                mat_wf_dl_f3d_material_035
                0x0000000007020860                mat_revert_wf_dl_f3d_material_034
                0x0000000007020878                mat_wf_dl_f3d_material_034
                0x00000000070208f8                mat_revert_wf_dl_f3d_material_033
                0x0000000007020910                mat_wf_dl_f3d_material_033
                0x0000000007020990                mat_revert_wf_dl_f3d_material_028_layer1
                0x00000000070209b8                mat_wf_dl_f3d_material_028_layer1
                0x0000000007020a50                mat_revert_wf_dl_f3d_material_042
                0x0000000007020a68                mat_wf_dl_f3d_material_042
                0x0000000007020af0                mat_revert_wf_dl_f3d_material_039
                0x0000000007020b08                mat_wf_dl_f3d_material_039
                0x0000000007020b88                mat_revert_wf_dl_f3d_material_031
                0x0000000007020ba0                mat_wf_dl_f3d_material_031
                0x0000000007020c20                mat_revert_wf_dl_sm64_material_074
                0x0000000007020c38                mat_wf_dl_sm64_material_074
                0x0000000007020cc0                mat_revert_wf_dl_sm64_material_072
                0x0000000007020cd8                mat_wf_dl_sm64_material_072
                0x0000000007020d60                mat_revert_wf_dl_sm64_material_073
                0x0000000007020d78                mat_wf_dl_sm64_material_073
                0x0000000007020df8                mat_revert_wf_dl_sm64_material_031_layer6_area2
                0x0000000007020e20                mat_wf_dl_sm64_material_031_layer6_area2
                0x0000000007020f00                mat_revert_wf_dl_sm64_material_071
                0x0000000007020f18                mat_wf_dl_sm64_material_071
                0x0000000007020f98                mat_revert_wf_dl_sm64_material_055
                0x0000000007020fb8                mat_wf_dl_sm64_material_055
                0x0000000007021070                mat_revert_wf_dl_sm64_material_059
                0x0000000007021090                mat_wf_dl_sm64_material_059
                0x0000000007021148                mat_revert_wf_dl_sm64_material_060
                0x0000000007021168                mat_wf_dl_sm64_material_060
                0x0000000007021220                mat_revert_wf_dl_sm64_material_051
                0x0000000007021240                mat_wf_dl_sm64_material_051
                0x00000000070212f8                mat_revert_wf_dl_sm64_material_052
                0x0000000007021318                mat_wf_dl_sm64_material_052
                0x00000000070213d0                mat_revert_wf_dl_sm64_material_082
                0x00000000070213e8                mat_wf_dl_sm64_material_082
                0x0000000007021468                mat_revert_wf_dl_sm64_material_066
                0x0000000007021480                mat_wf_dl_sm64_material_066
                0x0000000007021500                mat_revert_wf_dl_sm64_material_083
                0x0000000007021518                mat_wf_dl_sm64_material_083
                0x0000000007021598                mat_revert_wf_dl_sm64_material_065
                0x00000000070215b0                mat_wf_dl_sm64_material_065
                0x0000000007021630                mat_revert_wf_dl_sm64_material_064
                0x0000000007021648                mat_wf_dl_sm64_material_064
                0x00000000070216c8                mat_revert_wf_dl_sm64_material_063
                0x00000000070216e8                mat_wf_dl_sm64_material_063
                0x00000000070217a0                mat_revert_wf_dl_sm64_material_062
                0x00000000070217c0                mat_wf_dl_sm64_material_062
                0x0000000007021878                mat_revert_wf_dl_sm64_material_061
                0x0000000007021898                mat_wf_dl_sm64_material_061
                0x0000000007021950                mat_revert_wf_dl_sm64_material_053
                0x0000000007021968                mat_wf_dl_sm64_material_053
                0x00000000070219e8                mat_revert_wf_dl_sm64_material_054
                0x0000000007021a08                mat_wf_dl_sm64_material_054
                0x0000000007021ac0                mat_revert_wf_dl_sm64_material_056
                0x0000000007021ae0                mat_wf_dl_sm64_material_056
                0x0000000007021b98                mat_revert_wf_dl_sm64_material_039
                0x0000000007021bb0                mat_wf_dl_sm64_material_039
                0x0000000007021c30                mat_revert_wf_dl_sm64_material_040
                0x0000000007021c50                mat_wf_dl_sm64_material_040
                0x0000000007021cf0                mat_revert_wf_dl_sm64_material_058
                0x0000000007021d08                mat_wf_dl_sm64_material_058
                0x0000000007021d88                mat_revert_wf_dl_sm64_material_043
                0x0000000007021da8                mat_wf_dl_sm64_material_043
                0x0000000007021e60                mat_revert_wf_dl_sm64_material_047
                0x0000000007021e80                mat_wf_dl_sm64_material_047
                0x0000000007021f38                mat_revert_wf_dl_sm64_material_057
                0x0000000007021f58                mat_wf_dl_sm64_material_057
                0x0000000007022010                mat_revert_wf_dl_sm64_material_042
                0x0000000007022030                mat_wf_dl_sm64_material_042
                0x00000000070220e8                mat_revert_wf_dl_sm64_material_036
                0x0000000007022108                mat_wf_dl_sm64_material_036
                0x00000000070221c0                mat_revert_wf_dl_sm64_material_046
                0x00000000070221e0                mat_wf_dl_sm64_material_046
                0x0000000007022298                mat_revert_wf_dl_sm64_material_041
                0x00000000070222b8                mat_wf_dl_sm64_material_041
                0x0000000007022370                mat_revert_wf_dl_sm64_material_050
                0x0000000007022390                mat_wf_dl_sm64_material_050
                0x0000000007022448                mat_revert_wf_dl_sm64_material_044
                0x0000000007022468                mat_wf_dl_sm64_material_044
                0x0000000007022520                mat_revert_wf_dl_f3d_material_002
                0x0000000007022538                mat_wf_dl_f3d_material_002
                0x0000000007022578                mat_revert_wf_dl_f3d_material_001_layer0
                0x0000000007022598                mat_wf_dl_f3d_material_001_layer0
                0x00000000070225e0                mat_revert_wf_dl_SCROLLWATER_layer1_area1
                0x0000000007022610                mat_wf_dl_SCROLLWATER_layer1_area1
                0x00000000070226f8                mat_revert_wf_dl_sm64_material_035
                0x0000000007022710                mat_wf_dl_sm64_material_035
                0x0000000007022790                mat_revert_wf_dl_sm64_material_033
                0x00000000070227a8                mat_wf_dl_sm64_material_033
                0x0000000007022828                mat_revert_wf_dl_sm64_material_032
                0x0000000007022840                mat_wf_dl_sm64_material_032
                0x00000000070228c0                mat_revert_wf_dl_sm64_material_001
                0x00000000070228e0                mat_wf_dl_sm64_material_001
                0x0000000007022998                mat_revert_wf_dl_f3d_material_050
                0x00000000070229b8                mat_wf_dl_f3d_material_050
                0x0000000007022a70                mat_revert_wf_dl_sm64_material_029
                0x0000000007022a88                mat_wf_dl_sm64_material_029
                0x0000000007022ac8                mat_revert_wf_dl_sm64_material_015_layer1_area1
                0x0000000007022af8                mat_wf_dl_sm64_material_015_layer1_area1
                0x0000000007022ba0                mat_revert_wf_dl_sm64_material_005
                0x0000000007022bb8                mat_wf_dl_sm64_material_005
                0x0000000007022c38                mat_revert_wf_dl_sm64_material_004_layer1_area1
                0x0000000007022c68                mat_wf_dl_sm64_material_004_layer1_area1
                0x0000000007022d40                mat_revert_wf_dl_sm64_material_003_layer1_area1
                0x0000000007022d68                mat_wf_dl_sm64_material_003_layer1_area1
                0x0000000007022e08                mat_revert_wf_dl_sm64_material_006_layer1_area1
                0x0000000007022e38                mat_wf_dl_sm64_material_006_layer1_area1
                0x0000000007022f10                mat_revert_wf_dl_sm64_material_014_layer1_area1
                0x0000000007022f48                mat_wf_dl_sm64_material_014_layer1_area1
                0x0000000007023028                mat_revert_wf_dl_sm64_material_013_layer1_area1
                0x0000000007023060                mat_wf_dl_sm64_material_013_layer1_area1
                0x0000000007023140                mat_revert_wf_dl_ZFloor_layer1_area1
                0x0000000007023178                mat_wf_dl_ZFloor_layer1_area1
                0x0000000007023258                mat_revert_wf_dl_sm64_material_018_layer1_area1
                0x0000000007023290                mat_wf_dl_sm64_material_018_layer1_area1
                0x0000000007023370                mat_revert_wf_dl_sm64_material_008_layer1_area1
                0x00000000070233a8                mat_wf_dl_sm64_material_008_layer1_area1
                0x0000000007023488                mat_revert_wf_dl_Aoutside_layer1_area1
                0x00000000070234c0                mat_wf_dl_Aoutside_layer1_area1
                0x00000000070235a0                mat_revert_wf_dl_sm64_material_031_layer5_area1
                0x00000000070235c8                mat_wf_dl_sm64_material_031_layer5_area1
                0x00000000070236a8                mat_revert_wf_dl_sm64_material_017_layer1_area1
                0x00000000070236d8                mat_wf_dl_sm64_material_017_layer1_area1
                0x00000000070237b0                mat_revert_wf_dl_sm64_material_034
                0x00000000070237c8                mat_wf_dl_sm64_material_034
                0x0000000007023848                mat_revert_wf_dl_sm64_material_023
                0x0000000007023868                mat_wf_dl_sm64_material_023
                0x0000000007023920                mat_revert_wf_dl_sm64_material_021
                0x0000000007023940                mat_wf_dl_sm64_material_021
                0x00000000070239f8                mat_revert_wf_dl_sm64_material_025
                0x0000000007023a10                mat_wf_dl_sm64_material_025
                0x0000000007023a90                mat_revert_wf_dl_sm64_material_027
                0x0000000007023aa8                mat_wf_dl_sm64_material_027
                0x0000000007023b28                mat_revert_wf_dl_DOMEMAT
                0x0000000007023b48                mat_wf_dl_DOMEMAT
                0x0000000007023c00                mat_revert_wf_dl_sm64_material_024
                0x0000000007023c18                mat_wf_dl_sm64_material_024
                0x0000000007023c98                mat_revert_wf_dl_sm64_material_020
                0x0000000007023cb8                mat_wf_dl_sm64_material_020
                0x0000000007023d70                mat_revert_wf_dl_sm64_material_022
                0x0000000007023d90                mat_wf_dl_sm64_material_022
                0x0000000007023e48                mat_revert_wf_dl_sm64_material_026
                0x0000000007023e68                mat_wf_dl_sm64_material_026
                0x0000000007023f20                mat_revert_wf_dl_sm64_material_019
                0x0000000007023f40                mat_wf_dl_sm64_material_019
                0x0000000007023ff8                mat_revert_wf_dl_sm64_material_031_layer4_area1
                0x0000000007024020                mat_wf_dl_sm64_material_031_layer4_area1
                0x0000000007024100                mat_revert_wf_dl_sm64_material_007_layer5_area1
                0x0000000007024130                mat_wf_dl_sm64_material_007_layer5_area1
                0x00000000070241d8                wf_dl_Water_mesh_layer_5_tri_0
                0x0000000007024208                wf_dl_Water_mesh_layer_5_vtx_0
                0x00000000070242a8                wf_dl_Circle_029_mesh_tri_1
                0x0000000007024478                wf_dl_Circle_029_mesh_vtx_1
                0x0000000007024ab8                wf_dl_Circle_029_mesh_tri_0
                0x0000000007024b88                wf_dl_Circle_029_mesh_vtx_0
                0x0000000007024de8                wf_dl_Circle_029_mesh_layer_4_tri_0
                0x0000000007024e18                wf_dl_Circle_029_mesh_layer_4_vtx_0
                0x0000000007024ef8                wf_dl_Circle_029_mesh_layer_1_tri_16
                0x0000000007024f60                wf_dl_Circle_029_mesh_layer_1_vtx_16
                0x0000000007025100                wf_dl_Circle_029_mesh_layer_1_tri_15
                0x0000000007025120                wf_dl_Circle_029_mesh_layer_1_vtx_15
                0x0000000007025180                wf_dl_Circle_029_mesh_layer_1_tri_14
                0x00000000070255f8                wf_dl_Circle_029_mesh_layer_1_vtx_14
                0x00000000070268f8                wf_dl_Circle_029_mesh_layer_1_tri_13
                0x0000000007026970                wf_dl_Circle_029_mesh_layer_1_vtx_13
                0x0000000007026b40                wf_dl_Circle_029_mesh_layer_1_tri_12
                0x0000000007026cb8                wf_dl_Circle_029_mesh_layer_1_vtx_12
                0x00000000070271c8                wf_dl_Circle_029_mesh_layer_1_tri_11
                0x00000000070271f8                wf_dl_Circle_029_mesh_layer_1_vtx_11
                0x0000000007027298                wf_dl_Circle_029_mesh_layer_1_tri_10
                0x00000000070274d0                wf_dl_Circle_029_mesh_layer_1_vtx_10
                0x0000000007027c40                wf_dl_Circle_029_mesh_layer_1_tri_9
                0x0000000007027d38                wf_dl_Circle_029_mesh_layer_1_vtx_9
                0x0000000007028118                wf_dl_Circle_029_mesh_layer_1_tri_8
                0x0000000007028460                wf_dl_Circle_029_mesh_layer_1_vtx_8
                0x0000000007029360                wf_dl_Circle_029_mesh_layer_1_tri_7
                0x0000000007029508                wf_dl_Circle_029_mesh_layer_1_vtx_7
                0x0000000007029c88                wf_dl_Circle_029_mesh_layer_1_tri_6
                0x0000000007029d00                wf_dl_Circle_029_mesh_layer_1_vtx_6
                0x0000000007029fd0                wf_dl_Circle_029_mesh_layer_1_tri_5
                0x000000000702a510                wf_dl_Circle_029_mesh_layer_1_vtx_5
                0x000000000702c110                wf_dl_Circle_029_mesh_layer_1_tri_4
                0x000000000702c168                wf_dl_Circle_029_mesh_layer_1_vtx_4
                0x000000000702c268                wf_dl_Circle_029_mesh_layer_1_tri_3
                0x000000000702c3e0                wf_dl_Circle_029_mesh_layer_1_vtx_3
                0x000000000702ca20                wf_dl_Circle_029_mesh_layer_1_tri_2
                0x000000000702ca70                wf_dl_Circle_029_mesh_layer_1_vtx_2
                0x000000000702cbb0                wf_dl_Circle_029_mesh_layer_1_tri_1
                0x000000000702cbf0                wf_dl_Circle_029_mesh_layer_1_vtx_1
                0x000000000702ccd0                wf_dl_Circle_029_mesh_layer_1_tri_0
                0x000000000702cf60                wf_dl_Circle_029_mesh_layer_1_vtx_0
                0x000000000702d8f0                wf_dl_Circle_027_mesh_layer_5_tri_0
                0x000000000702da98                wf_dl_Circle_027_mesh_layer_5_vtx_0
                0x000000000702e618                wf_dl_area5alpha_001_mesh_layer_6_tri_0
                0x000000000702e738                wf_dl_area5alpha_001_mesh_layer_6_vtx_0
                0x000000000702ec98                wf_dl_area5alpha_mesh_tri_0
                0x000000000702ecc8                wf_dl_area5alpha_mesh_vtx_0
                0x000000000702ed88                wf_dl_singlebloclk_001_mesh_tri_0
                0x000000000702f090                wf_dl_singlebloclk_001_mesh_vtx_0
                0x0000000007030cf0                wf_dl_singlebloclk_001_mesh_vtx_cull
                0x0000000007030d70                wf_dl_singlebloclk_mesh_tri_2
                0x0000000007031198                wf_dl_singlebloclk_mesh_vtx_2
                0x0000000007033a18                wf_dl_singlebloclk_mesh_tri_1
                0x0000000007033a40                wf_dl_singlebloclk_mesh_vtx_1
                0x0000000007033b00                wf_dl_singlebloclk_mesh_tri_0
                0x0000000007033bd0                wf_dl_singlebloclk_mesh_vtx_0
                0x0000000007034150                wf_dl_singlebloclk_mesh_vtx_cull
                0x00000000070341d0                wf_dl_Plane_004_mesh_tri_1
                0x00000000070341f0                wf_dl_Plane_004_mesh_vtx_1
                0x0000000007034250                wf_dl_Plane_004_mesh_tri_0
                0x0000000007034318                wf_dl_Plane_004_mesh_vtx_0
                0x0000000007034818                wf_dl_Plane_001_mesh_tri_1
                0x0000000007034890                wf_dl_Plane_001_mesh_vtx_1
                0x0000000007034ad0                wf_dl_Plane_001_mesh_tri_0
                0x0000000007034ae8                wf_dl_Plane_001_mesh_vtx_0
                0x0000000007034b28                wf_dl_Plane_mesh_layer_4_tri_0
                0x0000000007034b78                wf_dl_Plane_mesh_layer_4_vtx_0
                0x0000000007034d78                wf_dl_Plane_mesh_tri_1
                0x0000000007035088                wf_dl_Plane_mesh_vtx_1
                0x0000000007036338                wf_dl_Plane_mesh_tri_0
                0x0000000007036520                wf_dl_Plane_mesh_vtx_0
                0x00000000070370e0                wf_dl_ceiling_mesh_tri_0
                0x0000000007037240                wf_dl_ceiling_mesh_vtx_0
                0x0000000007037960                wf_dl_Wobbly_001_mesh_layer_0_tri_0
                0x00000000070379b8                wf_dl_Wobbly_001_mesh_layer_0_vtx_0
                0x0000000007037b38                wf_dl_Wobbly_mesh_layer_1_tri_2
                0x0000000007037c58                wf_dl_Wobbly_mesh_layer_1_vtx_2
                0x0000000007038138                wf_dl_Wobbly_mesh_layer_1_tri_1
                0x00000000070382a0                wf_dl_Wobbly_mesh_layer_1_vtx_1
                0x0000000007038850                wf_dl_Wobbly_mesh_layer_1_tri_0
                0x0000000007038938                wf_dl_Wobbly_mesh_layer_1_vtx_0
                0x0000000007038c08                wf_dl_WAVEY_mesh_layer_5_tri_0
                0x0000000007038d18                wf_dl_WAVEY_mesh_layer_5_vtx_0
                0x0000000007039038                wf_dl_CitymeshColl_001_mesh_layer_6_tri_1
                0x00000000070390a0                wf_dl_CitymeshColl_001_mesh_layer_6_vtx_1
                0x0000000007039210                wf_dl_CitymeshColl_001_mesh_layer_6_tri_0
                0x0000000007039270                wf_dl_CitymeshColl_001_mesh_layer_6_vtx_0
                0x00000000070394b0                wf_dl_CitymeshColl_001_mesh_layer_1_tri_0
                0x00000000070395f8                wf_dl_CitymeshColl_001_mesh_layer_1_vtx_0
                0x0000000007039ba8                wf_dl_Citymesh_002_mesh_layer_1_tri_2
                0x0000000007039bd8                wf_dl_Citymesh_002_mesh_layer_1_vtx_2
                0x0000000007039c68                wf_dl_Citymesh_002_mesh_layer_1_tri_1
                0x0000000007039cd8                wf_dl_Citymesh_002_mesh_layer_1_vtx_1
                0x0000000007039de8                wf_dl_Citymesh_002_mesh_layer_1_tri_0
                0x000000000703a1a0                wf_dl_Citymesh_002_mesh_layer_1_vtx_0
                0x000000000703b200                wf_dl_Citymesh_002_mesh_layer_1_vtx_cull
                0x000000000703b280                wf_dl_Citymesh_001_mesh_tri_0
                0x000000000703b360                wf_dl_Citymesh_001_mesh_vtx_0
                0x000000000703b760                wf_dl_Citymesh_001_mesh_vtx_cull
                0x000000000703b7e0                wf_dl_Citymesh_001_mesh_layer_1_tri_7
                0x000000000703b800                wf_dl_Citymesh_001_mesh_layer_1_vtx_7
                0x000000000703b870                wf_dl_Citymesh_001_mesh_layer_1_tri_6
                0x000000000703b898                wf_dl_Citymesh_001_mesh_layer_1_vtx_6
                0x000000000703b918                wf_dl_Citymesh_001_mesh_layer_1_tri_5
                0x000000000703b930                wf_dl_Citymesh_001_mesh_layer_1_vtx_5
                0x000000000703b960                wf_dl_Citymesh_001_mesh_layer_1_tri_4
                0x000000000703b9b0                wf_dl_Citymesh_001_mesh_layer_1_vtx_4
                0x000000000703baf0                wf_dl_Citymesh_001_mesh_layer_1_tri_3
                0x000000000703bbb8                wf_dl_Citymesh_001_mesh_layer_1_vtx_3
                0x000000000703bf18                wf_dl_Citymesh_001_mesh_layer_1_tri_2
                0x000000000703bf38                wf_dl_Citymesh_001_mesh_layer_1_vtx_2
                0x000000000703bfb8                wf_dl_Citymesh_001_mesh_layer_1_tri_1
                0x000000000703c050                wf_dl_Citymesh_001_mesh_layer_1_vtx_1
                0x000000000703c250                wf_dl_Citymesh_001_mesh_layer_1_tri_0
                0x000000000703c280                wf_dl_Citymesh_001_mesh_layer_1_vtx_0
                0x000000000703c320                wf_dl_Citymesh_001_mesh_layer_1_vtx_cull
                0x000000000703c3a0                wf_dl_Citymesh_mesh_tri_0
                0x000000000703c480                wf_dl_Citymesh_mesh_vtx_0
                0x000000000703c870                wf_dl_Citymesh_mesh_layer_1_tri_15
                0x000000000703ca58                wf_dl_Citymesh_mesh_layer_1_vtx_15
                0x000000000703d238                wf_dl_Citymesh_mesh_layer_1_tri_14
                0x000000000703d338                wf_dl_Citymesh_mesh_layer_1_vtx_14
                0x000000000703d798                wf_dl_Citymesh_mesh_layer_1_tri_13
                0x000000000703d9c8                wf_dl_Citymesh_mesh_layer_1_vtx_13
                0x000000000703e488                wf_dl_Citymesh_mesh_layer_1_tri_12
                0x000000000703e5d0                wf_dl_Citymesh_mesh_layer_1_vtx_12
                0x000000000703eab0                wf_dl_Citymesh_mesh_layer_1_tri_11
                0x000000000703eb10                wf_dl_Citymesh_mesh_layer_1_vtx_11
                0x000000000703ec10                wf_dl_Citymesh_mesh_layer_1_tri_10
                0x000000000703ec28                wf_dl_Citymesh_mesh_layer_1_vtx_10
                0x000000000703ec58                wf_dl_Citymesh_mesh_layer_1_tri_9
                0x000000000703ec80                wf_dl_Citymesh_mesh_layer_1_vtx_9
                0x000000000703ed00                wf_dl_Citymesh_mesh_layer_1_tri_8
                0x000000000703ed50                wf_dl_Citymesh_mesh_layer_1_vtx_8
                0x000000000703ee90                wf_dl_Citymesh_mesh_layer_1_tri_7
                0x000000000703eee0                wf_dl_Citymesh_mesh_layer_1_vtx_7
                0x000000000703f000                wf_dl_Citymesh_mesh_layer_1_tri_6
                0x000000000703f098                wf_dl_Citymesh_mesh_layer_1_vtx_6
                0x000000000703f318                wf_dl_Citymesh_mesh_layer_1_tri_5
                0x000000000703f370                wf_dl_Citymesh_mesh_layer_1_vtx_5
                0x000000000703f500                wf_dl_Citymesh_mesh_layer_1_tri_4
                0x000000000703f700                wf_dl_Citymesh_mesh_layer_1_vtx_4
                0x00000000070400a0                wf_dl_Citymesh_mesh_layer_1_tri_3
                0x0000000007040178                wf_dl_Citymesh_mesh_layer_1_vtx_3
                0x00000000070405f8                wf_dl_Citymesh_mesh_layer_1_tri_2
                0x0000000007040920                wf_dl_Citymesh_mesh_layer_1_vtx_2
                0x0000000007041990                wf_dl_Citymesh_mesh_layer_1_tri_1
                0x0000000007041a38                wf_dl_Citymesh_mesh_layer_1_vtx_1
                0x0000000007041db8                wf_dl_Citymesh_mesh_layer_1_tri_0
                0x0000000007041e28                wf_dl_Citymesh_mesh_layer_1_vtx_0
                0x0000000007041fc8                wf_dl_Circle_006_mesh_tri_0
                0x0000000007041fe8                wf_dl_Circle_006_mesh_vtx_0
                0x0000000007042048                wf_dl_Circle_006_mesh_layer_4_tri_2
                0x0000000007042108                wf_dl_Circle_006_mesh_layer_4_vtx_2
                0x0000000007042408                wf_dl_Circle_006_mesh_layer_4_tri_1
                0x00000000070424a0                wf_dl_Circle_006_mesh_layer_4_vtx_1
                0x0000000007042720                wf_dl_Circle_006_mesh_layer_4_tri_0
                0x0000000007042838                wf_dl_Circle_006_mesh_layer_4_vtx_0
                0x0000000007042c98                wf_dl_zzzshroom_mesh_tri_1
                0x0000000007042d20                wf_dl_zzzshroom_mesh_vtx_1
                0x0000000007042ea0                wf_dl_zzzshroom_mesh_tri_0
                0x0000000007042f60                wf_dl_zzzshroom_mesh_vtx_0
                0x0000000007043140                wf_dl_Circle_004_mesh_tri_0
                0x0000000007043170                wf_dl_Circle_004_mesh_vtx_0
                0x00000000070432c0                wf_dl_Circle_002_mesh_tri_1
                0x0000000007043378                wf_dl_Circle_002_mesh_vtx_1
                0x0000000007043738                wf_dl_Circle_002_mesh_tri_0
                0x0000000007043898                wf_dl_Circle_002_mesh_vtx_0
                0x0000000007043d08                wf_dl_Circle_mesh_tri_28
                0x0000000007043de0                wf_dl_Circle_mesh_vtx_28
                0x0000000007044160                wf_dl_Circle_mesh_tri_27
                0x00000000070441e0                wf_dl_Circle_mesh_vtx_27
                0x0000000007044420                wf_dl_Circle_mesh_tri_26
                0x0000000007044440                wf_dl_Circle_mesh_vtx_26
                0x00000000070444c0                wf_dl_Circle_mesh_tri_25
                0x0000000007044558                wf_dl_Circle_mesh_vtx_25
                0x00000000070447d8                wf_dl_Circle_mesh_tri_24
                0x0000000007044830                wf_dl_Circle_mesh_vtx_24
                0x0000000007044950                wf_dl_Circle_mesh_tri_23
                0x0000000007044968                wf_dl_Circle_mesh_vtx_23
                0x00000000070449a8                wf_dl_Circle_mesh_tri_22
                0x00000000070449c0                wf_dl_Circle_mesh_vtx_22
                0x0000000007044a00                wf_dl_Circle_mesh_tri_21
                0x0000000007044a18                wf_dl_Circle_mesh_vtx_21
                0x0000000007044a58                wf_dl_Circle_mesh_tri_20
                0x0000000007044a70                wf_dl_Circle_mesh_vtx_20
                0x0000000007044ab0                wf_dl_Circle_mesh_tri_19
                0x0000000007044ac8                wf_dl_Circle_mesh_vtx_19
                0x0000000007044b08                wf_dl_Circle_mesh_tri_18
                0x0000000007044b78                wf_dl_Circle_mesh_vtx_18
                0x0000000007044d58                wf_dl_Circle_mesh_tri_17
                0x0000000007044d90                wf_dl_Circle_mesh_vtx_17
                0x0000000007044e40                wf_dl_Circle_mesh_tri_16
                0x0000000007044e98                wf_dl_Circle_mesh_vtx_16
                0x0000000007044fb8                wf_dl_Circle_mesh_tri_15
                0x0000000007045008                wf_dl_Circle_mesh_vtx_15
                0x0000000007045168                wf_dl_Circle_mesh_tri_14
                0x0000000007045210                wf_dl_Circle_mesh_vtx_14
                0x00000000070454f0                wf_dl_Circle_mesh_tri_13
                0x0000000007045518                wf_dl_Circle_mesh_vtx_13
                0x0000000007045608                wf_dl_Circle_mesh_tri_12
                0x00000000070456e0                wf_dl_Circle_mesh_vtx_12
                0x0000000007045980                wf_dl_Circle_mesh_tri_11
                0x0000000007045aa0                wf_dl_Circle_mesh_vtx_11
                0x0000000007045e30                wf_dl_Circle_mesh_tri_10
                0x0000000007045e58                wf_dl_Circle_mesh_vtx_10
                0x0000000007045f18                wf_dl_Circle_mesh_tri_9
                0x00000000070460d8                wf_dl_Circle_mesh_vtx_9
                0x0000000007046968                wf_dl_Circle_mesh_tri_8
                0x0000000007046988                wf_dl_Circle_mesh_vtx_8
                0x0000000007046a08                wf_dl_Circle_mesh_tri_7
                0x0000000007046a70                wf_dl_Circle_mesh_vtx_7
                0x0000000007046bf0                wf_dl_Circle_mesh_tri_6
                0x0000000007046c20                wf_dl_Circle_mesh_vtx_6
                0x0000000007046d00                wf_dl_Circle_mesh_tri_5
                0x0000000007046d50                wf_dl_Circle_mesh_vtx_5
                0x0000000007046f50                wf_dl_Circle_mesh_tri_4
                0x0000000007046fa0                wf_dl_Circle_mesh_vtx_4
                0x00000000070470a0                wf_dl_Circle_mesh_tri_3
                0x00000000070470b8                wf_dl_Circle_mesh_vtx_3
                0x0000000007047118                wf_dl_Circle_mesh_tri_2
                0x0000000007047150                wf_dl_Circle_mesh_vtx_2
                0x0000000007047270                wf_dl_Circle_mesh_tri_1
                0x00000000070472e8                wf_dl_Circle_mesh_vtx_1
                0x0000000007047528                wf_dl_Circle_mesh_tri_0
                0x0000000007047590                wf_dl_Circle_mesh_vtx_0
                0x0000000007047700                wf_dl_ZZZZZZmaingeometry_002_mesh_layer_6_tri_0
                0x0000000007047758                wf_dl_ZZZZZZmaingeometry_002_mesh_layer_6_vtx_0
                0x00000000070478c8                wf_dl_ZZZZZZmaingeometry_001_mesh_layer_0_tri_0
                0x0000000007047ac0                wf_dl_ZZZZZZmaingeometry_001_mesh_layer_0_vtx_0
                0x0000000007047cf0                wf_dl_ZZZZZZmaingeometry_mesh_tri_1
                0x0000000007047d08                wf_dl_ZZZZZZmaingeometry_mesh_vtx_1
                0x0000000007047d38                wf_dl_ZZZZZZmaingeometry_mesh_tri_0
                0x0000000007047f18                wf_dl_ZZZZZZmaingeometry_mesh_vtx_0
                0x00000000070484d8                wf_dl_STAR4domeinsidecpucull_mesh_tri_0
                0x0000000007048538                wf_dl_STAR4domeinsidecpucull_mesh_vtx_0
                0x0000000007048698                wf_dl_STAR4domeinside_solidcpucull_mesh_tri_1
                0x00000000070486b8                wf_dl_STAR4domeinside_solidcpucull_mesh_vtx_1
                0x0000000007048718                wf_dl_STAR4domeinside_solidcpucull_mesh_tri_0
                0x0000000007048730                wf_dl_STAR4domeinside_solidcpucull_mesh_vtx_0
                0x0000000007048770                wf_dl_REDCOINDOMEinsidecpucull_mesh_tri_0
                0x0000000007048810                wf_dl_REDCOINDOMEinsidecpucull_mesh_vtx_0
                0x0000000007048a50                wf_dl_REDCOINDOMEinside_solid2cpucull_mesh_tri_4
                0x0000000007048aa0                wf_dl_REDCOINDOMEinside_solid2cpucull_mesh_vtx_4
                0x0000000007048bd0                wf_dl_REDCOINDOMEinside_solid2cpucull_mesh_tri_3
                0x0000000007048bf0                wf_dl_REDCOINDOMEinside_solid2cpucull_mesh_vtx_3
                0x0000000007048c40                wf_dl_REDCOINDOMEinside_solid2cpucull_mesh_tri_2
                0x0000000007048ca0                wf_dl_REDCOINDOMEinside_solid2cpucull_mesh_vtx_2
                0x0000000007048da0                wf_dl_REDCOINDOMEinside_solid2cpucull_mesh_tri_1
                0x0000000007048e60                wf_dl_REDCOINDOMEinside_solid2cpucull_mesh_vtx_1
                0x0000000007049160                wf_dl_REDCOINDOMEinside_solid2cpucull_mesh_tri_0
                0x0000000007049178                wf_dl_REDCOINDOMEinside_solid2cpucull_mesh_vtx_0
                0x00000000070491b8                wf_dl_REDCOINDOMEinside_ALPHAcpucull_mesh_tri_0
                0x0000000007049230                wf_dl_REDCOINDOMEinside_ALPHAcpucull_mesh_vtx_0
                0x0000000007049530                wf_dl_FSTAR1DOME_mesh_tri_0
                0x0000000007049560                wf_dl_FSTAR1DOME_mesh_vtx_0
                0x00000000070495f0                wf_dl_Frocks_mesh_layer_1_tri_0
                0x0000000007049740                wf_dl_Frocks_mesh_layer_1_vtx_0
                0x0000000007049d70                wf_dl_Frocks_mesh_tri_1
                0x0000000007049de0                wf_dl_Frocks_mesh_vtx_1
                0x0000000007049f60                wf_dl_Frocks_mesh_tri_0
                0x0000000007049fc8                wf_dl_Frocks_mesh_vtx_0
                0x000000000704a148                wf_dl_freeplaysub_mesh_tri_3
                0x000000000704a168                wf_dl_freeplaysub_mesh_vtx_3
                0x000000000704a1b8                wf_dl_freeplaysub_mesh_tri_2
                0x000000000704a230                wf_dl_freeplaysub_mesh_vtx_2
                0x000000000704a4b0                wf_dl_freeplaysub_mesh_tri_1
                0x000000000704a510                wf_dl_freeplaysub_mesh_vtx_1
                0x000000000704a660                wf_dl_freeplaysub_mesh_tri_0
                0x000000000704a680                wf_dl_freeplaysub_mesh_vtx_0
                0x000000000704a6e0                wf_dl_freeplaysub_mesh_vtx_cull
                0x000000000704a760                wf_dl_FBridges_001_mesh_tri_1
                0x000000000704a7c8                wf_dl_FBridges_001_mesh_vtx_1
                0x000000000704a988                wf_dl_FBridges_001_mesh_tri_0
                0x000000000704aa38                wf_dl_FBridges_001_mesh_vtx_0
                0x000000000704ac18                wf_dl_FBridges_001_mesh_vtx_cull
                0x000000000704ac98                wf_dl_FBridges_mesh_tri_1
                0x000000000704acd8                wf_dl_FBridges_mesh_vtx_1
                0x000000000704add8                wf_dl_FBridges_mesh_tri_0
                0x000000000704ae30                wf_dl_FBridges_mesh_vtx_0
                0x000000000704af30                wf_dl_FBridges_mesh_vtx_cull
                0x000000000704afb0                wf_dl_EDomes_mesh_tri_3
                0x000000000704b058                wf_dl_EDomes_mesh_vtx_3
                0x000000000704b318                wf_dl_EDomes_mesh_tri_2
                0x000000000704b3f8                wf_dl_EDomes_mesh_vtx_2
                0x000000000704b9b8                wf_dl_EDomes_mesh_tri_1
                0x000000000704bab8                wf_dl_EDomes_mesh_vtx_1
                0x000000000704c068                wf_dl_EDomes_mesh_tri_0
                0x000000000704c408                wf_dl_EDomes_mesh_vtx_0
                0x000000000704d3c8                wf_dl_domeinside3cpucull_mesh_tri_1
                0x000000000704d410                wf_dl_domeinside3cpucull_mesh_vtx_1
                0x000000000704d4f0                wf_dl_domeinside3cpucull_mesh_tri_0
                0x000000000704d5c0                wf_dl_domeinside3cpucull_mesh_vtx_0
                0x000000000704d8e0                wf_dl_domeinside3_SOLIDcpucull_mesh_tri_1
                0x000000000704d910                wf_dl_domeinside3_SOLIDcpucull_mesh_vtx_1
                0x000000000704d9b0                wf_dl_domeinside3_SOLIDcpucull_mesh_tri_0
                0x000000000704d9c8                wf_dl_domeinside3_SOLIDcpucull_mesh_vtx_0
                0x000000000704da08                wf_dl_domeinside2cpucull_mesh_tri_0
                0x000000000704dad8                wf_dl_domeinside2cpucull_mesh_vtx_0
                0x000000000704de48                wf_dl_domeinside2_SOLIDLIGHTScpucull_mesh_tri_0
                0x000000000704df08                wf_dl_domeinside2_SOLIDLIGHTScpucull_mesh_vtx_0
                0x000000000704e408                wf_dl_domeinside2_SOLIDLIGHTScpucull_mesh_vtx_cull
                0x000000000704e488                wf_dl_domeinside2_SOLIDcpucull_mesh_tri_5
                0x000000000704e4c0                wf_dl_domeinside2_SOLIDcpucull_mesh_vtx_5
                0x000000000704e540                wf_dl_domeinside2_SOLIDcpucull_mesh_tri_4
                0x000000000704e5f8                wf_dl_domeinside2_SOLIDcpucull_mesh_vtx_4
                0x000000000704e938                wf_dl_domeinside2_SOLIDcpucull_mesh_tri_3
                0x000000000704e990                wf_dl_domeinside2_SOLIDcpucull_mesh_vtx_3
                0x000000000704eaf0                wf_dl_domeinside2_SOLIDcpucull_mesh_tri_2
                0x000000000704eb88                wf_dl_domeinside2_SOLIDcpucull_mesh_vtx_2
                0x000000000704ee08                wf_dl_domeinside2_SOLIDcpucull_mesh_tri_1
                0x000000000704ee38                wf_dl_domeinside2_SOLIDcpucull_mesh_vtx_1
                0x000000000704ef38                wf_dl_domeinside2_SOLIDcpucull_mesh_tri_0
                0x000000000704ef50                wf_dl_domeinside2_SOLIDcpucull_mesh_vtx_0
                0x000000000704ef90                wf_dl_domeinside2_Alphacpucull_mesh_tri_1
                0x000000000704efd0                wf_dl_domeinside2_Alphacpucull_mesh_vtx_1
                0x000000000704f0f0                wf_dl_domeinside2_Alphacpucull_mesh_tri_0
                0x000000000704f178                wf_dl_domeinside2_Alphacpucull_mesh_vtx_0
                0x000000000704f418                wf_dl_domeinside1cpucull_mesh_tri_0
                0x000000000704f4f0                wf_dl_domeinside1cpucull_mesh_vtx_0
                0x000000000704f850                wf_dl_domeinside1_SOLIDLIGHTScpucull_mesh_tri_0
                0x000000000704f8e0                wf_dl_domeinside1_SOLIDLIGHTScpucull_mesh_vtx_0
                0x000000000704fca0                wf_dl_domeinside1_SOLIDLIGHTScpucull_mesh_vtx_cull
                0x000000000704fd20                wf_dl_domeinside1_SOLIDcpucull_mesh_tri_3
                0x000000000704fd40                wf_dl_domeinside1_SOLIDcpucull_mesh_vtx_3
                0x000000000704fdc0                wf_dl_domeinside1_SOLIDcpucull_mesh_tri_2
                0x000000000704fe00                wf_dl_domeinside1_SOLIDcpucull_mesh_vtx_2
                0x000000000704ff20                wf_dl_domeinside1_SOLIDcpucull_mesh_tri_1
                0x000000000704ffd8                wf_dl_domeinside1_SOLIDcpucull_mesh_vtx_1
                0x0000000007050348                wf_dl_domeinside1_SOLIDcpucull_mesh_tri_0
                0x00000000070503e8                wf_dl_domeinside1_SOLIDcpucull_mesh_vtx_0
                0x0000000007050738                wf_dl_domeinside1_Alphacpucull_mesh_tri_0
                0x0000000007050768                wf_dl_domeinside1_Alphacpucull_mesh_vtx_0
                0x0000000007050898                wf_dl_AAAAAcorals_mesh_tri_0
                0x00000000070508c0                wf_dl_AAAAAcorals_mesh_vtx_0
                0x00000000070509e0                wf_dl_tex2_i8
                0x0000000007050de0                wf_dl_tex2_i8_aligner
                0x0000000007050de8                wf_dl__000429A0_32x32_i8_i8
                0x00000000070511e8                wf_dl__000429A0_32x32_i8_i8_aligner
                0x00000000070511f0                wf_dl_F221_Floor02_ia8
                0x00000000070521f0                wf_dl_F221_Floor02_ia8_aligner
                0x00000000070521f8                wf_dl_s12_kaidan_01_3D000_i8
                0x00000000070531f8                wf_dl_s12_kaidan_01_3D000_i8_aligner
                0x0000000007053200                wf_dl_GrdSamus1Floor3_i4
                0x0000000007054200                wf_dl_GrdSamus1Floor3_i4_aligner
                0x0000000007054208                wf_dl__3dlbrick_i8
                0x0000000007055208                wf_dl__3dlbrick_i8_aligner
                0x0000000007055210                wf_dl_SCPStone02_i8
                0x0000000007056210                wf_dl_SCPStone02_i8_aligner
                0x0000000007056218                wf_dl_ss_rock_floor_ci4_ci4_pal_rgba16
                0x0000000007056238                wf_dl_ss_rock_floor_ci4_ci4_pal_rgba16_aligner
                0x0000000007056240                wf_dl_ss_rock_floor_ci4_ci4
                0x0000000007056a40                wf_dl_ss_rock_floor_ci4_ci4_aligner
                0x0000000007056a48                wf_dl_segment2_05800_rgba16__5__i8
                0x0000000007057a48                wf_dl_segment2_05800_rgba16__5__i8_aligner
                0x0000000007057a50                wf_dl_woodI8_i8
                0x0000000007058a50                wf_dl_woodI8_i8_aligner
                0x0000000007058a58                wf_dl__8_i8
                0x0000000007059a58                wf_dl__8_i8_aligner
                0x0000000007059a60                wf_dl_KKIIDDZZ_DAT_624__p00__2__i8
                0x000000000705aa60                wf_dl_KKIIDDZZ_DAT_624__p00__2__i8_aligner
                0x000000000705aa68                wf_dl__00009908_64x32_rgba16_i8
                0x000000000705b268                wf_dl__00009908_64x32_rgba16_i8_aligner
                0x000000000705b270                wf_dl_B200_r10_StageA3_i8
                0x000000000705ba70                wf_dl_B200_r10_StageA3_i8_aligner
                0x000000000705ba78                wf_dl_INTER_ALL_40__p00_i8
                0x000000000705ca78                wf_dl_INTER_ALL_40__p00_i8_aligner
                0x000000000705ca80                wf_dl_ert34tert0x_06_i4
                0x000000000705da80                wf_dl_ert34tert0x_06_i4_aligner
                0x000000000705da88                wf_dl__0xA4A0_ci4_pal_rgba16
                0x000000000705daa8                wf_dl__0xA4A0_ci4_pal_rgba16_aligner
                0x000000000705dab0                wf_dl__0xA4A0_ci4
                0x000000000705e2b0                wf_dl__0xA4A0_ci4_aligner
                0x000000000705e2b8                wf_dl_TestThisPlz_i8
                0x000000000705f2b8                wf_dl_TestThisPlz_i8_aligner
                0x000000000705f2c0                wf_dl_SUPER_MARIO_64_5D5BB4D6_0_2_rgb_i8
                0x00000000070602c0                wf_dl_SUPER_MARIO_64_5D5BB4D6_0_2_rgb_i8_aligner
                0x00000000070602c8                wf_dl__90E3FC26A91028C3BC5CF95C36935342_ci4_pal_rgba16
                0x00000000070602e0                wf_dl__90E3FC26A91028C3BC5CF95C36935342_ci4_pal_rgba16_aligner
                0x00000000070602e8                wf_dl__90E3FC26A91028C3BC5CF95C36935342_ci4
                0x0000000007060ae8                wf_dl__90E3FC26A91028C3BC5CF95C36935342_ci4_aligner
                0x0000000007060af0                wf_dl_ejfruwefduisfgisdgfiweirftTxm_GDR02tenjoKABE01___Kopie_ci8_pal_rgba16
                0x0000000007060bf0                wf_dl_ejfruwefduisfgisdgfiweirftTxm_GDR02tenjoKABE01___Kopie_ci8_pal_rgba16_aligner
                0x0000000007060bf8                wf_dl_ejfruwefduisfgisdgfiweirftTxm_GDR02tenjoKABE01___Kopie_ci8
                0x00000000070613f8                wf_dl_ejfruwefduisfgisdgfiweirftTxm_GDR02tenjoKABE01___Kopie_ci8_aligner
                0x0000000007061400                wf_dl_cobblei4_i4
                0x0000000007062400                wf_dl_cobblei4_i4_aligner
                0x0000000007062408                wf_dl__38010000_fmt0431_slice0_mip01_512x512_tm04_i4
                0x0000000007063408                wf_dl__38010000_fmt0431_slice0_mip01_512x512_tm04_i4_aligner
                0x0000000007063410                wf_dl_alguety_nz_ia8
                0x0000000007064410                wf_dl_alguety_nz_ia8_aligner
                0x0000000007064418                wf_dl_grillage_txy_nz_ia8_copy
                0x0000000007064818                wf_dl_grillage_txy_nz_ia8_copy_aligner
                0x0000000007064820                wf_dl_pipetope_ci4_pal_rgba16
                0x0000000007064828                wf_dl_pipetope_ci4_pal_rgba16_aligner
                0x0000000007064830                wf_dl_pipetope_ci4
                0x0000000007064a30                wf_dl_pipetope_ci4_aligner
                0x0000000007064a38                wf_dl_pipe_ci4_pal_rgba16
                0x0000000007064a40                wf_dl_pipe_ci4_pal_rgba16_aligner
                0x0000000007064a48                wf_dl_pipe_ci4
                0x0000000007064c48                wf_dl_pipe_ci4_aligner
                0x0000000007064c50                wf_dl_blocc_ci4_pal_rgba16
                0x0000000007064c58                wf_dl_blocc_ci4_pal_rgba16_aligner
                0x0000000007064c60                wf_dl_blocc_ci4
                0x0000000007064e60                wf_dl_blocc_ci4_aligner
                0x0000000007064e68                wf_dl_lightia8_ia8
                0x0000000007065268                wf_dl_lightia8_ia8_aligner
                0x0000000007065270                wf_dl_whaddafol_ci4_pal_rgba16
                0x0000000007065278                wf_dl_whaddafol_ci4_pal_rgba16_aligner
                0x0000000007065280                wf_dl_whaddafol_ci4
                0x0000000007065300                wf_dl_whaddafol_ci4_aligner
                0x0000000007065308                wf_dl_whadda_ci4_pal_rgba16
                0x0000000007065310                wf_dl_whadda_ci4_pal_rgba16_aligner
                0x0000000007065318                wf_dl_whadda_ci4
                0x0000000007065398                wf_dl_whadda_ci4_aligner
                0x00000000070653a0                wf_dl__119433_ci4_pal_rgba16
                0x00000000070653a8                wf_dl__119433_ci4_pal_rgba16_aligner
                0x00000000070653b0                wf_dl__119433_ci4
                0x00000000070655b0                wf_dl__119433_ci4_aligner
                0x00000000070655b8                wf_dl_floor_ci4_pal_rgba16
                0x00000000070655c0                wf_dl_floor_ci4_pal_rgba16_aligner
                0x00000000070655c8                wf_dl_floor_ci4
                0x0000000007065648                wf_dl_floor_ci4_aligner
                0x0000000007065650                wf_dl_rocks_ci4_pal_rgba16
                0x0000000007065658                wf_dl_rocks_ci4_pal_rgba16_aligner
                0x0000000007065660                wf_dl_rocks_ci4
                0x00000000070656e0                wf_dl_rocks_ci4_aligner
                0x00000000070656e8                wf_dl_t_renga_W13k_i8
                0x00000000070666e8                wf_dl_t_renga_W13k_i8_aligner
                0x00000000070666f0                wf_dl_ATemple_0015_tex_i8
                0x00000000070676f0                wf_dl_ATemple_0015_tex_i8_aligner
                0x00000000070676f8                wf_dl_ATemple_0023_tex_i4
                0x00000000070686f8                wf_dl_ATemple_0023_tex_i4_aligner
                0x0000000007068700                wf_dl__6E17B6C94D61459D151FA79BFCC0CA79_ia8
                0x0000000007069700                wf_dl__6E17B6C94D61459D151FA79BFCC0CA79_ia8_aligner
                0x0000000007069708                wf_dl_lmapshine_i8
                0x000000000706a708                wf_dl_lmapshine_i8_aligner
                0x000000000706a710                wf_dl_KKIIDDZZ_DAT_1724__p00_ia8
                0x000000000706b710                wf_dl_KKIIDDZZ_DAT_1724__p00_ia8_aligner
                0x000000000706b718                wf_dl__3503088_ci4_pal_rgba16
                0x000000000706b738                wf_dl__3503088_ci4_pal_rgba16_aligner
                0x000000000706b740                wf_dl__3503088_ci4
                0x000000000706bf40                wf_dl__3503088_ci4_aligner
                0x000000000706bf48                wf_dl_KKIIDDZZ_DAT_2935__p00_i4
                0x000000000706c748                wf_dl_KKIIDDZZ_DAT_2935__p00_i4_aligner
                0x000000000706c750                wf_dl_rock_nm01_stonewall01_dif_i4
                0x000000000706cf50                wf_dl_rock_nm01_stonewall01_dif_i4_aligner
                0x000000000706cf58                wf_dl__391c4000_fmt0431_slice0_mip00_128x128_tm04_i8
                0x000000000706df58                wf_dl__391c4000_fmt0431_slice0_mip00_128x128_tm04_i8_aligner
                0x000000000706df60                wf_dl_hb_yane_ci8_pal_rgba16
                0x000000000706dfa0                wf_dl_hb_yane_ci8_pal_rgba16_aligner
                0x000000000706dfa8                wf_dl_hb_yane_ci8
                0x000000000706e3a8                wf_dl_hb_yane_ci8_aligner
                0x000000000706e3b0                wf_dl_GMSE01_48451011_14_rgba16
                0x000000000706ebb0                wf_dl_GMSE01_48451011_14_rgba16_aligner
                0x000000000706ebb8                wf_dl_BOMBERMAN_HERO_2FAED90D_2_0_9E39D502_ciByRGBA_rgba16
                0x000000000706f3b8                wf_dl_BOMBERMAN_HERO_2FAED90D_2_0_9E39D502_ciByRGBA_rgba16_aligner
                0x000000000706f3c0                wf_dl_ScoreAttackManInd_i8
                0x00000000070703c0                wf_dl_ScoreAttackManInd_i8_aligner
                0x00000000070703c8                wf_dl_F301_2b_cmn_GateRail01_T_i8
                0x0000000007070bc8                wf_dl_F301_2b_cmn_GateRail01_T_i8_aligner
                0x0000000007070bd0                wf_dl_KKIIDDZZ_DAT_1730__p00_i4
                0x00000000070713d0                wf_dl_KKIIDDZZ_DAT_1730__p00_i4_aligner
                0x00000000070713d8                wf_dl__3dlbrick_i4
                0x0000000007071bd8                wf_dl__3dlbrick_i4_aligner
                0x0000000007071be0                wf_dl_LEGORacers_BDD1EE23_2_0_402C3A7D_ci_i8
                0x0000000007072be0                wf_dl_LEGORacers_BDD1EE23_2_0_402C3A7D_ci_i8_aligner
                0x0000000007072be8                wf_dl__00020860_16x64_rgba16_i8
                0x0000000007072fe8                wf_dl__00020860_16x64_rgba16_i8_aligner
                0x0000000007072ff0                wf_dl__0000A160_64x32_rgba16_i8
                0x00000000070737f0                wf_dl__0000A160_64x32_rgba16_i8_aligner
                0x00000000070737f8                wf_dl_tex1_64x64_1fbd8a6b46051e70_14_i8
                0x00000000070747f8                wf_dl_tex1_64x64_1fbd8a6b46051e70_14_i8_aligner
                0x0000000007074800                wf_dl_rrow_asset_772_i8
                0x0000000007074c00                wf_dl_rrow_asset_772_i8_aligner
                0x0000000007074c08                wf_dl_RMGP01_fc19103e_14_i8
                0x0000000007075c08                wf_dl_RMGP01_fc19103e_14_i8_aligner
                0x0000000007075c10                wf_dl_RockPattern18_CI4_i4
                0x0000000007076c10                wf_dl_RockPattern18_CI4_i4_aligner
                0x0000000007076c18                wf_dl_rrow_asset_356_i4
                0x0000000007077818                wf_dl_rrow_asset_356_i4_aligner
                0x0000000007077820                wf_dl_F017r_carpet_p_ia8
                0x0000000007078020                wf_dl_F017r_carpet_p_ia8_aligner
                0x0000000007078028                wf_dl_NewglassC2trans_raymarch_SDF_v1_ia8
                0x0000000007079028                wf_dl_NewglassC2trans_raymarch_SDF_v1_ia8_aligner
                0x0000000007079030                wf_dl__2228_rgba16
                0x0000000007079830                wf_dl__2228_rgba16_aligner
                0x0000000007079838                wf_dl__234_rgba16
                0x000000000707a038                wf_dl__234_rgba16_aligner
                0x000000000707a040                wf_dl_beach_algue_txy_naz_ia4
                0x000000000707a840                wf_dl_beach_algue_txy_naz_ia4_aligner
                0x000000000707a848                wf_dl_D201_cmn_Tuta01I8_ia4
                0x000000000707b048                wf_dl_D201_cmn_Tuta01I8_ia4_aligner
                0x000000000707b050                wf_dl_WallPattern003Mip_ci4_pal_rgba16
                0x000000000707b070                wf_dl_WallPattern003Mip_ci4_pal_rgba16_aligner
                0x000000000707b078                wf_dl_WallPattern003Mip_ci4
                0x000000000707b878                wf_dl_WallPattern003Mip_ci4_aligner
                0x000000000707b880                wf_dl__36_ci4_pal_rgba16
                0x000000000707b8a0                wf_dl__36_ci4_pal_rgba16_aligner
                0x000000000707b8a8                wf_dl__36_ci4
                0x000000000707c0a8                wf_dl__36_ci4_aligner
                0x000000000707c0b0                wf_dl_floorlbockCI4_ci4_pal_rgba16_copy
                0x000000000707c0c8                wf_dl_floorlbockCI4_ci4_pal_rgba16_copy_aligner
                0x000000000707c0d0                wf_dl_floorlbockCI4_ci4_copy
                0x000000000707c8d0                wf_dl_floorlbockCI4_ci4_copy_aligner
                0x000000000707c8d8                wf_dl__96CE0367BF07A7EFD30B96434B543157_ci4_pal_rgba16_copy
                0x000000000707c8f8                wf_dl__96CE0367BF07A7EFD30B96434B543157_ci4_pal_rgba16_copy_aligner
                0x000000000707c900                wf_dl__96CE0367BF07A7EFD30B96434B543157_ci4_copy
                0x000000000707cd00                wf_dl__96CE0367BF07A7EFD30B96434B543157_ci4_copy_aligner
                0x000000000707cd08                wf_dl_barukoni_wood_ci4_pal_rgba16_copy
                0x000000000707cd28                wf_dl_barukoni_wood_ci4_pal_rgba16_copy_aligner
                0x000000000707cd30                wf_dl_barukoni_wood_ci4_copy
                0x000000000707d530                wf_dl_barukoni_wood_ci4_copy_aligner
                0x000000000707d538                wf_dl_seahorse1_rgba16
                0x000000000707e538                wf_dl_seahorse1_rgba16_aligner
                0x000000000707e540                wf_dl_paiunting1_rgba16
                0x000000000707f540                wf_dl_paiunting1_rgba16_aligner
                0x000000000707f548                wf_dl_seahorse2_rgba16
                0x0000000007080548                wf_dl_seahorse2_rgba16_aligner
                0x0000000007080550                wf_dl_painting2_rgba16
                0x0000000007081550                wf_dl_painting2_rgba16_aligner
                0x0000000007081558                wf_dl_Turtkel_i8
                0x0000000007082558                wf_dl_Turtkel_i8_aligner
                0x0000000007082560                wf_dl_PAPER_MARIO_533CFC17_2_0_C563172C_ciByRGBA_ci4_pal_rgba16
                0x0000000007082570                wf_dl_PAPER_MARIO_533CFC17_2_0_C563172C_ciByRGBA_ci4_pal_rgba16_aligner
                0x0000000007082578                wf_dl_PAPER_MARIO_533CFC17_2_0_C563172C_ciByRGBA_ci4
                0x0000000007082978                wf_dl_PAPER_MARIO_533CFC17_2_0_C563172C_ciByRGBA_ci4_aligner
                0x0000000007082980                wf_dl_brock_aka01_ci8_pal_rgba16
                0x00000000070829d8                wf_dl_brock_aka01_ci8_pal_rgba16_aligner
                0x00000000070829e0                wf_dl_brock_aka01_ci8
                0x0000000007082de0                wf_dl_brock_aka01_ci8_aligner
                0x0000000007082de8                wf_dl_nowhitgeline_ci8_pal_rgba16
                0x0000000007082e18                wf_dl_nowhitgeline_ci8_pal_rgba16_aligner
                0x0000000007082e20                wf_dl_nowhitgeline_ci8
                0x0000000007083620                wf_dl_nowhitgeline_ci8_aligner
                0x0000000007083628                wf_dl_GALE01_b6b830f2_9_i8
                0x0000000007084628                wf_dl_GALE01_b6b830f2_9_i8_aligner
                0x0000000007084630                wf_dl__3C275B437F767699FD44859CDD3B14AA_ci4_pal_rgba16
                0x0000000007084650                wf_dl__3C275B437F767699FD44859CDD3B14AA_ci4_pal_rgba16_aligner
                0x0000000007084658                wf_dl__3C275B437F767699FD44859CDD3B14AA_ci4
                0x0000000007084e58                wf_dl__3C275B437F767699FD44859CDD3B14AA_ci4_aligner
                0x0000000007084e60                wf_dl_Glover_4CFF3A6F_0_0_3ECA7F96_ciByRGBA_ci4_pal_rgba16
                0x0000000007084e80                wf_dl_Glover_4CFF3A6F_0_0_3ECA7F96_ciByRGBA_ci4_pal_rgba16_aligner
                0x0000000007084e88                wf_dl_Glover_4CFF3A6F_0_0_3ECA7F96_ciByRGBA_ci4
                0x0000000007085088                wf_dl_Glover_4CFF3A6F_0_0_3ECA7F96_ciByRGBA_ci4_aligner
                0x0000000007085090                wf_dl_gareki_i8
                0x0000000007086090                wf_dl_gareki_i8_aligner
                0x0000000007086098                wf_dl_domereflection2_ci8_pal_rgba16
                0x00000000070860d8                wf_dl_domereflection2_ci8_pal_rgba16_aligner
                0x00000000070860e0                wf_dl_domereflection2_ci8
                0x00000000070864e0                wf_dl_domereflection2_ci8_aligner
                0x00000000070864e8                wf_dl_OutsideStone_i4
                0x00000000070874e8                wf_dl_OutsideStone_i4_aligner
                0x00000000070874f0                wf_dl_MarioParty3_CABAE90C_2_0_ci_ci4_pal_rgba16
                0x0000000007087510                wf_dl_MarioParty3_CABAE90C_2_0_ci_ci4_pal_rgba16_aligner
                0x0000000007087518                wf_dl_MarioParty3_CABAE90C_2_0_ci_ci4
                0x0000000007087718                wf_dl_MarioParty3_CABAE90C_2_0_ci_ci4_aligner
                0x0000000007087720                wf_dl_tetuyuka_ci8_pal_rgba16
                0x0000000007087780                wf_dl_tetuyuka_ci8_pal_rgba16_aligner
                0x0000000007087788                wf_dl_tetuyuka_ci8
                0x0000000007087b88                wf_dl_tetuyuka_ci8_aligner
                0x0000000007087b90                wf_dl_yane_y_s_ci8_pal_rgba16
                0x0000000007087c40                wf_dl_yane_y_s_ci8_pal_rgba16_aligner
                0x0000000007087c48                wf_dl_yane_y_s_ci8
                0x0000000007088048                wf_dl_yane_y_s_ci8_aligner
                0x0000000007088050                wf_dl_coarse_dirt_ci8_pal_rgba16
                0x0000000007088090                wf_dl_coarse_dirt_ci8_pal_rgba16_aligner
                0x0000000007088098                wf_dl_coarse_dirt_ci8
                0x0000000007088498                wf_dl_coarse_dirt_ci8_aligner
                0x00000000070884a0                wf_dl_Bricks_and_Crack_1_ci8_pal_rgba16
                0x0000000007088580                wf_dl_Bricks_and_Crack_1_ci8_pal_rgba16_aligner
                0x0000000007088588                wf_dl_Bricks_and_Crack_1_ci8
                0x0000000007088988                wf_dl_Bricks_and_Crack_1_ci8_aligner
                0x0000000007088990                wf_dl__96CE0367BF07A7EFD30B96434B543157_ci4_pal_rgba16
                0x00000000070889b0                wf_dl__96CE0367BF07A7EFD30B96434B543157_ci4_pal_rgba16_aligner
                0x00000000070889b8                wf_dl__96CE0367BF07A7EFD30B96434B543157_ci4
                0x0000000007088db8                wf_dl__96CE0367BF07A7EFD30B96434B543157_ci4_aligner
                0x0000000007088dc0                wf_dl__773D8A8E218EAAF926698DF9BEA048C8_ci4_pal_rgba16
                0x0000000007088de0                wf_dl__773D8A8E218EAAF926698DF9BEA048C8_ci4_pal_rgba16_aligner
                0x0000000007088de8                wf_dl__773D8A8E218EAAF926698DF9BEA048C8_ci4
                0x00000000070895e8                wf_dl__773D8A8E218EAAF926698DF9BEA048C8_ci4_aligner
                0x00000000070895f0                wf_dl_floorlbockCI4_ci4_pal_rgba16
                0x0000000007089608                wf_dl_floorlbockCI4_ci4_pal_rgba16_aligner
                0x0000000007089610                wf_dl_floorlbockCI4_ci4
                0x0000000007089e10                wf_dl_floorlbockCI4_ci4_aligner
                0x0000000007089e18                wf_dl_bbh_rgba16
                0x000000000708db98                wf_dl_bbh_rgba16_aligner
                0x000000000708dba0                wf_dl_WaterTestgrey_i4
                0x000000000708e3a0                wf_dl_WaterTestgrey_i4_aligner
                0x000000000708e3a8                wf_dl_s06_uvwater_02_52D80_i4
                0x000000000708eba8                wf_dl_s06_uvwater_02_52D80_i4_aligner
                0x000000000708ebb0                wf_dl__311AE0525B6022A7CE70D92EC5748D14__2__i4
                0x000000000708f3b0                wf_dl__311AE0525B6022A7CE70D92EC5748D14__2__i4_aligner
                0x000000000708f3b8                wf_dl_tomacco_bushel_bmp_i8
                0x000000000708f7b8                wf_dl_tomacco_bushel_bmp_i8_aligner
                0x000000000708f7c0                wf_dl_Shell2_ia8
                0x00000000070907c0                wf_dl_Shell2_ia8_aligner
                0x00000000070907c8                wf_dl_Lamp_ci4_pal_rgba16
                0x00000000070907e8                wf_dl_Lamp_ci4_pal_rgba16_aligner
                0x00000000070907f0                wf_dl_Lamp_ci4
                0x0000000007090ff0                wf_dl_Lamp_ci4_aligner
                0x0000000007090ff8                wf_dl__311AE0525B6022A7CE70D92EC5748D14__2__ia8
                0x0000000007091ff8                wf_dl__311AE0525B6022A7CE70D92EC5748D14__2__ia8_aligner
                0x0000000007092000                wf_dl_marine4_rgba16
                0x0000000007093000                wf_dl_marine4_rgba16_aligner
                0x0000000007093008                wf_dl_marine3_ci4_pal_rgba16
                0x0000000007093018                wf_dl_marine3_ci4_pal_rgba16_aligner
                0x0000000007093020                wf_dl_marine3_ci4
                0x00000000070930a0                wf_dl_marine3_ci4_aligner
                0x00000000070930a8                wf_dl_Unbenannt_2_rgba16
                0x00000000070938a8                wf_dl_Unbenannt_2_rgba16_aligner
                0x00000000070938b0                wf_dl_submarine1_ci8_pal_rgba16
                0x00000000070938e8                wf_dl_submarine1_ci8_pal_rgba16_aligner
                0x00000000070938f0                wf_dl_submarine1_ci8
                0x00000000070939f0                wf_dl_submarine1_ci8_aligner
                0x00000000070939f8                wf_dl_ct_saku_ci8_pal_rgba16
                0x0000000007093a20                wf_dl_ct_saku_ci8_pal_rgba16_aligner
                0x0000000007093a28                wf_dl_ct_saku_ci8
                0x0000000007093e28                wf_dl_ct_saku_ci8_aligner
                0x0000000007093e30                wf_dl__18F264B63897962441AFE2E19DC39513_ci4_pal_rgba16
                0x0000000007093e48                wf_dl__18F264B63897962441AFE2E19DC39513_ci4_pal_rgba16_aligner
                0x0000000007093e50                wf_dl__18F264B63897962441AFE2E19DC39513_ci4
                0x0000000007094650                wf_dl__18F264B63897962441AFE2E19DC39513_ci4_aligner
                0x0000000007094658                wf_dl__5EBF00FA552CFA3E87841A02707C16FF_ci4_pal_rgba16
                0x0000000007094678                wf_dl__5EBF00FA552CFA3E87841A02707C16FF_ci4_pal_rgba16_aligner
                0x0000000007094680                wf_dl__5EBF00FA552CFA3E87841A02707C16FF_ci4
                0x0000000007094e80                wf_dl__5EBF00FA552CFA3E87841A02707C16FF_ci4_aligner
                0x0000000007094e88                wf_dl_globerim_ci4_pal_rgba16
                0x0000000007094e98                wf_dl_globerim_ci4_pal_rgba16_aligner
                0x0000000007094ea0                wf_dl_globerim_ci4
                0x00000000070950a0                wf_dl_globerim_ci4_aligner
                0x00000000070950a8                wf_dl_water_fort_thing_b_ci4_pal_rgba16
                0x00000000070950c8                wf_dl_water_fort_thing_b_ci4_pal_rgba16_aligner
                0x00000000070950d0                wf_dl_water_fort_thing_b_ci4
                0x00000000070954d0                wf_dl_water_fort_thing_b_ci4_aligner
                0x00000000070954d8                wf_dl_NewglassC2_ci4_pal_rgba16
                0x00000000070954f8                wf_dl_NewglassC2_ci4_pal_rgba16_aligner
                0x0000000007095500                wf_dl_NewglassC2_ci4
                0x0000000007095d00                wf_dl_NewglassC2_ci4_aligner
                0x0000000007095d08                wf_dl_backdrop_i8
                0x0000000007096d08                wf_dl_backdrop_i8_aligner
                0x0000000007096d10                wf_dl_barukoni_wood_ci4_pal_rgba16
                0x0000000007096d30                wf_dl_barukoni_wood_ci4_pal_rgba16_aligner
                0x0000000007096d38                wf_dl_barukoni_wood_ci4
                0x0000000007097538                wf_dl_barukoni_wood_ci4_aligner
                0x0000000007097540                wf_dl_xx_12_ci8_pal_rgba16
                0x00000000070975e0                wf_dl_xx_12_ci8_pal_rgba16_aligner
                0x00000000070975e8                wf_dl_xx_12_ci8
                0x00000000070979e8                wf_dl_xx_12_ci8_aligner
                0x00000000070979f0                wf_dl_greenlight_rgba16
                0x00000000070989f0                wf_dl_greenlight_rgba16_aligner
                0x00000000070989f8                wf_dl_grillage_txy_nz_ia8
                0x0000000007098df8                wf_dl_grillage_txy_nz_ia8_aligner
                0x0000000007098e00                wf_dl_NewglassC2trans_ci4_pal_rgba16
                0x0000000007098e20                wf_dl_NewglassC2trans_ci4_pal_rgba16_aligner
                0x0000000007098e28                wf_dl_NewglassC2trans_ci4
                0x0000000007099628                wf_dl_NewglassC2trans_ci4_aligner
                0x0000000007099630                wf_dl_redlight_rgba16
                0x000000000709a630                wf_dl_redlight_rgba16_aligner
                0x000000000709a638                wf_dl_stairsC_ci4_pal_rgba16
                0x000000000709a658                wf_dl_stairsC_ci4_pal_rgba16_aligner
                0x000000000709a660                wf_dl_stairsC_ci4
                0x000000000709aa60                wf_dl_stairsC_ci4_aligner
                0x000000000709aa68                wf_dl_SUPER_MARIO_64_49A3631E_0_2_rgb_ci4_pal_rgba16
                0x000000000709aa88                wf_dl_SUPER_MARIO_64_49A3631E_0_2_rgb_ci4_pal_rgba16_aligner
                0x000000000709aa90                wf_dl_SUPER_MARIO_64_49A3631E_0_2_rgb_ci4
                0x000000000709b290                wf_dl_SUPER_MARIO_64_49A3631E_0_2_rgb_ci4_aligner
                0x000000000709b298                wf_dl_CrashBox_0mirrormirror_ci4_pal_rgba16
                0x000000000709b2b8                wf_dl_CrashBox_0mirrormirror_ci4_pal_rgba16_aligner
                0x000000000709b2c0                wf_dl_CrashBox_0mirrormirror_ci4
                0x000000000709bac0                wf_dl_CrashBox_0mirrormirror_ci4_aligner
                0x000000000709bac8                wf_dl__087732C077B363B5BD3010E30B9D4113CI4_ci4_pal_rgba16
                0x000000000709bae0                wf_dl__087732C077B363B5BD3010E30B9D4113CI4_ci4_pal_rgba16_aligner
                0x000000000709bae8                wf_dl__087732C077B363B5BD3010E30B9D4113CI4_ci4
                0x000000000709c2e8                wf_dl__087732C077B363B5BD3010E30B9D4113CI4_ci4_aligner
                0x000000000709c2f0                wf_dl_BOMBERMAN_HERO_9600E8A3_2_0_5661A3B1_ciByRGBA_i4
                0x000000000709caf0                wf_dl_BOMBERMAN_HERO_9600E8A3_2_0_5661A3B1_ciByRGBA_i4_aligner
                0x000000000709caf8                wf_dl_alguety_nz_ia4
                0x000000000709d2f8                wf_dl_alguety_nz_ia4_aligner
                0x000000000709d300                wf_dl_coral_ia16
                0x000000000709e300                wf_dl_coral_ia16_aligner
                0x000000000709e308                wf_dl_UNDERGROUNDWATER_layer5_lights
                0x000000000709e320                wf_dl_f3d_material_019_lights
                0x000000000709e338                wf_dl_f3d_material_017_lights
                0x000000000709e350                wf_dl_f3d_material_016_lights
                0x000000000709e368                wf_dl_f3d_material_005_lights
                0x000000000709e380                wf_dl_f3d_material_020_lights
                0x000000000709e398                wf_dl_f3d_material_018_lights
                0x000000000709e3b0                wf_dl_f3d_material_010_lights
                0x000000000709e3c8                wf_dl_sm64_material_099_lights
                0x000000000709e3e0                wf_dl_sm64_material_098_lights
                0x000000000709e3f8                wf_dl_f3d_material_009_lights
                0x000000000709e410                wf_dl_f3d_material_014_lights
                0x000000000709e428                wf_dl_f3d_material_015_lights
                0x000000000709e440                wf_dl_f3d_material_013_lights
                0x000000000709e458                wf_dl_f3d_material_012_lights
                0x000000000709e470                wf_dl_f3d_material_006_lights
                0x000000000709e488                wf_dl_f3d_material_022_lights
                0x000000000709e4a0                wf_dl_f3d_material_023_lights
                0x000000000709e4b8                wf_dl_f3d_material_007_lights
                0x000000000709e4d0                wf_dl_f3d_material_024_lights
                0x000000000709e4e8                wf_dl_f3d_material_021_lights
                0x000000000709e500                wf_dl_f3d_material_011_lights
                0x000000000709e518                wf_dl_f3d_material_025_lights
                0x000000000709e530                wf_dl_sm64_material_084_lights
                0x000000000709e548                wf_dl_sm64_material_075_lights
                0x000000000709e560                wf_dl_sm64_material_070_lights
                0x000000000709e578                wf_dl_sm64_material_069_lights
                0x000000000709e590                wf_dl_sm64_material_081_lights
                0x000000000709e5a8                wf_dl_sm64_material_079_lights
                0x000000000709e5c0                wf_dl_f3d_material_lights
                0x000000000709e5d8                wf_dl_sm64_material_078_lights
                0x000000000709e5f0                wf_dl_sm64_material_077_lights
                0x000000000709e608                wf_dl_f3d_material_032_layer1_lights
                0x000000000709e620                wf_dl_f3d_material_030_layer1_lights
                0x000000000709e638                wf_dl_f3d_material_029_layer1_lights
                0x000000000709e650                wf_dl_f3d_material_026_lights
                0x000000000709e668                wf_dl_f3d_material_054_lights
                0x000000000709e680                wf_dl_f3d_material_053_layer1_lights
                0x000000000709e698                wf_dl_f3d_material_057_lights
                0x000000000709e6b0                wf_dl_f3d_material_041_lights
                0x000000000709e6c8                wf_dl_ZZZDomeLast_layer1_lights
                0x000000000709e6e0                wf_dl_f3d_material_049_lights
                0x000000000709e6f8                wf_dl_f3d_material_048_lights
                0x000000000709e710                wf_dl_f3d_material_047_lights
                0x000000000709e728                wf_dl_f3d_material_046_lights
                0x000000000709e740                wf_dl_f3d_material_045_lights
                0x000000000709e758                wf_dl_f3d_material_044_lights
                0x000000000709e770                wf_dl_f3d_material_043_layer1_lights
                0x000000000709e788                wf_dl_f3d_material_040_lights
                0x000000000709e7a0                wf_dl_f3d_material_038_lights
                0x000000000709e7b8                wf_dl_f3d_material_036_lights
                0x000000000709e7d0                wf_dl_f3d_material_035_lights
                0x000000000709e7e8                wf_dl_f3d_material_034_lights
                0x000000000709e800                wf_dl_f3d_material_033_lights
                0x000000000709e818                wf_dl_f3d_material_028_layer1_lights
                0x000000000709e830                wf_dl_f3d_material_042_lights
                0x000000000709e848                wf_dl_f3d_material_039_lights
                0x000000000709e860                wf_dl_f3d_material_031_lights
                0x000000000709e878                wf_dl_sm64_material_074_lights
                0x000000000709e890                wf_dl_sm64_material_072_lights
                0x000000000709e8a8                wf_dl_sm64_material_073_lights
                0x000000000709e8c0                wf_dl_sm64_material_031_layer6_area2_lights
                0x000000000709e8d8                wf_dl_sm64_material_071_lights
                0x000000000709e8f0                wf_dl_sm64_material_055_lights
                0x000000000709e908                wf_dl_sm64_material_059_lights
                0x000000000709e920                wf_dl_sm64_material_060_lights
                0x000000000709e938                wf_dl_sm64_material_051_lights
                0x000000000709e950                wf_dl_sm64_material_052_lights
                0x000000000709e968                wf_dl_sm64_material_082_lights
                0x000000000709e980                wf_dl_sm64_material_066_lights
                0x000000000709e998                wf_dl_sm64_material_083_lights
                0x000000000709e9b0                wf_dl_sm64_material_065_lights
                0x000000000709e9c8                wf_dl_sm64_material_064_lights
                0x000000000709e9e0                wf_dl_sm64_material_063_lights
                0x000000000709e9f8                wf_dl_sm64_material_062_lights
                0x000000000709ea10                wf_dl_sm64_material_061_lights
                0x000000000709ea28                wf_dl_sm64_material_053_lights
                0x000000000709ea40                wf_dl_sm64_material_054_lights
                0x000000000709ea58                wf_dl_sm64_material_056_lights
                0x000000000709ea70                wf_dl_sm64_material_039_lights
                0x000000000709ea88                wf_dl_sm64_material_058_lights
                0x000000000709eaa0                wf_dl_sm64_material_043_lights
                0x000000000709eab8                wf_dl_sm64_material_047_lights
                0x000000000709ead0                wf_dl_sm64_material_057_lights
                0x000000000709eae8                wf_dl_sm64_material_042_lights
                0x000000000709eb00                wf_dl_sm64_material_036_lights
                0x000000000709eb18                wf_dl_sm64_material_046_lights
                0x000000000709eb30                wf_dl_sm64_material_041_lights
                0x000000000709eb48                wf_dl_sm64_material_050_lights
                0x000000000709eb60                wf_dl_sm64_material_044_lights
                0x000000000709eb78                wf_dl_f3d_material_002_lights
                0x000000000709eb90                wf_dl_f3d_material_001_layer0_lights
                0x000000000709eba8                wf_dl_SCROLLWATER_layer1_area1_lights
                0x000000000709ebc0                wf_dl_sm64_material_035_lights
                0x000000000709ebd8                wf_dl_sm64_material_033_lights
                0x000000000709ebf0                wf_dl_sm64_material_032_lights
                0x000000000709ec08                wf_dl_sm64_material_001_lights
                0x000000000709ec20                wf_dl_f3d_material_050_lights
                0x000000000709ec38                wf_dl_sm64_material_029_lights
                0x000000000709ec50                wf_dl_sm64_material_015_layer1_area1_lights
                0x000000000709ec68                wf_dl_sm64_material_005_lights
                0x000000000709ec80                wf_dl_sm64_material_004_layer1_area1_lights
                0x000000000709ec98                wf_dl_sm64_material_003_layer1_area1_lights
                0x000000000709ecb0                wf_dl_sm64_material_006_layer1_area1_lights
                0x000000000709ecc8                wf_dl_sm64_material_014_layer1_area1_lights
                0x000000000709ece0                wf_dl_sm64_material_013_layer1_area1_lights
                0x000000000709ecf8                wf_dl_ZFloor_layer1_area1_lights
                0x000000000709ed10                wf_dl_sm64_material_018_layer1_area1_lights
                0x000000000709ed28                wf_dl_sm64_material_008_layer1_area1_lights
                0x000000000709ed40                wf_dl_Aoutside_layer1_area1_lights
                0x000000000709ed58                wf_dl_sm64_material_031_layer5_area1_lights
                0x000000000709ed70                wf_dl_sm64_material_017_layer1_area1_lights
                0x000000000709ed88                wf_dl_sm64_material_034_lights
                0x000000000709eda0                wf_dl_sm64_material_023_lights
                0x000000000709edb8                wf_dl_sm64_material_021_lights
                0x000000000709edd0                wf_dl_sm64_material_025_lights
                0x000000000709ede8                wf_dl_sm64_material_027_lights
                0x000000000709ee00                wf_dl_DOMEMAT_lights
                0x000000000709ee18                wf_dl_sm64_material_024_lights
                0x000000000709ee30                wf_dl_sm64_material_020_lights
                0x000000000709ee48                wf_dl_sm64_material_022_lights
                0x000000000709ee60                wf_dl_sm64_material_026_lights
                0x000000000709ee78                wf_dl_sm64_material_019_lights
                0x000000000709ee90                wf_dl_sm64_material_031_layer4_area1_lights
                0x000000000709eea8                wf_dl_sm64_material_007_layer5_area1_lights
                0x000000000709eec0                wf_area_5_macro_objs
                0x000000000709eec4                wf_area_5_collision
                0x00000000070a2e58                wf_area_4_macro_objs
                0x00000000070a2e5c                wf_area_4_collision
                0x00000000070a5314                wf_area_3_spline_EELPATH
                0x00000000070a5370                wf_area_3_macro_objs
                0x00000000070a5374                wf_area_3_collision
                0x00000000070a94e8                wf_area_2_macro_objs
                0x00000000070a94ec                wf_area_2_collision
                0x00000000070aaf30                wf_area_1_spline_turtlepath
                0x00000000070aaf74                wf_area_1_spline_IntroCutscenePos_003
                0x00000000070aaf94                wf_area_1_spline_IntroCutscenePos_002
                0x00000000070aafb4                wf_area_1_spline_IntroCutscenePos_001
                0x00000000070aafcc                wf_area_1_spline_IntroCutscenePos
                0x00000000070aafe4                wf_area_1_spline_IntroCutsceneFoc_003
                0x00000000070ab00c                wf_area_1_spline_IntroCutsceneFoc_002
                0x00000000070ab02c                wf_area_1_spline_IntroCutsceneFoc_001
                0x00000000070ab044                wf_area_1_spline_IntroCutsceneFoc
                0x00000000070ab05c                wf_area_1_macro_objs
                0x00000000070ab060                wf_area_1_collision

.data1
 *(.data1)

.got.plt
 *(.got.plt)
                0x00000000070aec86                . = .
                0x00000000070b6c80                _gp = (ALIGN (0x10) + 0x7ff0)

.got
 *(.got)

.sdata
 *(.sdata .sdata.* .gnu.linkonce.s.*)

.lit8
 *(.lit8)

.lit4
 *(.lit4)
                0x00000000070aec86                _edata = .
                [!provide]                        PROVIDE (edata = .)
                0x00000000070aec86                . = .
                0x00000000070aec86                __bss_start = .
                0x00000000070aec86                _fbss = .

.sbss
 *(.dynsbss)
 *(.sbss .sbss.* .gnu.linkonce.sb.*)
 *(.scommon)

.bss            0x00000000070aec86        0x0
 *(.dynbss)
 *(.bss .bss.* .gnu.linkonce.b.*)
 .bss           0x00000000070aec86        0x0 build/us/levels/wf/leveldata.o
 *(COMMON)
                0x00000000070aec86                . = ALIGN ((. != 0x0)?0x4:0x1)
                0x00000000070aec88                . = ALIGN (0x4)
                0x00000000070aec88                . = SEGMENT_START ("ldata-segment", .)
                0x00000000070aec88                . = ALIGN (0x4)
                0x00000000070aec88                _end = .
                [!provide]                        PROVIDE (end = .)
                0x00000000070aec88                . = DATA_SEGMENT_END (.)

.stab
 *(.stab)

.stabstr
 *(.stabstr)

.stab.excl
 *(.stab.excl)

.stab.exclstr
 *(.stab.exclstr)

.stab.index
 *(.stab.index)

.stab.indexstr
 *(.stab.indexstr)

.comment        0x0000000000000000       0x12
 *(.comment)
 .comment       0x0000000000000000       0x12 build/us/levels/wf/leveldata.o
                                         0x13 (size before relaxing)

.pdr            0x0000000000000000        0x0
 .pdr           0x0000000000000000        0x0 build/us/levels/wf/leveldata.o

.gnu.build.attributes
 *(.gnu.build.attributes .gnu.build.attributes.*)

.debug
 *(.debug)

.line
 *(.line)

.debug_srcinfo
 *(.debug_srcinfo)

.debug_sfnames
 *(.debug_sfnames)

.debug_aranges
 *(.debug_aranges)

.debug_pubnames
 *(.debug_pubnames)

.debug_info
 *(.debug_info .gnu.linkonce.wi.*)

.debug_abbrev
 *(.debug_abbrev)

.debug_line
 *(.debug_line .debug_line.* .debug_line_end)

.debug_frame
 *(.debug_frame)

.debug_str
 *(.debug_str)

.debug_loc
 *(.debug_loc)

.debug_macinfo
 *(.debug_macinfo)

.debug_weaknames
 *(.debug_weaknames)

.debug_funcnames
 *(.debug_funcnames)

.debug_typenames
 *(.debug_typenames)

.debug_varnames
 *(.debug_varnames)

.debug_pubtypes
 *(.debug_pubtypes)

.debug_ranges
 *(.debug_ranges)

.debug_addr
 *(.debug_addr)

.debug_line_str
 *(.debug_line_str)

.debug_loclists
 *(.debug_loclists)

.debug_macro
 *(.debug_macro)

.debug_names
 *(.debug_names)

.debug_rnglists
 *(.debug_rnglists)

.debug_str_offsets
 *(.debug_str_offsets)

.debug_sup
 *(.debug_sup)

.gnu.attributes
                0x0000000000000000       0x10
 *(.gnu.attributes)
 .gnu.attributes
                0x0000000000000000       0x10 build/us/levels/wf/leveldata.o

.gptab.sdata
 *(.gptab.data)
 *(.gptab.sdata)

.gptab.sbss
 *(.gptab.bss)
 *(.gptab.sbss)

.mdebug.abi32   0x0000000000000000        0x0
 *(.mdebug.abi32)
 .mdebug.abi32  0x0000000000000000        0x0 build/us/levels/wf/leveldata.o

.mdebug.abiN32
 *(.mdebug.abiN32)

.mdebug.abi64
 *(.mdebug.abi64)

.mdebug.abiO64
 *(.mdebug.abiO64)

.mdebug.eabi32
 *(.mdebug.eabi32)

.mdebug.eabi64
 *(.mdebug.eabi64)

.gcc_compiled_long32
 *(.gcc_compiled_long32)

.gcc_compiled_long64
 *(.gcc_compiled_long64)

/DISCARD/
 *(.note.GNU-stack)
 *(.gnu_debuglink)
 *(.gnu.lto_*)
OUTPUT(build/us/levels/wf/leveldata.elf elf32-bigmips)
