
Memory Configuration

Name             Origin             Length             Attributes
*default*        0x0000000000000000 0xffffffffffffffff

Linker script and memory map

Address of section .text set to 0x7000000
LOAD build/us/bin/generic.elf
LOAD build/us/levels/ending/leveldata.o
                [!provide]                        PROVIDE (__executable_start = SEGMENT_START ("text-segment", 0x400000))
                0x0000000000400000                . = SEGMENT_START ("text-segment", 0x400000)

.interp
 *(.interp)

.MIPS.abiflags  0x0000000000400000       0x18
 *(.MIPS.abiflags)
 .MIPS.abiflags
                0x0000000000400000       0x18 build/us/levels/ending/leveldata.o

.reginfo        0x0000000000400018       0x18
 *(.reginfo)
 .reginfo       0x0000000000400018       0x18 build/us/levels/ending/leveldata.o

.MIPS.xhash
 *(.MIPS.xhash)

.note.gnu.build-id
 *(.note.gnu.build-id)

.dynamic
 *(.dynamic)

.hash
 *(.hash)

.gnu.hash
 *(.gnu.hash)

.dynsym
 *(.dynsym)

.dynstr
 *(.dynstr)

.gnu.version
 *(.gnu.version)

.gnu.version_d
 *(.gnu.version_d)

.gnu.version_r
 *(.gnu.version_r)

.rel.dyn        0x0000000000400018        0x0
 *(.rel.init)
 *(.rel.text .rel.text.* .rel.gnu.linkonce.t.*)
 *(.rel.fini)
 *(.rel.rodata .rel.rodata.* .rel.gnu.linkonce.r.*)
 *(.rel.data.rel.ro .rel.data.rel.ro.* .rel.gnu.linkonce.d.rel.ro.*)
 *(.rel.data .rel.data.* .rel.gnu.linkonce.d.*)
 *(.rel.tdata .rel.tdata.* .rel.gnu.linkonce.td.*)
 *(.rel.tbss .rel.tbss.* .rel.gnu.linkonce.tb.*)
 *(.rel.ctors)
 *(.rel.dtors)
 *(.rel.got)
 *(.rel.dyn)
 .rel.dyn       0x0000000000400018        0x0 build/us/levels/ending/leveldata.o
 *(.rel.sdata .rel.sdata.* .rel.gnu.linkonce.s.*)
 *(.rel.sbss .rel.sbss.* .rel.gnu.linkonce.sb.*)
 *(.rel.sdata2 .rel.sdata2.* .rel.gnu.linkonce.s2.*)
 *(.rel.sbss2 .rel.sbss2.* .rel.gnu.linkonce.sb2.*)
 *(.rel.bss .rel.bss.* .rel.gnu.linkonce.b.*)
                [!provide]                        PROVIDE (__rel_iplt_start = .)
 *(.rel.iplt)
                [!provide]                        PROVIDE (__rel_iplt_end = .)

.rela.dyn       0x0000000000400018        0x0
 *(.rela.init)
 *(.rela.text .rela.text.* .rela.gnu.linkonce.t.*)
 *(.rela.fini)
 *(.rela.rodata .rela.rodata.* .rela.gnu.linkonce.r.*)
 *(.rela.data .rela.data.* .rela.gnu.linkonce.d.*)
 *(.rela.tdata .rela.tdata.* .rela.gnu.linkonce.td.*)
 *(.rela.tbss .rela.tbss.* .rela.gnu.linkonce.tb.*)
 *(.rela.ctors)
 *(.rela.dtors)
 *(.rela.got)
 *(.rela.sdata .rela.sdata.* .rela.gnu.linkonce.s.*)
 *(.rela.sbss .rela.sbss.* .rela.gnu.linkonce.sb.*)
 *(.rela.sdata2 .rela.sdata2.* .rela.gnu.linkonce.s2.*)
 *(.rela.sbss2 .rela.sbss2.* .rela.gnu.linkonce.sb2.*)
 *(.rela.bss .rela.bss.* .rela.gnu.linkonce.b.*)
                [!provide]                        PROVIDE (__rela_iplt_start = .)
 *(.rela.iplt)
                [!provide]                        PROVIDE (__rela_iplt_end = .)

.rel.plt
 *(.rel.plt)

.rela.plt
 *(.rela.plt)

.init
 *(SORT_NONE(.init))

.plt
 *(.plt)

.iplt
 *(.iplt)

.text           0x0000000007000000        0x0
                0x0000000007000000                _ftext = .
 *(.text.unlikely .text.*_unlikely .text.unlikely.*)
 *(.text.exit .text.exit.*)
 *(.text.startup .text.startup.*)
 *(.text.hot .text.hot.*)
 *(SORT_BY_NAME(.text.sorted.*))
 *(.text .stub .text.* .gnu.linkonce.t.*)
 .text          0x0000000007000000        0x0 build/us/levels/ending/leveldata.o
 *(.gnu.warning)
 *(.mips16.fn.*)
 *(.mips16.call.*)

.fini
 *(SORT_NONE(.fini))
                [!provide]                        PROVIDE (__etext = .)
                [!provide]                        PROVIDE (_etext = .)
                [!provide]                        PROVIDE (etext = .)

.rodata
 *(.rodata .rodata.* .gnu.linkonce.r.*)

.rodata1
 *(.rodata1)

.sdata2
 *(.sdata2 .sdata2.* .gnu.linkonce.s2.*)

.sbss2
 *(.sbss2 .sbss2.* .gnu.linkonce.sb2.*)

.eh_frame_hdr
 *(.eh_frame_hdr)
 *(.eh_frame_entry .eh_frame_entry.*)

.eh_frame
 *(.eh_frame)
 *(.eh_frame.*)

.gcc_except_table
 *(.gcc_except_table .gcc_except_table.*)

.gnu_extab
 *(.gnu_extab*)

.exception_ranges
 *(.exception_ranges*)
                0x0000000007000000                . = DATA_SEGMENT_ALIGN (CONSTANT (MAXPAGESIZE), CONSTANT (COMMONPAGESIZE))

.eh_frame
 *(.eh_frame)
 *(.eh_frame.*)

.gnu_extab
 *(.gnu_extab)

.gcc_except_table
 *(.gcc_except_table .gcc_except_table.*)

.exception_ranges
 *(.exception_ranges*)

.tdata          0x0000000007000000        0x0
                [!provide]                        PROVIDE (__tdata_start = .)
 *(.tdata .tdata.* .gnu.linkonce.td.*)

.tbss
 *(.tbss .tbss.* .gnu.linkonce.tb.*)
 *(.tcommon)

.preinit_array  0x0000000007000000        0x0
                [!provide]                        PROVIDE (__preinit_array_start = .)
 *(.preinit_array)
                [!provide]                        PROVIDE (__preinit_array_end = .)

.init_array     0x0000000007000000        0x0
                [!provide]                        PROVIDE (__init_array_start = .)
 *(SORT_BY_INIT_PRIORITY(.init_array.*) SORT_BY_INIT_PRIORITY(.ctors.*))
 *(.init_array EXCLUDE_FILE(*crtend?.o *crtend.o *crtbegin?.o *crtbegin.o) .ctors)
                [!provide]                        PROVIDE (__init_array_end = .)

.fini_array     0x0000000007000000        0x0
                [!provide]                        PROVIDE (__fini_array_start = .)
 *(SORT_BY_INIT_PRIORITY(.fini_array.*) SORT_BY_INIT_PRIORITY(.dtors.*))
 *(.fini_array EXCLUDE_FILE(*crtend?.o *crtend.o *crtbegin?.o *crtbegin.o) .dtors)
                [!provide]                        PROVIDE (__fini_array_end = .)

.ctors
 *crtbegin.o(.ctors)
 *crtbegin?.o(.ctors)
 *(EXCLUDE_FILE(*crtend?.o *crtend.o) .ctors)
 *(SORT_BY_NAME(.ctors.*))
 *(.ctors)

.dtors
 *crtbegin.o(.dtors)
 *crtbegin?.o(.dtors)
 *(EXCLUDE_FILE(*crtend?.o *crtend.o) .dtors)
 *(SORT_BY_NAME(.dtors.*))
 *(.dtors)

.jcr
 *(.jcr)

.data.rel.ro
 *(.data.rel.ro.local* .gnu.linkonce.d.rel.ro.local.*)
 *(.data.rel.ro .data.rel.ro.* .gnu.linkonce.d.rel.ro.*)
                0x0000000007000000                . = DATA_SEGMENT_RELRO_END (., 0x0)

.data           0x0000000007000000    0x5887e
                0x0000000007000000                _fdata = .
 *(.data .data.* .gnu.linkonce.d.*)
 .data          0x0000000007000000    0x5887e build/us/levels/ending/leveldata.o
                0x0000000007000000                cardboardboxclose_material_revert_render_settings
                0x0000000007000040                cardboardboxclose_Bone_008_mesh_layer_4
                0x0000000007000098                cardboardboxclose_Bone_008_skinned_mesh_layer_4
                0x00000000070000d0                cardboardboxclose_Bone_007_mesh_layer_1
                0x00000000070000e8                cardboardboxclose_Bone_007_mesh_layer_4
                0x0000000007000140                cardboardboxclose_Bone_007_skinned_mesh_layer_4
                0x0000000007000178                cardboardboxclose_Bone_006_mesh_layer_4
                0x00000000070001d0                cardboardboxclose_Bone_006_skinned_mesh_layer_4
                0x0000000007000208                cardboardboxclose_Bone_005_mesh_layer_1
                0x0000000007000228                cardboardboxclose_Bone_005_skinned_mesh_layer_1
                0x0000000007000240                cardboardboxclose_Bone_005_mesh_layer_4
                0x0000000007000298                cardboardboxclose_Bone_005_skinned_mesh_layer_4
                0x00000000070002d0                cardboardboxclose_Bone_mesh_layer_4
                0x0000000007000308                mat_cardboardboxclose_f3d_material
                0x0000000007000340                mat_revert_cardboardboxclose_sm64_material_003
                0x0000000007000360                mat_cardboardboxclose_sm64_material_003
                0x0000000007000418                mat_revert_cardboardboxclose_sm64_material_001
                0x0000000007000438                mat_cardboardboxclose_sm64_material_001
                0x00000000070004f0                cardboardboxclose_Bone_008_mesh_layer_4_tri_3
                0x0000000007000508                cardboardboxclose_Bone_008_mesh_layer_4_vtx_3
                0x0000000007000548                cardboardboxclose_Bone_008_mesh_layer_4_tri_2
                0x0000000007000568                cardboardboxclose_Bone_008_mesh_layer_4_vtx_2
                0x00000000070005e8                cardboardboxclose_Bone_008_mesh_layer_4_tri_1
                0x0000000007000600                cardboardboxclose_Bone_008_mesh_layer_4_vtx_1
                0x0000000007000640                cardboardboxclose_Bone_008_mesh_layer_4_tri_0
                0x0000000007000660                cardboardboxclose_Bone_008_mesh_layer_4_vtx_0
                0x0000000007000680                cardboardboxclose_Bone_008_skinned_mesh_layer_4_tri_1
                0x0000000007000690                cardboardboxclose_Bone_008_skinned_mesh_layer_4_vtx_1
                0x00000000070006b0                cardboardboxclose_Bone_008_skinned_mesh_layer_4_tri_0
                0x00000000070006c0                cardboardboxclose_Bone_008_skinned_mesh_layer_4_vtx_0
                0x0000000007000700                cardboardboxclose_Bone_007_mesh_layer_1_tri_0
                0x0000000007000d08                cardboardboxclose_Bone_007_mesh_layer_1_vtx_0
                0x0000000007001388                cardboardboxclose_Bone_007_mesh_layer_4_tri_3
                0x00000000070013a0                cardboardboxclose_Bone_007_mesh_layer_4_vtx_3
                0x00000000070013e0                cardboardboxclose_Bone_007_mesh_layer_4_tri_2
                0x0000000007001410                cardboardboxclose_Bone_007_mesh_layer_4_vtx_2
                0x00000000070014d0                cardboardboxclose_Bone_007_mesh_layer_4_tri_1
                0x00000000070014f8                cardboardboxclose_Bone_007_mesh_layer_4_vtx_1
                0x0000000007001548                cardboardboxclose_Bone_007_mesh_layer_4_tri_0
                0x0000000007001568                cardboardboxclose_Bone_007_mesh_layer_4_vtx_0
                0x0000000007001588                cardboardboxclose_Bone_007_skinned_mesh_layer_4_tri_1
                0x0000000007001598                cardboardboxclose_Bone_007_skinned_mesh_layer_4_vtx_1
                0x00000000070015f8                cardboardboxclose_Bone_007_skinned_mesh_layer_4_tri_0
                0x0000000007001608                cardboardboxclose_Bone_007_skinned_mesh_layer_4_vtx_0
                0x0000000007001648                cardboardboxclose_Bone_006_mesh_layer_4_tri_3
                0x0000000007001668                cardboardboxclose_Bone_006_mesh_layer_4_vtx_3
                0x00000000070016e8                cardboardboxclose_Bone_006_mesh_layer_4_tri_2
                0x0000000007001700                cardboardboxclose_Bone_006_mesh_layer_4_vtx_2
                0x0000000007001740                cardboardboxclose_Bone_006_mesh_layer_4_tri_1
                0x0000000007001760                cardboardboxclose_Bone_006_mesh_layer_4_vtx_1
                0x0000000007001780                cardboardboxclose_Bone_006_mesh_layer_4_tri_0
                0x0000000007001798                cardboardboxclose_Bone_006_mesh_layer_4_vtx_0
                0x00000000070017d8                cardboardboxclose_Bone_006_skinned_mesh_layer_4_tri_1
                0x00000000070017e8                cardboardboxclose_Bone_006_skinned_mesh_layer_4_vtx_1
                0x0000000007001828                cardboardboxclose_Bone_006_skinned_mesh_layer_4_tri_0
                0x0000000007001838                cardboardboxclose_Bone_006_skinned_mesh_layer_4_vtx_0
                0x0000000007001858                cardboardboxclose_Bone_005_mesh_layer_1_tri_1
                0x0000000007001e58                cardboardboxclose_Bone_005_mesh_layer_1_vtx_1
                0x0000000007002548                cardboardboxclose_Bone_005_mesh_layer_1_tri_0
                0x00000000070025b0                cardboardboxclose_Bone_005_mesh_layer_1_vtx_0
                0x00000000070025f0                cardboardboxclose_Bone_005_skinned_mesh_layer_1_tri_0
                0x0000000007002600                cardboardboxclose_Bone_005_skinned_mesh_layer_1_vtx_0
                0x0000000007002610                cardboardboxclose_Bone_005_mesh_layer_4_tri_3
                0x0000000007002628                cardboardboxclose_Bone_005_mesh_layer_4_vtx_3
                0x0000000007002668                cardboardboxclose_Bone_005_mesh_layer_4_tri_2
                0x0000000007002698                cardboardboxclose_Bone_005_mesh_layer_4_vtx_2
                0x0000000007002738                cardboardboxclose_Bone_005_mesh_layer_4_tri_1
                0x0000000007002750                cardboardboxclose_Bone_005_mesh_layer_4_vtx_1
                0x0000000007002790                cardboardboxclose_Bone_005_mesh_layer_4_tri_0
                0x00000000070027b8                cardboardboxclose_Bone_005_mesh_layer_4_vtx_0
                0x00000000070027d8                cardboardboxclose_Bone_005_skinned_mesh_layer_4_tri_1
                0x00000000070027e8                cardboardboxclose_Bone_005_skinned_mesh_layer_4_vtx_1
                0x0000000007002808                cardboardboxclose_Bone_005_skinned_mesh_layer_4_tri_0
                0x0000000007002818                cardboardboxclose_Bone_005_skinned_mesh_layer_4_vtx_0
                0x0000000007002868                cardboardboxclose_Bone_mesh_layer_4_tri_1
                0x00000000070028e0                cardboardboxclose_Bone_mesh_layer_4_vtx_1
                0x0000000007002b30                cardboardboxclose_Bone_mesh_layer_4_tri_0
                0x0000000007002bc0                cardboardboxclose_Bone_mesh_layer_4_vtx_0
                0x0000000007002e30                cardboardboxclose_LogoV2_rgba16
                0x0000000007016288                cardboardboxclose_LogoV2_rgba16_aligner
                0x0000000007016290                cardboardboxclose_btl_jun_00_48C00_jun_wall_02__ci4_pal_rgba16
                0x00000000070162b0                cardboardboxclose_btl_jun_00_48C00_jun_wall_02__ci4_pal_rgba16_aligner
                0x00000000070162b8                cardboardboxclose_btl_jun_00_48C00_jun_wall_02__ci4
                0x0000000007016ab8                cardboardboxclose_btl_jun_00_48C00_jun_wall_02__ci4_aligner
                0x0000000007016ac0                cardboardboxclose_item_1680_heart_sokumen001__ci8_pal_rgba16
                0x0000000007016b08                cardboardboxclose_item_1680_heart_sokumen001__ci8_pal_rgba16_aligner
                0x0000000007016b10                cardboardboxclose_item_1680_heart_sokumen001__ci8
                0x0000000007016c10                cardboardboxclose_item_1680_heart_sokumen001__ci8_aligner
                0x0000000007016c18                cardboardboxclose_f3d_material_lights
                0x0000000007016c30                cardboardboxclose_sm64_material_003_lights
                0x0000000007016c48                cardboardboxclose_sm64_material_001_lights
                0x0000000007016c60                firepiranha_anims
                0x0000000007019348                firepiranha_material_revert_render_settings
                0x0000000007019388                firepiranha_Bone_007_mesh_layer_4
                0x00000000070193a8                firepiranha_Bone_006_mesh_layer_4
                0x00000000070193c8                firepiranha_Bone_004_mesh_layer_4
                0x00000000070193f0                firepiranha_Bone_004_skinned_mesh_layer_4
                0x0000000007019410                firepiranha_Bone_003_mesh_layer_4
                0x0000000007019438                firepiranha_Bone_003_skinned_mesh_layer_4
                0x0000000007019458                firepiranha_Bone_002_mesh_layer_4
                0x0000000007019478                firepiranha_Bone_002_skinned_mesh_layer_4
                0x0000000007019498                firepiranha_Bone_001_mesh_layer_4
                0x00000000070194b8                firepiranha_Bone_001_skinned_mesh_layer_4
                0x00000000070194d8                firepiranha_Bone_005_mesh_layer_4
                0x00000000070194f8                mat_revert_firepiranha_mat_pakkun_f3d
                0x0000000007019518                mat_firepiranha_mat_pakkun_f3d
                0x00000000070195d0                firepiranha_Bone_007_mesh_layer_4_tri_0
                0x0000000007019600                firepiranha_Bone_007_mesh_layer_4_vtx_0
                0x0000000007019680                firepiranha_Bone_006_mesh_layer_4_tri_0
                0x00000000070196b0                firepiranha_Bone_006_mesh_layer_4_vtx_0
                0x0000000007019730                firepiranha_Bone_004_mesh_layer_4_tri_1
                0x0000000007019828                firepiranha_Bone_004_mesh_layer_4_vtx_1
                0x0000000007019d08                firepiranha_Bone_004_mesh_layer_4_tri_0
                0x0000000007019d50                firepiranha_Bone_004_mesh_layer_4_vtx_0
                0x0000000007019e60                firepiranha_Bone_004_skinned_mesh_layer_4_tri_0
                0x0000000007019e70                firepiranha_Bone_004_skinned_mesh_layer_4_vtx_0
                0x0000000007019f40                firepiranha_Bone_003_mesh_layer_4_tri_1
                0x000000000701a078                firepiranha_Bone_003_mesh_layer_4_vtx_1
                0x000000000701a718                firepiranha_Bone_003_mesh_layer_4_tri_0
                0x000000000701a748                firepiranha_Bone_003_mesh_layer_4_vtx_0
                0x000000000701a798                firepiranha_Bone_003_skinned_mesh_layer_4_tri_0
                0x000000000701a7a8                firepiranha_Bone_003_skinned_mesh_layer_4_vtx_0
                0x000000000701a7e8                firepiranha_Bone_002_mesh_layer_4_tri_0
                0x000000000701a810                firepiranha_Bone_002_mesh_layer_4_vtx_0
                0x000000000701a850                firepiranha_Bone_002_skinned_mesh_layer_4_tri_0
                0x000000000701a860                firepiranha_Bone_002_skinned_mesh_layer_4_vtx_0
                0x000000000701a8a0                firepiranha_Bone_001_mesh_layer_4_tri_0
                0x000000000701a8c8                firepiranha_Bone_001_mesh_layer_4_vtx_0
                0x000000000701a908                firepiranha_Bone_001_skinned_mesh_layer_4_tri_0
                0x000000000701a918                firepiranha_Bone_001_skinned_mesh_layer_4_vtx_0
                0x000000000701a958                firepiranha_Bone_005_mesh_layer_4_tri_0
                0x000000000701a980                firepiranha_Bone_005_mesh_layer_4_vtx_0
                0x000000000701a9f0                firepiranha_mat_pakkun_ci4_pal_rgba16
                0x000000000701aa10                firepiranha_mat_pakkun_ci4_pal_rgba16_aligner
                0x000000000701aa18                firepiranha_mat_pakkun_ci4
                0x000000000701b218                firepiranha_mat_pakkun_ci4_aligner
                0x000000000701b220                firepiranha_mat_pakkun_f3d_lights
                0x000000000701b238                deletebutton_collision
                0x000000000701b2c0                deletebutton_material_revert_render_settings
                0x000000000701b300                deletebutton_Plane_mesh
                0x000000000701b358                mat_revert_deletebutton_sm64_material_001
                0x000000000701b378                mat_deletebutton_sm64_material_001
                0x000000000701b430                mat_revert_deletebutton_sm64_material
                0x000000000701b448                mat_deletebutton_sm64_material
                0x000000000701b4f8                deletebutton_Plane_mesh_tri_1
                0x000000000701b528                deletebutton_Plane_mesh_vtx_1
                0x000000000701b5c8                deletebutton_Plane_mesh_tri_0
                0x000000000701b5e0                deletebutton_Plane_mesh_vtx_0
                0x000000000701b620                deletebutton_Plane_mesh_vtx_cull
                0x000000000701b6a0                deletebutton_item_1680_heart_sokumen001__ci8_pal_rgba16
                0x000000000701b6e8                deletebutton_item_1680_heart_sokumen001__ci8_pal_rgba16_aligner
                0x000000000701b6f0                deletebutton_item_1680_heart_sokumen001__ci8
                0x000000000701b7f0                deletebutton_item_1680_heart_sokumen001__ci8_aligner
                0x000000000701b7f8                deletebutton_btl_sky_04_4AD80_sky_base02__ci8_pal_rgba16
                0x000000000701b9f8                deletebutton_btl_sky_04_4AD80_sky_base02__ci8_pal_rgba16_aligner
                0x000000000701ba00                deletebutton_btl_sky_04_4AD80_sky_base02__ci8
                0x000000000701c200                deletebutton_btl_sky_04_4AD80_sky_base02__ci8_aligner
                0x000000000701c208                deletebutton_sm64_material_001_lights
                0x000000000701c220                deletebutton_sm64_material_lights
                0x000000000701c238                cardboardpipe_material_revert_render_settings
                0x000000000701c278                cardboardpipe_skinned_002_mesh
                0x000000000701c2d0                mat_revert_cardboardpipe_sm64_material
                0x000000000701c2f0                mat_cardboardpipe_sm64_material
                0x000000000701c3a8                mat_revert_cardboardpipe_sm64_material_006
                0x000000000701c3c8                mat_cardboardpipe_sm64_material_006
                0x000000000701c480                cardboardpipe_skinned_002_mesh_tri_1
                0x000000000701c4d0                cardboardpipe_skinned_002_mesh_vtx_1
                0x000000000701c5d0                cardboardpipe_skinned_002_mesh_tri_0
                0x000000000701c670                cardboardpipe_skinned_002_mesh_vtx_0
                0x000000000701c910                cardboardpipe_skinned_002_mesh_vtx_cull
                0x000000000701c990                cardboardpipe_item_1680_heart_sokumen001__ci8_pal_rgba16
                0x000000000701c9d8                cardboardpipe_item_1680_heart_sokumen001__ci8_pal_rgba16_aligner
                0x000000000701c9e0                cardboardpipe_item_1680_heart_sokumen001__ci8
                0x000000000701cae0                cardboardpipe_item_1680_heart_sokumen001__ci8_aligner
                0x000000000701cae8                cardboardpipe_pipeside2_ci8_pal_rgba16
                0x000000000701cbb8                cardboardpipe_pipeside2_ci8_pal_rgba16_aligner
                0x000000000701cbc0                cardboardpipe_pipeside2_ci8
                0x000000000701cfc0                cardboardpipe_pipeside2_ci8_aligner
                0x000000000701cfc8                cardboardpipe_sm64_material_lights
                0x000000000701cfe0                cardboardpipe_sm64_material_006_lights
                0x000000000701cff8                selectDisplay_material_revert_render_settings
                0x000000000701d038                selectDisplay_dsplay_mesh
                0x000000000701d210                mat_revert_selectDisplay_sm64_material_002
                0x000000000701d228                mat_selectDisplay_sm64_material_002
                0x000000000701d2a8                mat_revert_selectDisplay_sm64_material_033
                0x000000000701d2c0                mat_selectDisplay_sm64_material_033
                0x000000000701d340                mat_revert_selectDisplay_sm64_material_032
                0x000000000701d360                mat_selectDisplay_sm64_material_032
                0x000000000701d418                mat_revert_selectDisplay_sm64_material_031
                0x000000000701d430                mat_selectDisplay_sm64_material_031
                0x000000000701d4b0                mat_revert_selectDisplay__0
                0x000000000701d4d0                mat_selectDisplay__0
                0x000000000701d570                mat_revert_selectDisplay__1
                0x000000000701d590                mat_selectDisplay__1
                0x000000000701d630                mat_revert_selectDisplay__2
                0x000000000701d650                mat_selectDisplay__2
                0x000000000701d6f0                mat_revert_selectDisplay__4
                0x000000000701d710                mat_selectDisplay__4
                0x000000000701d7b0                mat_revert_selectDisplay__5
                0x000000000701d7d0                mat_selectDisplay__5
                0x000000000701d870                mat_revert_selectDisplay__6
                0x000000000701d890                mat_selectDisplay__6
                0x000000000701d930                mat_revert_selectDisplay__7
                0x000000000701d950                mat_selectDisplay__7
                0x000000000701d9f0                mat_revert_selectDisplay__8
                0x000000000701da10                mat_selectDisplay__8
                0x000000000701dab0                mat_revert_selectDisplay__9
                0x000000000701dad0                mat_selectDisplay__9
                0x000000000701db70                mat_revert_selectDisplay_sm64_material_065
                0x000000000701db90                mat_selectDisplay_sm64_material_065
                0x000000000701dc30                mat_revert_selectDisplay__3
                0x000000000701dc50                mat_selectDisplay__3
                0x000000000701dcf0                mat_revert_selectDisplay_A
                0x000000000701dd10                mat_selectDisplay_A
                0x000000000701ddb0                mat_revert_selectDisplay_B
                0x000000000701ddd0                mat_selectDisplay_B
                0x000000000701de70                mat_revert_selectDisplay_sm64_material_064
                0x000000000701de90                mat_selectDisplay_sm64_material_064
                0x000000000701df30                selectDisplay_dsplay_mesh_tri_17
                0x000000000701df60                selectDisplay_dsplay_mesh_vtx_17
                0x000000000701e000                selectDisplay_dsplay_mesh_tri_16
                0x000000000701e030                selectDisplay_dsplay_mesh_vtx_16
                0x000000000701e0d0                selectDisplay_dsplay_mesh_tri_15
                0x000000000701e100                selectDisplay_dsplay_mesh_vtx_15
                0x000000000701e1a0                selectDisplay_dsplay_mesh_tri_14
                0x000000000701e1d0                selectDisplay_dsplay_mesh_vtx_14
                0x000000000701e270                selectDisplay_dsplay_mesh_tri_13
                0x000000000701e288                selectDisplay_dsplay_mesh_vtx_13
                0x000000000701e2c8                selectDisplay_dsplay_mesh_tri_12
                0x000000000701e2e0                selectDisplay_dsplay_mesh_vtx_12
                0x000000000701e320                selectDisplay_dsplay_mesh_tri_11
                0x000000000701e338                selectDisplay_dsplay_mesh_vtx_11
                0x000000000701e378                selectDisplay_dsplay_mesh_tri_10
                0x000000000701e390                selectDisplay_dsplay_mesh_vtx_10
                0x000000000701e3d0                selectDisplay_dsplay_mesh_tri_9
                0x000000000701e3e8                selectDisplay_dsplay_mesh_vtx_9
                0x000000000701e428                selectDisplay_dsplay_mesh_tri_8
                0x000000000701e440                selectDisplay_dsplay_mesh_vtx_8
                0x000000000701e480                selectDisplay_dsplay_mesh_tri_7
                0x000000000701e498                selectDisplay_dsplay_mesh_vtx_7
                0x000000000701e4d8                selectDisplay_dsplay_mesh_tri_6
                0x000000000701e4f0                selectDisplay_dsplay_mesh_vtx_6
                0x000000000701e530                selectDisplay_dsplay_mesh_tri_5
                0x000000000701e548                selectDisplay_dsplay_mesh_vtx_5
                0x000000000701e588                selectDisplay_dsplay_mesh_tri_4
                0x000000000701e5b8                selectDisplay_dsplay_mesh_vtx_4
                0x000000000701e6b8                selectDisplay_dsplay_mesh_tri_3
                0x000000000701e6d0                selectDisplay_dsplay_mesh_vtx_3
                0x000000000701e710                selectDisplay_dsplay_mesh_tri_2
                0x000000000701e728                selectDisplay_dsplay_mesh_vtx_2
                0x000000000701e768                selectDisplay_dsplay_mesh_tri_1
                0x000000000701e780                selectDisplay_dsplay_mesh_vtx_1
                0x000000000701e7c0                selectDisplay_dsplay_mesh_tri_0
                0x000000000701e7f0                selectDisplay_dsplay_mesh_vtx_0
                0x000000000701e8f0                selectDisplay_dsplay_mesh_vtx_cull
                0x000000000701e970                selectDisplay_bose3_i8
                0x000000000701f970                selectDisplay_bose3_i8_aligner
                0x000000000701f978                selectDisplay_mariodoodle_i8
                0x0000000007020978                selectDisplay_mariodoodle_i8_aligner
                0x0000000007020980                selectDisplay_yoshidoodle_ci4_pal_rgba16
                0x00000000070209a0                selectDisplay_yoshidoodle_ci4_pal_rgba16_aligner
                0x00000000070209a8                selectDisplay_yoshidoodle_ci4
                0x00000000070211a8                selectDisplay_yoshidoodle_ci4_aligner
                0x00000000070211b0                selectDisplay_btl_bs4_02_153100white_craft_i8
                0x00000000070221b0                selectDisplay_btl_bs4_02_153100white_craft_i8_aligner
                0x00000000070221b8                selectDisplay_segment2_00000_rgba16_ci8_pal_rgba16
                0x00000000070221d8                selectDisplay_segment2_00000_rgba16_ci8_pal_rgba16_aligner
                0x00000000070221e0                selectDisplay_segment2_00000_rgba16_ci8
                0x00000000070222e0                selectDisplay_segment2_00000_rgba16_ci8_aligner
                0x00000000070222e8                selectDisplay_segment2_00200_rgba16_ci8_pal_rgba16
                0x0000000007022310                selectDisplay_segment2_00200_rgba16_ci8_pal_rgba16_aligner
                0x0000000007022318                selectDisplay_segment2_00200_rgba16_ci8
                0x0000000007022418                selectDisplay_segment2_00200_rgba16_ci8_aligner
                0x0000000007022420                selectDisplay_segment2_00400_rgba16_ci8_pal_rgba16
                0x0000000007022448                selectDisplay_segment2_00400_rgba16_ci8_pal_rgba16_aligner
                0x0000000007022450                selectDisplay_segment2_00400_rgba16_ci8
                0x0000000007022550                selectDisplay_segment2_00400_rgba16_ci8_aligner
                0x0000000007022558                selectDisplay_segment2_00800_rgba16_ci8_pal_rgba16
                0x0000000007022580                selectDisplay_segment2_00800_rgba16_ci8_pal_rgba16_aligner
                0x0000000007022588                selectDisplay_segment2_00800_rgba16_ci8
                0x0000000007022688                selectDisplay_segment2_00800_rgba16_ci8_aligner
                0x0000000007022690                selectDisplay_segment2_00A00_rgba16_ci8_pal_rgba16
                0x00000000070226b8                selectDisplay_segment2_00A00_rgba16_ci8_pal_rgba16_aligner
                0x00000000070226c0                selectDisplay_segment2_00A00_rgba16_ci8
                0x00000000070227c0                selectDisplay_segment2_00A00_rgba16_ci8_aligner
                0x00000000070227c8                selectDisplay_segment2_00C00_rgba16_ci8_pal_rgba16
                0x00000000070227f0                selectDisplay_segment2_00C00_rgba16_ci8_pal_rgba16_aligner
                0x00000000070227f8                selectDisplay_segment2_00C00_rgba16_ci8
                0x00000000070228f8                selectDisplay_segment2_00C00_rgba16_ci8_aligner
                0x0000000007022900                selectDisplay_segment2_00E00_rgba16_ci8_pal_rgba16
                0x0000000007022928                selectDisplay_segment2_00E00_rgba16_ci8_pal_rgba16_aligner
                0x0000000007022930                selectDisplay_segment2_00E00_rgba16_ci8
                0x0000000007022a30                selectDisplay_segment2_00E00_rgba16_ci8_aligner
                0x0000000007022a38                selectDisplay_segment2_01000_rgba16_ci8_pal_rgba16
                0x0000000007022a60                selectDisplay_segment2_01000_rgba16_ci8_pal_rgba16_aligner
                0x0000000007022a68                selectDisplay_segment2_01000_rgba16_ci8
                0x0000000007022b68                selectDisplay_segment2_01000_rgba16_ci8_aligner
                0x0000000007022b70                selectDisplay_segment2_01200_rgba16_ci8_pal_rgba16
                0x0000000007022b98                selectDisplay_segment2_01200_rgba16_ci8_pal_rgba16_aligner
                0x0000000007022ba0                selectDisplay_segment2_01200_rgba16_ci8
                0x0000000007022ca0                selectDisplay_segment2_01200_rgba16_ci8_aligner
                0x0000000007022ca8                selectDisplay_segment2_05600_rgba16_ci8_pal_rgba16
                0x0000000007022d00                selectDisplay_segment2_05600_rgba16_ci8_pal_rgba16_aligner
                0x0000000007022d08                selectDisplay_segment2_05600_rgba16_ci8
                0x0000000007022e08                selectDisplay_segment2_05600_rgba16_ci8_aligner
                0x0000000007022e10                selectDisplay_segment2_00600_rgba16_ci8_pal_rgba16
                0x0000000007022e38                selectDisplay_segment2_00600_rgba16_ci8_pal_rgba16_aligner
                0x0000000007022e40                selectDisplay_segment2_00600_rgba16_ci8
                0x0000000007022f40                selectDisplay_segment2_00600_rgba16_ci8_aligner
                0x0000000007022f48                selectDisplay_segment2_01400_rgba16_ci8_pal_rgba16
                0x0000000007022fa8                selectDisplay_segment2_01400_rgba16_ci8_pal_rgba16_aligner
                0x0000000007022fb0                selectDisplay_segment2_01400_rgba16_ci8
                0x00000000070230b0                selectDisplay_segment2_01400_rgba16_ci8_aligner
                0x00000000070230b8                selectDisplay_segment2_01600_rgba16_ci8_pal_rgba16
                0x0000000007023110                selectDisplay_segment2_01600_rgba16_ci8_pal_rgba16_aligner
                0x0000000007023118                selectDisplay_segment2_01600_rgba16_ci8
                0x0000000007023218                selectDisplay_segment2_01600_rgba16_ci8_aligner
                0x0000000007023220                selectDisplay_segment2_05C00_rgba16_ci8_pal_rgba16
                0x0000000007023298                selectDisplay_segment2_05C00_rgba16_ci8_pal_rgba16_aligner
                0x00000000070232a0                selectDisplay_segment2_05C00_rgba16_ci8
                0x00000000070233a0                selectDisplay_segment2_05C00_rgba16_ci8_aligner
                0x00000000070233a8                selectDisplay_sm64_material_002_lights
                0x00000000070233c0                selectDisplay_sm64_material_033_lights
                0x00000000070233d8                selectDisplay_sm64_material_032_lights
                0x00000000070233f0                selectDisplay_sm64_material_031_lights
                0x0000000007023408                cardboardbox_anims
                0x0000000007023d40                cardboardbox_material_revert_render_settings
                0x0000000007023d80                cardboardbox_Bone_008_mesh_layer_4
                0x0000000007023de8                cardboardbox_Bone_008_skinned_mesh_layer_4
                0x0000000007023e20                cardboardbox_Bone_007_mesh_layer_1
                0x0000000007023e40                cardboardbox_Bone_007_skinned_mesh_layer_1
                0x0000000007023e58                cardboardbox_Bone_007_mesh_layer_4
                0x0000000007023eb0                cardboardbox_Bone_007_skinned_mesh_layer_4
                0x0000000007023ee8                cardboardbox_Bone_006_mesh_layer_4
                0x0000000007023f40                cardboardbox_Bone_006_skinned_mesh_layer_4
                0x0000000007023f78                cardboardbox_Bone_005_mesh_layer_1
                0x0000000007023f98                cardboardbox_Bone_005_skinned_mesh_layer_1
                0x0000000007023fb0                cardboardbox_Bone_005_mesh_layer_4
                0x0000000007024018                cardboardbox_Bone_005_skinned_mesh_layer_4
                0x0000000007024050                cardboardbox_Bone_mesh_layer_4
                0x0000000007024088                mat_cardboardbox_f3d_material
                0x00000000070240c0                mat_revert_cardboardbox_sm64_material_001
                0x00000000070240e0                mat_cardboardbox_sm64_material_001
                0x0000000007024198                mat_revert_cardboardbox_sm64_material_003
                0x00000000070241b8                mat_cardboardbox_sm64_material_003
                0x0000000007024270                cardboardbox_Bone_008_mesh_layer_4_tri_3
                0x00000000070242a0                cardboardbox_Bone_008_mesh_layer_4_vtx_3
                0x0000000007024340                cardboardbox_Bone_008_mesh_layer_4_tri_2
                0x0000000007024360                cardboardbox_Bone_008_mesh_layer_4_vtx_2
                0x00000000070243e0                cardboardbox_Bone_008_mesh_layer_4_tri_1
                0x00000000070243f8                cardboardbox_Bone_008_mesh_layer_4_vtx_1
                0x0000000007024438                cardboardbox_Bone_008_mesh_layer_4_tri_0
                0x0000000007024458                cardboardbox_Bone_008_mesh_layer_4_vtx_0
                0x0000000007024478                cardboardbox_Bone_008_skinned_mesh_layer_4_tri_1
                0x0000000007024488                cardboardbox_Bone_008_skinned_mesh_layer_4_vtx_1
                0x00000000070244a8                cardboardbox_Bone_008_skinned_mesh_layer_4_tri_0
                0x00000000070244b8                cardboardbox_Bone_008_skinned_mesh_layer_4_vtx_0
                0x00000000070244f8                cardboardbox_Bone_007_mesh_layer_1_tri_1
                0x0000000007024af8                cardboardbox_Bone_007_mesh_layer_1_vtx_1
                0x0000000007025208                cardboardbox_Bone_007_mesh_layer_1_tri_0
                0x0000000007025270                cardboardbox_Bone_007_mesh_layer_1_vtx_0
                0x00000000070252b0                cardboardbox_Bone_007_skinned_mesh_layer_1_tri_0
                0x00000000070252c0                cardboardbox_Bone_007_skinned_mesh_layer_1_vtx_0
                0x00000000070252d0                cardboardbox_Bone_007_mesh_layer_4_tri_3
                0x00000000070252e8                cardboardbox_Bone_007_mesh_layer_4_vtx_3
                0x0000000007025328                cardboardbox_Bone_007_mesh_layer_4_tri_2
                0x0000000007025358                cardboardbox_Bone_007_mesh_layer_4_vtx_2
                0x0000000007025418                cardboardbox_Bone_007_mesh_layer_4_tri_1
                0x0000000007025430                cardboardbox_Bone_007_mesh_layer_4_vtx_1
                0x0000000007025470                cardboardbox_Bone_007_mesh_layer_4_tri_0
                0x0000000007025490                cardboardbox_Bone_007_mesh_layer_4_vtx_0
                0x00000000070254b0                cardboardbox_Bone_007_skinned_mesh_layer_4_tri_1
                0x00000000070254c0                cardboardbox_Bone_007_skinned_mesh_layer_4_vtx_1
                0x00000000070254e0                cardboardbox_Bone_007_skinned_mesh_layer_4_tri_0
                0x00000000070254f0                cardboardbox_Bone_007_skinned_mesh_layer_4_vtx_0
                0x0000000007025530                cardboardbox_Bone_006_mesh_layer_4_tri_3
                0x0000000007025560                cardboardbox_Bone_006_mesh_layer_4_vtx_3
                0x0000000007025660                cardboardbox_Bone_006_mesh_layer_4_tri_2
                0x0000000007025680                cardboardbox_Bone_006_mesh_layer_4_vtx_2
                0x0000000007025700                cardboardbox_Bone_006_mesh_layer_4_tri_1
                0x0000000007025720                cardboardbox_Bone_006_mesh_layer_4_vtx_1
                0x0000000007025740                cardboardbox_Bone_006_mesh_layer_4_tri_0
                0x0000000007025758                cardboardbox_Bone_006_mesh_layer_4_vtx_0
                0x0000000007025798                cardboardbox_Bone_006_skinned_mesh_layer_4_tri_1
                0x00000000070257a8                cardboardbox_Bone_006_skinned_mesh_layer_4_vtx_1
                0x00000000070257e8                cardboardbox_Bone_006_skinned_mesh_layer_4_tri_0
                0x00000000070257f8                cardboardbox_Bone_006_skinned_mesh_layer_4_vtx_0
                0x0000000007025818                cardboardbox_Bone_005_mesh_layer_1_tri_1
                0x0000000007025e18                cardboardbox_Bone_005_mesh_layer_1_vtx_1
                0x00000000070264c8                cardboardbox_Bone_005_mesh_layer_1_tri_0
                0x0000000007026530                cardboardbox_Bone_005_mesh_layer_1_vtx_0
                0x0000000007026570                cardboardbox_Bone_005_skinned_mesh_layer_1_tri_0
                0x0000000007026580                cardboardbox_Bone_005_skinned_mesh_layer_1_vtx_0
                0x0000000007026590                cardboardbox_Bone_005_mesh_layer_4_tri_3
                0x00000000070265a8                cardboardbox_Bone_005_mesh_layer_4_vtx_3
                0x00000000070265e8                cardboardbox_Bone_005_mesh_layer_4_tri_2
                0x0000000007026618                cardboardbox_Bone_005_mesh_layer_4_vtx_2
                0x00000000070266b8                cardboardbox_Bone_005_mesh_layer_4_tri_1
                0x00000000070266d8                cardboardbox_Bone_005_mesh_layer_4_vtx_1
                0x00000000070266f8                cardboardbox_Bone_005_mesh_layer_4_tri_0
                0x0000000007026710                cardboardbox_Bone_005_mesh_layer_4_vtx_0
                0x0000000007026750                cardboardbox_Bone_005_skinned_mesh_layer_4_tri_1
                0x0000000007026760                cardboardbox_Bone_005_skinned_mesh_layer_4_vtx_1
                0x00000000070267a0                cardboardbox_Bone_005_skinned_mesh_layer_4_tri_0
                0x00000000070267b0                cardboardbox_Bone_005_skinned_mesh_layer_4_vtx_0
                0x00000000070267d0                cardboardbox_Bone_mesh_layer_4_tri_1
                0x0000000007026868                cardboardbox_Bone_mesh_layer_4_vtx_1
                0x0000000007026b08                cardboardbox_Bone_mesh_layer_4_tri_0
                0x0000000007026e28                cardboardbox_Bone_mesh_layer_4_vtx_0
                0x0000000007027958                cardboardbox_LogoV2_rgba16
                0x000000000703adb0                cardboardbox_LogoV2_rgba16_aligner
                0x000000000703adb8                cardboardbox_item_1680_heart_sokumen001__ci8_pal_rgba16
                0x000000000703ae00                cardboardbox_item_1680_heart_sokumen001__ci8_pal_rgba16_aligner
                0x000000000703ae08                cardboardbox_item_1680_heart_sokumen001__ci8
                0x000000000703af08                cardboardbox_item_1680_heart_sokumen001__ci8_aligner
                0x000000000703af10                cardboardbox_btl_jun_00_48C00_jun_wall_02__ci4_pal_rgba16
                0x000000000703af30                cardboardbox_btl_jun_00_48C00_jun_wall_02__ci4_pal_rgba16_aligner
                0x000000000703af38                cardboardbox_btl_jun_00_48C00_jun_wall_02__ci4
                0x000000000703b738                cardboardbox_btl_jun_00_48C00_jun_wall_02__ci4_aligner
                0x000000000703b740                cardboardbox_f3d_material_lights
                0x000000000703b758                cardboardbox_sm64_material_001_lights
                0x000000000703b770                cardboardbox_sm64_material_003_lights
                0x000000000703b788                ending_dl_material_revert_render_settings
                0x000000000703b7c8                ending_dl_Plane_004_mesh_layer_4
                0x000000000703b800                ending_dl_Plane_004_mesh
                0x000000000703b818                ending_dl_Plane_002_mesh
                0x000000000703b868                ending_dl_Plane_001_mesh
                0x000000000703b8d0                ending_dl_default_004_mesh
                0x000000000703baa0                mat_revert_ending_dl_f3d_material_001
                0x000000000703bac0                mat_ending_dl_f3d_material_001
                0x000000000703bb78                mat_revert_ending_dl_f3d_material
                0x000000000703bb90                mat_ending_dl_f3d_material
                0x000000000703bc10                mat_ending_dl_sm64_material
                0x000000000703bc70                mat_revert_ending_dl_sm64_material_066
                0x000000000703bc88                mat_ending_dl_sm64_material_066
                0x000000000703bd08                mat_revert_ending_dl_sm64_material_030
                0x000000000703bd28                mat_ending_dl_sm64_material_030
                0x000000000703bde0                mat_revert_ending_dl_sm64_material_001
                0x000000000703be00                mat_ending_dl_sm64_material_001
                0x000000000703beb8                mat_revert_ending_dl_sm64_material_029
                0x000000000703bed0                mat_ending_dl_sm64_material_029
                0x000000000703bf50                mat_revert_ending_dl_sm64_material_028
                0x000000000703bf68                mat_ending_dl_sm64_material_028
                0x000000000703bfe8                mat_revert_ending_dl_sm64_material_050
                0x000000000703c008                mat_ending_dl_sm64_material_050
                0x000000000703c0c0                mat_revert_ending_dl_sm64_material_051
                0x000000000703c0e0                mat_ending_dl_sm64_material_051
                0x000000000703c198                mat_revert_ending_dl_sm64_material_054
                0x000000000703c1b8                mat_ending_dl_sm64_material_054
                0x000000000703c270                mat_revert_ending_dl_sm64_material_055
                0x000000000703c290                mat_ending_dl_sm64_material_055
                0x000000000703c348                mat_revert_ending_dl_sm64_material_043
                0x000000000703c368                mat_ending_dl_sm64_material_043
                0x000000000703c420                mat_revert_ending_dl_sm64_material_044
                0x000000000703c440                mat_ending_dl_sm64_material_044
                0x000000000703c4f8                mat_revert_ending_dl_sm64_material_047
                0x000000000703c518                mat_ending_dl_sm64_material_047
                0x000000000703c5d0                mat_revert_ending_dl_sm64_material_048
                0x000000000703c5f0                mat_ending_dl_sm64_material_048
                0x000000000703c6a8                mat_revert_ending_dl_sm64_material_036
                0x000000000703c6c8                mat_ending_dl_sm64_material_036
                0x000000000703c780                mat_revert_ending_dl_sm64_material_037
                0x000000000703c7a0                mat_ending_dl_sm64_material_037
                0x000000000703c858                mat_revert_ending_dl_sm64_material_040
                0x000000000703c878                mat_ending_dl_sm64_material_040
                0x000000000703c930                mat_revert_ending_dl_sm64_material_041
                0x000000000703c950                mat_ending_dl_sm64_material_041
                0x000000000703ca08                mat_revert_ending_dl_sm64_material_057
                0x000000000703ca28                mat_ending_dl_sm64_material_057
                0x000000000703cae0                mat_revert_ending_dl_sm64_material_058
                0x000000000703cb00                mat_ending_dl_sm64_material_058
                0x000000000703cbb8                mat_revert_ending_dl_sm64_material_045
                0x000000000703cbd8                mat_ending_dl_sm64_material_045
                0x000000000703cc90                mat_revert_ending_dl_sm64_material_046
                0x000000000703ccb0                mat_ending_dl_sm64_material_046
                0x000000000703cd68                mat_revert_ending_dl_sm64_material_061
                0x000000000703cd88                mat_ending_dl_sm64_material_061
                0x000000000703ce40                mat_revert_ending_dl_sm64_material_062
                0x000000000703ce60                mat_ending_dl_sm64_material_062
                0x000000000703cf18                mat_revert_ending_dl_sm64_material_063
                0x000000000703cf38                mat_ending_dl_sm64_material_063
                0x000000000703cff0                ending_dl_Plane_004_mesh_layer_4_tri_1
                0x000000000703d008                ending_dl_Plane_004_mesh_layer_4_vtx_1
                0x000000000703d048                ending_dl_Plane_004_mesh_layer_4_tri_0
                0x000000000703d060                ending_dl_Plane_004_mesh_layer_4_vtx_0
                0x000000000703d0a0                ending_dl_Plane_004_mesh_tri_0
                0x000000000703d0b8                ending_dl_Plane_004_mesh_vtx_0
                0x000000000703d0f8                ending_dl_Plane_002_mesh_tri_2
                0x000000000703d110                ending_dl_Plane_002_mesh_vtx_2
                0x000000000703d150                ending_dl_Plane_002_mesh_tri_1
                0x000000000703d168                ending_dl_Plane_002_mesh_vtx_1
                0x000000000703d1a8                ending_dl_Plane_002_mesh_tri_0
                0x000000000703d1c0                ending_dl_Plane_002_mesh_vtx_0
                0x000000000703d200                ending_dl_Plane_001_mesh_tri_3
                0x000000000703d240                ending_dl_Plane_001_mesh_vtx_3
                0x000000000703d3c0                ending_dl_Plane_001_mesh_tri_2
                0x000000000703d440                ending_dl_Plane_001_mesh_vtx_2
                0x000000000703d640                ending_dl_Plane_001_mesh_tri_1
                0x000000000703d7f8                ending_dl_Plane_001_mesh_vtx_1
                0x000000000703e3f8                ending_dl_Plane_001_mesh_tri_0
                0x000000000703e630                ending_dl_Plane_001_mesh_vtx_0
                0x000000000703f4d0                ending_dl_default_004_mesh_tri_18
                0x000000000703f4f0                ending_dl_default_004_mesh_vtx_18
                0x000000000703f550                ending_dl_default_004_mesh_tri_17
                0x000000000703f590                ending_dl_default_004_mesh_vtx_17
                0x000000000703f640                ending_dl_default_004_mesh_tri_16
                0x000000000703f710                ending_dl_default_004_mesh_vtx_16
                0x000000000703f8e0                ending_dl_default_004_mesh_tri_15
                0x000000000703fb88                ending_dl_default_004_mesh_vtx_15
                0x0000000007040998                ending_dl_default_004_mesh_tri_14
                0x00000000070409b8                ending_dl_default_004_mesh_vtx_14
                0x0000000007040a18                ending_dl_default_004_mesh_tri_13
                0x0000000007040a58                ending_dl_default_004_mesh_vtx_13
                0x0000000007040b08                ending_dl_default_004_mesh_tri_12
                0x0000000007040bd8                ending_dl_default_004_mesh_vtx_12
                0x0000000007040da8                ending_dl_default_004_mesh_tri_11
                0x0000000007041050                ending_dl_default_004_mesh_vtx_11
                0x0000000007041e60                ending_dl_default_004_mesh_tri_10
                0x0000000007041e80                ending_dl_default_004_mesh_vtx_10
                0x0000000007041ee0                ending_dl_default_004_mesh_tri_9
                0x0000000007041f20                ending_dl_default_004_mesh_vtx_9
                0x0000000007041fd0                ending_dl_default_004_mesh_tri_8
                0x00000000070420a0                ending_dl_default_004_mesh_vtx_8
                0x0000000007042270                ending_dl_default_004_mesh_tri_7
                0x0000000007042518                ending_dl_default_004_mesh_vtx_7
                0x0000000007043328                ending_dl_default_004_mesh_tri_6
                0x0000000007043348                ending_dl_default_004_mesh_vtx_6
                0x00000000070433a8                ending_dl_default_004_mesh_tri_5
                0x00000000070433e8                ending_dl_default_004_mesh_vtx_5
                0x0000000007043498                ending_dl_default_004_mesh_tri_4
                0x0000000007043548                ending_dl_default_004_mesh_vtx_4
                0x0000000007043708                ending_dl_default_004_mesh_tri_3
                0x0000000007043ca0                ending_dl_default_004_mesh_vtx_3
                0x0000000007045770                ending_dl_default_004_mesh_tri_2
                0x0000000007045840                ending_dl_default_004_mesh_vtx_2
                0x0000000007045a10                ending_dl_default_004_mesh_tri_1
                0x0000000007045cb8                ending_dl_default_004_mesh_vtx_1
                0x0000000007046ac8                ending_dl_default_004_mesh_tri_0
                0x0000000007046c00                ending_dl_default_004_mesh_vtx_0
                0x0000000007046fc0                ending_dl_Tape_ci4_pal_rgba16
                0x0000000007046fc8                ending_dl_Tape_ci4_pal_rgba16_aligner
                0x0000000007046fd0                ending_dl_Tape_ci4
                0x00000000070477d0                ending_dl_Tape_ci4_aligner
                0x00000000070477d8                ending_dl_FileSelect_ia4
                0x00000000070487d8                ending_dl_FileSelect_ia4_aligner
                0x00000000070487e0                ending_dl_Toybox3_ia4
                0x00000000070497e0                ending_dl_Toybox3_ia4_aligner
                0x00000000070497e8                ending_dl__2345_rgba16
                0x000000000704a7e8                ending_dl__2345_rgba16_aligner
                0x000000000704a7f0                ending_dl_carpettile_ci4_pal_rgba16
                0x000000000704a810                ending_dl_carpettile_ci4_pal_rgba16_aligner
                0x000000000704a818                ending_dl_carpettile_ci4
                0x000000000704b018                ending_dl_carpettile_ci4_aligner
                0x000000000704b020                ending_dl_item_1680_heart_sokumen001__ci8_pal_rgba16
                0x000000000704b068                ending_dl_item_1680_heart_sokumen001__ci8_pal_rgba16_aligner
                0x000000000704b070                ending_dl_item_1680_heart_sokumen001__ci8
                0x000000000704b170                ending_dl_item_1680_heart_sokumen001__ci8_aligner
                0x000000000704b178                ending_dl_carpet2_i4
                0x000000000704c178                ending_dl_carpet2_i4_aligner
                0x000000000704c180                ending_dl_carpet1_i4
                0x000000000704d180                ending_dl_carpet1_i4_aligner
                0x000000000704d188                ending_dl_blueeyes_ci8_pal_rgba16
                0x000000000704d268                ending_dl_blueeyes_ci8_pal_rgba16_aligner
                0x000000000704d270                ending_dl_blueeyes_ci8
                0x000000000704d670                ending_dl_blueeyes_ci8_aligner
                0x000000000704d678                ending_dl_bluebelly_ci8_pal_rgba16
                0x000000000704d760                ending_dl_bluebelly_ci8_pal_rgba16_aligner
                0x000000000704d768                ending_dl_bluebelly_ci8
                0x000000000704df68                ending_dl_bluebelly_ci8_aligner
                0x000000000704df70                ending_dl_bluenose_ci4_pal_rgba16
                0x000000000704df90                ending_dl_bluenose_ci4_pal_rgba16_aligner
                0x000000000704df98                ending_dl_bluenose_ci4
                0x000000000704e798                ending_dl_bluenose_ci4_aligner
                0x000000000704e7a0                ending_dl_bluewool_ci8_pal_rgba16
                0x000000000704e830                ending_dl_bluewool_ci8_pal_rgba16_aligner
                0x000000000704e838                ending_dl_bluewool_ci8
                0x000000000704f038                ending_dl_bluewool_ci8_aligner
                0x000000000704f040                ending_dl_pinkeye_ci8_pal_rgba16
                0x000000000704f118                ending_dl_pinkeye_ci8_pal_rgba16_aligner
                0x000000000704f120                ending_dl_pinkeye_ci8
                0x000000000704f520                ending_dl_pinkeye_ci8_aligner
                0x000000000704f528                ending_dl_pinkbelly_ci8_pal_rgba16
                0x000000000704f618                ending_dl_pinkbelly_ci8_pal_rgba16_aligner
                0x000000000704f620                ending_dl_pinkbelly_ci8
                0x000000000704fe20                ending_dl_pinkbelly_ci8_aligner
                0x000000000704fe28                ending_dl_pinknose_ci4_pal_rgba16
                0x000000000704fe48                ending_dl_pinknose_ci4_pal_rgba16_aligner
                0x000000000704fe50                ending_dl_pinknose_ci4
                0x0000000007050650                ending_dl_pinknose_ci4_aligner
                0x0000000007050658                ending_dl_pinkwool_ci8_pal_rgba16
                0x00000000070506f0                ending_dl_pinkwool_ci8_pal_rgba16_aligner
                0x00000000070506f8                ending_dl_pinkwool_ci8
                0x0000000007050ef8                ending_dl_pinkwool_ci8_aligner
                0x0000000007050f00                ending_dl_eyes_ci8_pal_rgba16
                0x0000000007050fe8                ending_dl_eyes_ci8_pal_rgba16_aligner
                0x0000000007050ff0                ending_dl_eyes_ci8
                0x00000000070513f0                ending_dl_eyes_ci8_aligner
                0x00000000070513f8                ending_dl_yoshibelly_ci8_pal_rgba16
                0x00000000070514e8                ending_dl_yoshibelly_ci8_pal_rgba16_aligner
                0x00000000070514f0                ending_dl_yoshibelly_ci8
                0x0000000007051cf0                ending_dl_yoshibelly_ci8_aligner
                0x0000000007051cf8                ending_dl_nose_ci4_pal_rgba16
                0x0000000007051d18                ending_dl_nose_ci4_pal_rgba16_aligner
                0x0000000007051d20                ending_dl_nose_ci4
                0x0000000007052520                ending_dl_nose_ci4_aligner
                0x0000000007052528                ending_dl_wool_ci8_pal_rgba16
                0x00000000070525c8                ending_dl_wool_ci8_pal_rgba16_aligner
                0x00000000070525d0                ending_dl_wool_ci8
                0x0000000007052dd0                ending_dl_wool_ci8_aligner
                0x0000000007052dd8                ending_dl_redeyes_ci8_pal_rgba16
                0x0000000007052eb0                ending_dl_redeyes_ci8_pal_rgba16_aligner
                0x0000000007052eb8                ending_dl_redeyes_ci8
                0x00000000070532b8                ending_dl_redeyes_ci8_aligner
                0x00000000070532c0                ending_dl_redbelly_ci8_pal_rgba16
                0x00000000070533a8                ending_dl_redbelly_ci8_pal_rgba16_aligner
                0x00000000070533b0                ending_dl_redbelly_ci8
                0x0000000007053bb0                ending_dl_redbelly_ci8_aligner
                0x0000000007053bb8                ending_dl_spikes_ci8_pal_rgba16
                0x0000000007053c30                ending_dl_spikes_ci8_pal_rgba16_aligner
                0x0000000007053c38                ending_dl_spikes_ci8
                0x0000000007054038                ending_dl_spikes_ci8_aligner
                0x0000000007054040                ending_dl_shoes_ci8_pal_rgba16
                0x0000000007054108                ending_dl_shoes_ci8_pal_rgba16_aligner
                0x0000000007054110                ending_dl_shoes_ci8
                0x0000000007054910                ending_dl_shoes_ci8_aligner
                0x0000000007054918                ending_dl_rednose_ci4_pal_rgba16
                0x0000000007054938                ending_dl_rednose_ci4_pal_rgba16_aligner
                0x0000000007054940                ending_dl_rednose_ci4
                0x0000000007055140                ending_dl_rednose_ci4_aligner
                0x0000000007055148                ending_dl_redwool_ci8_pal_rgba16
                0x00000000070551e0                ending_dl_redwool_ci8_pal_rgba16_aligner
                0x00000000070551e8                ending_dl_redwool_ci8
                0x00000000070559e8                ending_dl_redwool_ci8_aligner
                0x00000000070559f0                ending_dl_YOSHISPOT_ci4_pal_rgba16
                0x0000000007055a10                ending_dl_YOSHISPOT_ci4_pal_rgba16_aligner
                0x0000000007055a18                ending_dl_YOSHISPOT_ci4
                0x0000000007056218                ending_dl_YOSHISPOT_ci4_aligner
                0x0000000007056220                ending_dl_f3d_material_001_lights
                0x0000000007056238                ending_dl_f3d_material_lights
                0x0000000007056250                ending_dl_sm64_material_066_lights
                0x0000000007056268                ending_dl_sm64_material_030_lights
                0x0000000007056280                ending_dl_sm64_material_001_lights
                0x0000000007056298                ending_dl_sm64_material_029_lights
                0x00000000070562b0                ending_dl_sm64_material_028_lights
                0x00000000070562c8                ending_dl_sm64_material_050_lights
                0x00000000070562e0                ending_dl_sm64_material_051_lights
                0x00000000070562f8                ending_dl_sm64_material_054_lights
                0x0000000007056310                ending_dl_sm64_material_055_lights
                0x0000000007056328                ending_dl_sm64_material_043_lights
                0x0000000007056340                ending_dl_sm64_material_044_lights
                0x0000000007056358                ending_dl_sm64_material_047_lights
                0x0000000007056370                ending_dl_sm64_material_048_lights
                0x0000000007056388                ending_dl_sm64_material_036_lights
                0x00000000070563a0                ending_dl_sm64_material_037_lights
                0x00000000070563b8                ending_dl_sm64_material_040_lights
                0x00000000070563d0                ending_dl_sm64_material_041_lights
                0x00000000070563e8                ending_dl_sm64_material_057_lights
                0x0000000007056400                ending_dl_sm64_material_058_lights
                0x0000000007056418                ending_dl_sm64_material_045_lights
                0x0000000007056430                ending_dl_sm64_material_046_lights
                0x0000000007056448                ending_dl_sm64_material_061_lights
                0x0000000007056460                ending_dl_sm64_material_062_lights
                0x0000000007056478                ending_dl_sm64_material_063_lights
                0x0000000007056490                ending_area_1_spline_IntroCutscenePos_001
                0x00000000070564a0                ending_area_1_spline_IntroCutscenePos
                0x00000000070564e8                ending_area_1_spline_IntroCutsceneFoc_001
                0x00000000070564f8                ending_area_1_spline_IntroCutsceneFoc
                0x0000000007056538                ending_area_1_macro_objs
                0x000000000705653c                ending_area_1_collision

.data1
 *(.data1)

.got.plt
 *(.got.plt)
                0x000000000705887e                . = .
                0x0000000007060870                _gp = (ALIGN (0x10) + 0x7ff0)

.got
 *(.got)

.sdata
 *(.sdata .sdata.* .gnu.linkonce.s.*)

.lit8
 *(.lit8)

.lit4
 *(.lit4)
                0x000000000705887e                _edata = .
                [!provide]                        PROVIDE (edata = .)
                0x000000000705887e                . = .
                0x000000000705887e                __bss_start = .
                0x000000000705887e                _fbss = .

.sbss
 *(.dynsbss)
 *(.sbss .sbss.* .gnu.linkonce.sb.*)
 *(.scommon)

.bss            0x000000000705887e        0x0
 *(.dynbss)
 *(.bss .bss.* .gnu.linkonce.b.*)
 .bss           0x000000000705887e        0x0 build/us/levels/ending/leveldata.o
 *(COMMON)
                0x000000000705887e                . = ALIGN ((. != 0x0)?0x4:0x1)
                0x0000000007058880                . = ALIGN (0x4)
                0x0000000007058880                . = SEGMENT_START ("ldata-segment", .)
                0x0000000007058880                . = ALIGN (0x4)
                0x0000000007058880                _end = .
                [!provide]                        PROVIDE (end = .)
                0x0000000007058880                . = DATA_SEGMENT_END (.)

.stab
 *(.stab)

.stabstr
 *(.stabstr)

.stab.excl
 *(.stab.excl)

.stab.exclstr
 *(.stab.exclstr)

.stab.index
 *(.stab.index)

.stab.indexstr
 *(.stab.indexstr)

.comment        0x0000000000000000       0x12
 *(.comment)
 .comment       0x0000000000000000       0x12 build/us/levels/ending/leveldata.o
                                         0x13 (size before relaxing)

.pdr            0x0000000000000000        0x0
 .pdr           0x0000000000000000        0x0 build/us/levels/ending/leveldata.o

.gnu.build.attributes
 *(.gnu.build.attributes .gnu.build.attributes.*)

.debug
 *(.debug)

.line
 *(.line)

.debug_srcinfo
 *(.debug_srcinfo)

.debug_sfnames
 *(.debug_sfnames)

.debug_aranges
 *(.debug_aranges)

.debug_pubnames
 *(.debug_pubnames)

.debug_info
 *(.debug_info .gnu.linkonce.wi.*)

.debug_abbrev
 *(.debug_abbrev)

.debug_line
 *(.debug_line .debug_line.* .debug_line_end)

.debug_frame
 *(.debug_frame)

.debug_str
 *(.debug_str)

.debug_loc
 *(.debug_loc)

.debug_macinfo
 *(.debug_macinfo)

.debug_weaknames
 *(.debug_weaknames)

.debug_funcnames
 *(.debug_funcnames)

.debug_typenames
 *(.debug_typenames)

.debug_varnames
 *(.debug_varnames)

.debug_pubtypes
 *(.debug_pubtypes)

.debug_ranges
 *(.debug_ranges)

.debug_addr
 *(.debug_addr)

.debug_line_str
 *(.debug_line_str)

.debug_loclists
 *(.debug_loclists)

.debug_macro
 *(.debug_macro)

.debug_names
 *(.debug_names)

.debug_rnglists
 *(.debug_rnglists)

.debug_str_offsets
 *(.debug_str_offsets)

.debug_sup
 *(.debug_sup)

.gnu.attributes
                0x0000000000000000       0x10
 *(.gnu.attributes)
 .gnu.attributes
                0x0000000000000000       0x10 build/us/levels/ending/leveldata.o

.gptab.sdata
 *(.gptab.data)
 *(.gptab.sdata)

.gptab.sbss
 *(.gptab.bss)
 *(.gptab.sbss)

.mdebug.abi32   0x0000000000000000        0x0
 *(.mdebug.abi32)
 .mdebug.abi32  0x0000000000000000        0x0 build/us/levels/ending/leveldata.o

.mdebug.abiN32
 *(.mdebug.abiN32)

.mdebug.abi64
 *(.mdebug.abi64)

.mdebug.abiO64
 *(.mdebug.abiO64)

.mdebug.eabi32
 *(.mdebug.eabi32)

.mdebug.eabi64
 *(.mdebug.eabi64)

.gcc_compiled_long32
 *(.gcc_compiled_long32)

.gcc_compiled_long64
 *(.gcc_compiled_long64)

/DISCARD/
 *(.note.GNU-stack)
 *(.gnu_debuglink)
 *(.gnu.lto_*)
OUTPUT(build/us/levels/ending/leveldata.elf elf32-bigmips)
