
Memory Configuration

Name             Origin             Length             Attributes
*default*        0x0000000000000000 0xffffffffffffffff

Linker script and memory map

Address of section .text set to 0x7000000
LOAD build/us/bin/water.elf
LOAD build/us/levels/jrb/leveldata.o
                [!provide]                        PROVIDE (__executable_start = SEGMENT_START ("text-segment", 0x400000))
                0x0000000000400000                . = SEGMENT_START ("text-segment", 0x400000)

.interp
 *(.interp)

.MIPS.abiflags  0x0000000000400000       0x18
 *(.MIPS.abiflags)
 .MIPS.abiflags
                0x0000000000400000       0x18 build/us/levels/jrb/leveldata.o

.reginfo        0x0000000000400018       0x18
 *(.reginfo)
 .reginfo       0x0000000000400018       0x18 build/us/levels/jrb/leveldata.o

.MIPS.xhash
 *(.MIPS.xhash)

.note.gnu.build-id
 *(.note.gnu.build-id)

.dynamic
 *(.dynamic)

.hash
 *(.hash)

.gnu.hash
 *(.gnu.hash)

.dynsym
 *(.dynsym)

.dynstr
 *(.dynstr)

.gnu.version
 *(.gnu.version)

.gnu.version_d
 *(.gnu.version_d)

.gnu.version_r
 *(.gnu.version_r)

.rel.dyn        0x0000000000400018        0x0
 *(.rel.init)
 *(.rel.text .rel.text.* .rel.gnu.linkonce.t.*)
 *(.rel.fini)
 *(.rel.rodata .rel.rodata.* .rel.gnu.linkonce.r.*)
 *(.rel.data.rel.ro .rel.data.rel.ro.* .rel.gnu.linkonce.d.rel.ro.*)
 *(.rel.data .rel.data.* .rel.gnu.linkonce.d.*)
 *(.rel.tdata .rel.tdata.* .rel.gnu.linkonce.td.*)
 *(.rel.tbss .rel.tbss.* .rel.gnu.linkonce.tb.*)
 *(.rel.ctors)
 *(.rel.dtors)
 *(.rel.got)
 *(.rel.dyn)
 .rel.dyn       0x0000000000400018        0x0 build/us/levels/jrb/leveldata.o
 *(.rel.sdata .rel.sdata.* .rel.gnu.linkonce.s.*)
 *(.rel.sbss .rel.sbss.* .rel.gnu.linkonce.sb.*)
 *(.rel.sdata2 .rel.sdata2.* .rel.gnu.linkonce.s2.*)
 *(.rel.sbss2 .rel.sbss2.* .rel.gnu.linkonce.sb2.*)
 *(.rel.bss .rel.bss.* .rel.gnu.linkonce.b.*)
                [!provide]                        PROVIDE (__rel_iplt_start = .)
 *(.rel.iplt)
                [!provide]                        PROVIDE (__rel_iplt_end = .)

.rela.dyn       0x0000000000400018        0x0
 *(.rela.init)
 *(.rela.text .rela.text.* .rela.gnu.linkonce.t.*)
 *(.rela.fini)
 *(.rela.rodata .rela.rodata.* .rela.gnu.linkonce.r.*)
 *(.rela.data .rela.data.* .rela.gnu.linkonce.d.*)
 *(.rela.tdata .rela.tdata.* .rela.gnu.linkonce.td.*)
 *(.rela.tbss .rela.tbss.* .rela.gnu.linkonce.tb.*)
 *(.rela.ctors)
 *(.rela.dtors)
 *(.rela.got)
 *(.rela.sdata .rela.sdata.* .rela.gnu.linkonce.s.*)
 *(.rela.sbss .rela.sbss.* .rela.gnu.linkonce.sb.*)
 *(.rela.sdata2 .rela.sdata2.* .rela.gnu.linkonce.s2.*)
 *(.rela.sbss2 .rela.sbss2.* .rela.gnu.linkonce.sb2.*)
 *(.rela.bss .rela.bss.* .rela.gnu.linkonce.b.*)
                [!provide]                        PROVIDE (__rela_iplt_start = .)
 *(.rela.iplt)
                [!provide]                        PROVIDE (__rela_iplt_end = .)

.rel.plt
 *(.rel.plt)

.rela.plt
 *(.rela.plt)

.init
 *(SORT_NONE(.init))

.plt
 *(.plt)

.iplt
 *(.iplt)

.text           0x0000000007000000        0x0
                0x0000000007000000                _ftext = .
 *(.text.unlikely .text.*_unlikely .text.unlikely.*)
 *(.text.exit .text.exit.*)
 *(.text.startup .text.startup.*)
 *(.text.hot .text.hot.*)
 *(SORT_BY_NAME(.text.sorted.*))
 *(.text .stub .text.* .gnu.linkonce.t.*)
 .text          0x0000000007000000        0x0 build/us/levels/jrb/leveldata.o
 *(.gnu.warning)
 *(.mips16.fn.*)
 *(.mips16.call.*)

.fini
 *(SORT_NONE(.fini))
                [!provide]                        PROVIDE (__etext = .)
                [!provide]                        PROVIDE (_etext = .)
                [!provide]                        PROVIDE (etext = .)

.rodata
 *(.rodata .rodata.* .gnu.linkonce.r.*)

.rodata1
 *(.rodata1)

.sdata2
 *(.sdata2 .sdata2.* .gnu.linkonce.s2.*)

.sbss2
 *(.sbss2 .sbss2.* .gnu.linkonce.sb2.*)

.eh_frame_hdr
 *(.eh_frame_hdr)
 *(.eh_frame_entry .eh_frame_entry.*)

.eh_frame
 *(.eh_frame)
 *(.eh_frame.*)

.gcc_except_table
 *(.gcc_except_table .gcc_except_table.*)

.gnu_extab
 *(.gnu_extab*)

.exception_ranges
 *(.exception_ranges*)
                0x0000000007000000                . = DATA_SEGMENT_ALIGN (CONSTANT (MAXPAGESIZE), CONSTANT (COMMONPAGESIZE))

.eh_frame
 *(.eh_frame)
 *(.eh_frame.*)

.gnu_extab
 *(.gnu_extab)

.gcc_except_table
 *(.gcc_except_table .gcc_except_table.*)

.exception_ranges
 *(.exception_ranges*)

.tdata          0x0000000007000000        0x0
                [!provide]                        PROVIDE (__tdata_start = .)
 *(.tdata .tdata.* .gnu.linkonce.td.*)

.tbss
 *(.tbss .tbss.* .gnu.linkonce.tb.*)
 *(.tcommon)

.preinit_array  0x0000000007000000        0x0
                [!provide]                        PROVIDE (__preinit_array_start = .)
 *(.preinit_array)
                [!provide]                        PROVIDE (__preinit_array_end = .)

.init_array     0x0000000007000000        0x0
                [!provide]                        PROVIDE (__init_array_start = .)
 *(SORT_BY_INIT_PRIORITY(.init_array.*) SORT_BY_INIT_PRIORITY(.ctors.*))
 *(.init_array EXCLUDE_FILE(*crtend?.o *crtend.o *crtbegin?.o *crtbegin.o) .ctors)
                [!provide]                        PROVIDE (__init_array_end = .)

.fini_array     0x0000000007000000        0x0
                [!provide]                        PROVIDE (__fini_array_start = .)
 *(SORT_BY_INIT_PRIORITY(.fini_array.*) SORT_BY_INIT_PRIORITY(.dtors.*))
 *(.fini_array EXCLUDE_FILE(*crtend?.o *crtend.o *crtbegin?.o *crtbegin.o) .dtors)
                [!provide]                        PROVIDE (__fini_array_end = .)

.ctors
 *crtbegin.o(.ctors)
 *crtbegin?.o(.ctors)
 *(EXCLUDE_FILE(*crtend?.o *crtend.o) .ctors)
 *(SORT_BY_NAME(.ctors.*))
 *(.ctors)

.dtors
 *crtbegin.o(.dtors)
 *crtbegin?.o(.dtors)
 *(EXCLUDE_FILE(*crtend?.o *crtend.o) .dtors)
 *(SORT_BY_NAME(.dtors.*))
 *(.dtors)

.jcr
 *(.jcr)

.data.rel.ro
 *(.data.rel.ro.local* .gnu.linkonce.d.rel.ro.local.*)
 *(.data.rel.ro .data.rel.ro.* .gnu.linkonce.d.rel.ro.*)
                0x0000000007000000                . = DATA_SEGMENT_RELRO_END (., 0x0)

.data           0x0000000007000000    0xb5198
                0x0000000007000000                _fdata = .
 *(.data .data.* .gnu.linkonce.d.*)
 .data          0x0000000007000000    0xb5198 build/us/levels/jrb/leveldata.o
                0x0000000007000000                pumpking_material_revert_render_settings
                0x0000000007000040                pumpking_cullthispumpkin_mesh
                0x00000000070000c8                mat_revert_pumpking__33_f3d_v3
                0x00000000070000e8                mat_pumpking__33_f3d_v3
                0x00000000070001a0                mat_revert_pumpking__1_f3d_v3
                0x00000000070001c0                mat_pumpking__1_f3d_v3
                0x0000000007000278                mat_revert_pumpking__2_f3d_v3
                0x0000000007000298                mat_pumpking__2_f3d_v3
                0x0000000007000350                mat_revert_pumpking__31_f3d_v3
                0x0000000007000370                mat_pumpking__31_f3d_v3
                0x0000000007000428                pumpking_cullthispumpkin_mesh_tri_3
                0x0000000007000448                pumpking_cullthispumpkin_mesh_vtx_3
                0x0000000007000498                pumpking_cullthispumpkin_mesh_tri_2
                0x00000000070004b0                pumpking_cullthispumpkin_mesh_vtx_2
                0x0000000007000510                pumpking_cullthispumpkin_mesh_tri_1
                0x0000000007000528                pumpking_cullthispumpkin_mesh_vtx_1
                0x0000000007000568                pumpking_cullthispumpkin_mesh_tri_0
                0x0000000007000608                pumpking_cullthispumpkin_mesh_vtx_0
                0x00000000070007e8                pumpking_cullthispumpkin_mesh_vtx_cull
                0x0000000007000868                pumpking__33_ci4_pal_rgba16
                0x0000000007000880                pumpking__33_ci4_pal_rgba16_aligner
                0x0000000007000888                pumpking__33_ci4
                0x0000000007000908                pumpking__33_ci4_aligner
                0x0000000007000910                pumpking__1_ci4_pal_rgba16
                0x0000000007000918                pumpking__1_ci4_pal_rgba16_aligner
                0x0000000007000920                pumpking__1_ci4
                0x0000000007000b20                pumpking__1_ci4_aligner
                0x0000000007000b28                pumpking__2_ci4_pal_rgba16
                0x0000000007000b30                pumpking__2_ci4_pal_rgba16_aligner
                0x0000000007000b38                pumpking__2_ci4
                0x0000000007000f38                pumpking__2_ci4_aligner
                0x0000000007000f40                pumpking__31_ci8_pal_rgba16
                0x0000000007000fc0                pumpking__31_ci8_pal_rgba16_aligner
                0x0000000007000fc8                pumpking__31_ci8
                0x00000000070017c8                pumpking__31_ci8_aligner
                0x00000000070017d0                pumpking__33_f3d_v3_lights
                0x00000000070017e8                pumpking__1_f3d_v3_lights
                0x0000000007001800                pumpking__2_f3d_v3_lights
                0x0000000007001818                pumpking__31_f3d_v3_lights
                0x0000000007001830                pumpking_collision
                0x00000000070019c0                lava_splash_seg4_dl_040326E8
                0x00000000070019d8                lava_splash_seg4_dl_040326D0
                0x00000000070019f0                lava_splash_seg4_dl_040326B8
                0x0000000007001a08                lava_splash_seg4_dl_040326A0
                0x0000000007001a20                lava_splash_seg4_dl_04032688
                0x0000000007001a38                lava_splash_seg4_dl_04032670
                0x0000000007001a50                lava_splash_seg4_dl_04032658
                0x0000000007001a68                lava_splash_seg4_dl_04032640
                0x0000000007001a80                lava_splash_seg4_dl_040325C8
                0x0000000007001af0                lava_splash_seg4_vertex_0402A588
                0x0000000007001b30                podoboo_material_revert_render_settings
                0x0000000007001b70                podoboo_Cube_mesh
                0x0000000007001bb0                mat_revert_podoboo_sm64_material
                0x0000000007001bd8                mat_podoboo_sm64_material
                0x0000000007001c98                podoboo_Cube_mesh_tri_0
                0x0000000007001cb0                podoboo_Cube_mesh_vtx_0
                0x0000000007001cf0                podoboo_Cube_mesh_vtx_cull
                0x0000000007001d70                podoboo_podoboo1_ci4_pal_rgba16
                0x0000000007001d80                podoboo_podoboo1_ci4_pal_rgba16_aligner
                0x0000000007001d88                podoboo_podoboo1_ci4
                0x0000000007001e08                podoboo_podoboo1_ci4_aligner
                0x0000000007001e10                podoboo_sm64_material_lights
                0x0000000007001e28                hammer_collision
                0x0000000007001ea8                hammer_material_revert_render_settings
                0x0000000007001ee8                hammer_Cube_010_mesh
                0x0000000007001f40                mat_revert_hammer_sm64_material_121_layer4
                0x0000000007001f80                mat_hammer_sm64_material_121_layer4
                0x0000000007002068                mat_revert_hammer_sm64_material_002
                0x0000000007002088                mat_hammer_sm64_material_002
                0x0000000007002140                hammer_Cube_010_mesh_tri_1
                0x0000000007002170                hammer_Cube_010_mesh_vtx_1
                0x0000000007002270                hammer_Cube_010_mesh_tri_0
                0x00000000070022b0                hammer_Cube_010_mesh_vtx_0
                0x0000000007002400                hammer_Cube_010_mesh_vtx_cull
                0x0000000007002480                hammer_hammertop_ci4_pal_rgba16
                0x0000000007002490                hammer_hammertop_ci4_pal_rgba16_aligner
                0x0000000007002498                hammer_hammertop_ci4
                0x0000000007002898                hammer_hammertop_ci4_aligner
                0x00000000070028a0                hammer_hammermain_ci4_pal_rgba16
                0x00000000070028b0                hammer_hammermain_ci4_pal_rgba16_aligner
                0x00000000070028b8                hammer_hammermain_ci4
                0x00000000070030b8                hammer_hammermain_ci4_aligner
                0x00000000070030c0                hammer_sm64_material_121_layer4_lights
                0x00000000070030d8                hammer_sm64_material_002_lights
                0x00000000070030f0                updown_collision
                0x0000000007003188                updown_material_revert_render_settings
                0x00000000070031c8                updown_Cube_010_mesh
                0x00000000070031f8                mat_revert_updown_sm64_material_121
                0x0000000007003218                mat_updown_sm64_material_121
                0x00000000070032d0                updown_Cube_010_mesh_tri_0
                0x0000000007003310                updown_Cube_010_mesh_vtx_0
                0x0000000007003460                updown_Cube_010_mesh_vtx_cull
                0x00000000070034e0                updown_sssssssssssssssssss_ci4_pal_rgba16
                0x00000000070034f0                updown_sssssssssssssssssss_ci4_pal_rgba16_aligner
                0x00000000070034f8                updown_sssssssssssssssssss_ci4
                0x0000000007003cf8                updown_sssssssssssssssssss_ci4_aligner
                0x0000000007003d00                updown_sm64_material_121_lights
                0x0000000007003d18                highlight_material_revert_render_settings
                0x0000000007003d58                highlight_Circle_001_mesh
                0x0000000007003d98                highlight_Circle_mesh
                0x0000000007003de0                mat_revert_highlight_sm64_material_004
                0x0000000007003df8                mat_highlight_sm64_material_004
                0x0000000007003e78                mat_revert_highlight_sm64_material_002
                0x0000000007003e98                mat_highlight_sm64_material_002
                0x0000000007003f50                mat_revert_highlight_sm64_material_003
                0x0000000007003f70                mat_highlight_sm64_material_003
                0x0000000007004028                highlight_Circle_001_mesh_tri_0
                0x0000000007004068                highlight_Circle_001_mesh_vtx_0
                0x0000000007004148                highlight_Circle_001_mesh_vtx_cull
                0x00000000070041c8                highlight_Circle_mesh_tri_1
                0x0000000007004200                highlight_Circle_mesh_vtx_1
                0x0000000007004380                highlight_Circle_mesh_tri_0
                0x00000000070043c0                highlight_Circle_mesh_vtx_0
                0x00000000070044f0                highlight_Circle_mesh_vtx_cull
                0x0000000007004570                highlight_LightBeam2_ia8
                0x0000000007004d70                highlight_LightBeam2_ia8_aligner
                0x0000000007004d78                highlight__756456GBA_ci8_pal_rgba16
                0x0000000007004db8                highlight__756456GBA_ci8_pal_rgba16_aligner
                0x0000000007004dc0                highlight__756456GBA_ci8
                0x00000000070051c0                highlight__756456GBA_ci8_aligner
                0x00000000070051c8                highlight_M_BPdokan_ci8_pal_rgba16
                0x0000000007005218                highlight_M_BPdokan_ci8_pal_rgba16_aligner
                0x0000000007005220                highlight_M_BPdokan_ci8
                0x0000000007005620                highlight_M_BPdokan_ci8_aligner
                0x0000000007005628                highlight_sm64_material_004_lights
                0x0000000007005640                highlight_sm64_material_002_lights
                0x0000000007005658                highlight_sm64_material_003_lights
                0x0000000007005670                TNT_material_revert_render_settings
                0x00000000070056b0                TNT_Cube_mesh
                0x0000000007005720                mat_revert_TNT_sm64_material_004
                0x0000000007005740                mat_TNT_sm64_material_004
                0x00000000070057f8                mat_revert_TNT_sm64_material_003
                0x0000000007005818                mat_TNT_sm64_material_003
                0x00000000070058d0                mat_revert_TNT_sm64_material_002
                0x00000000070058e8                mat_TNT_sm64_material_002
                0x0000000007005928                TNT_Cube_mesh_tri_2
                0x0000000007005940                TNT_Cube_mesh_vtx_2
                0x0000000007005980                TNT_Cube_mesh_tri_1
                0x00000000070059b0                TNT_Cube_mesh_vtx_1
                0x0000000007005a10                TNT_Cube_mesh_tri_0
                0x0000000007005a70                TNT_Cube_mesh_vtx_0
                0x0000000007005bb0                TNT_Cube_mesh_vtx_cull
                0x0000000007005c30                TNT_TNT_ci4_pal_rgba16
                0x0000000007005c38                TNT_TNT_ci4_pal_rgba16_aligner
                0x0000000007005c40                TNT_TNT_ci4
                0x0000000007005e40                TNT_TNT_ci4_aligner
                0x0000000007005e48                TNT_SUPER_MARIO_64_9CAB9C3A_0_2_rgb_ci8_pal_rgba16
                0x0000000007005f50                TNT_SUPER_MARIO_64_9CAB9C3A_0_2_rgb_ci8_pal_rgba16_aligner
                0x0000000007005f58                TNT_SUPER_MARIO_64_9CAB9C3A_0_2_rgb_ci8
                0x0000000007006358                TNT_SUPER_MARIO_64_9CAB9C3A_0_2_rgb_ci8_aligner
                0x0000000007006360                TNT_sm64_material_004_lights
                0x0000000007006378                TNT_sm64_material_003_lights
                0x0000000007006390                TNT_sm64_material_002_lights
                0x00000000070063a8                piranhavineswithint_anims
                0x0000000007006988                piranhavineswithint_material_revert_render_settings
                0x00000000070069c8                piranhavineswithint_Bone_004_skinned
                0x0000000007006a00                piranhavineswithint_Bone_004_mesh
                0x0000000007006a38                piranhavineswithint_Bone_003_skinned
                0x0000000007006a70                piranhavineswithint_Bone_003_mesh
                0x0000000007006aa8                piranhavineswithint_Bone_002_skinned
                0x0000000007006ae0                piranhavineswithint_Bone_002_mesh
                0x0000000007006b18                piranhavineswithint_Bone_001_skinned
                0x0000000007006b50                piranhavineswithint_Bone_001_mesh
                0x0000000007006b88                piranhavineswithint_Bone_mesh
                0x0000000007006bc0                mat_revert_piranhavineswithint_sm64_material_005
                0x0000000007006be0                mat_piranhavineswithint_sm64_material_005
                0x0000000007006c98                mat_revert_piranhavineswithint_sm64_material_003
                0x0000000007006cb8                mat_piranhavineswithint_sm64_material_003
                0x0000000007006d70                piranhavineswithint_Bone_004_skinned_tri_1
                0x0000000007006d80                piranhavineswithint_Bone_004_skinned_vtx_1
                0x0000000007006dc0                piranhavineswithint_Bone_004_skinned_tri_0
                0x0000000007006dd0                piranhavineswithint_Bone_004_skinned_vtx_0
                0x0000000007006e30                piranhavineswithint_Bone_004_mesh_tri_1
                0x0000000007006e50                piranhavineswithint_Bone_004_mesh_vtx_1
                0x0000000007006e80                piranhavineswithint_Bone_004_mesh_tri_0
                0x0000000007006ea0                piranhavineswithint_Bone_004_mesh_vtx_0
                0x0000000007006ed0                piranhavineswithint_Bone_003_skinned_tri_1
                0x0000000007006ee0                piranhavineswithint_Bone_003_skinned_vtx_1
                0x0000000007006f40                piranhavineswithint_Bone_003_skinned_tri_0
                0x0000000007006f50                piranhavineswithint_Bone_003_skinned_vtx_0
                0x0000000007006f90                piranhavineswithint_Bone_003_mesh_tri_1
                0x0000000007006fb8                piranhavineswithint_Bone_003_mesh_vtx_1
                0x0000000007007018                piranhavineswithint_Bone_003_mesh_tri_0
                0x0000000007007040                piranhavineswithint_Bone_003_mesh_vtx_0
                0x0000000007007080                piranhavineswithint_Bone_002_skinned_tri_1
                0x0000000007007090                piranhavineswithint_Bone_002_skinned_vtx_1
                0x00000000070070f0                piranhavineswithint_Bone_002_skinned_tri_0
                0x0000000007007100                piranhavineswithint_Bone_002_skinned_vtx_0
                0x0000000007007140                piranhavineswithint_Bone_002_mesh_tri_1
                0x0000000007007168                piranhavineswithint_Bone_002_mesh_vtx_1
                0x00000000070071c8                piranhavineswithint_Bone_002_mesh_tri_0
                0x00000000070071f0                piranhavineswithint_Bone_002_mesh_vtx_0
                0x0000000007007230                piranhavineswithint_Bone_001_skinned_tri_1
                0x0000000007007240                piranhavineswithint_Bone_001_skinned_vtx_1
                0x00000000070072a0                piranhavineswithint_Bone_001_skinned_tri_0
                0x00000000070072b0                piranhavineswithint_Bone_001_skinned_vtx_0
                0x00000000070072f0                piranhavineswithint_Bone_001_mesh_tri_1
                0x0000000007007318                piranhavineswithint_Bone_001_mesh_vtx_1
                0x0000000007007378                piranhavineswithint_Bone_001_mesh_tri_0
                0x00000000070073a0                piranhavineswithint_Bone_001_mesh_vtx_0
                0x00000000070073e0                piranhavineswithint_Bone_mesh_tri_1
                0x0000000007007408                piranhavineswithint_Bone_mesh_vtx_1
                0x00000000070074c8                piranhavineswithint_Bone_mesh_tri_0
                0x00000000070074f0                piranhavineswithint_Bone_mesh_vtx_0
                0x0000000007007570                piranhavineswithint_dg_dod_kiba_01_41480_ci8_pal_rgba16
                0x0000000007007648                piranhavineswithint_dg_dod_kiba_01_41480_ci8_pal_rgba16_aligner
                0x0000000007007650                piranhavineswithint_dg_dod_kiba_01_41480_ci8
                0x0000000007007e50                piranhavineswithint_dg_dod_kiba_01_41480_ci8_aligner
                0x0000000007007e58                piranhavineswithint_GreenWall_ci4_pal_rgba16
                0x0000000007007e78                piranhavineswithint_GreenWall_ci4_pal_rgba16_aligner
                0x0000000007007e80                piranhavineswithint_GreenWall_ci4
                0x0000000007008680                piranhavineswithint_GreenWall_ci4_aligner
                0x0000000007008688                piranhavineswithint_sm64_material_005_lights
                0x00000000070086a0                piranhavineswithint_sm64_material_003_lights
                0x00000000070086b8                NavalPiranha_anims
                0x000000000700c454                piranhavines_collision
                0x000000000700c59c                piranhavines_anims
                0x000000000700c718                piranhavines_material_revert_render_settings
                0x000000000700c758                piranhavines_Bone_004_skinned
                0x000000000700c790                piranhavines_Bone_004_mesh
                0x000000000700c7c8                piranhavines_Bone_003_skinned
                0x000000000700c800                piranhavines_Bone_003_mesh
                0x000000000700c838                piranhavines_Bone_002_skinned
                0x000000000700c870                piranhavines_Bone_002_mesh
                0x000000000700c8a8                piranhavines_Bone_001_skinned
                0x000000000700c8e0                piranhavines_Bone_001_mesh
                0x000000000700c918                piranhavines_Bone_mesh
                0x000000000700c950                mat_revert_piranhavines_sm64_material_005
                0x000000000700c970                mat_piranhavines_sm64_material_005
                0x000000000700ca28                mat_revert_piranhavines_sm64_material_003
                0x000000000700ca48                mat_piranhavines_sm64_material_003
                0x000000000700cb00                piranhavines_Bone_004_skinned_tri_1
                0x000000000700cb10                piranhavines_Bone_004_skinned_vtx_1
                0x000000000700cb50                piranhavines_Bone_004_skinned_tri_0
                0x000000000700cb60                piranhavines_Bone_004_skinned_vtx_0
                0x000000000700cbc0                piranhavines_Bone_004_mesh_tri_1
                0x000000000700cbe0                piranhavines_Bone_004_mesh_vtx_1
                0x000000000700cc10                piranhavines_Bone_004_mesh_tri_0
                0x000000000700cc30                piranhavines_Bone_004_mesh_vtx_0
                0x000000000700cc60                piranhavines_Bone_003_skinned_tri_1
                0x000000000700cc70                piranhavines_Bone_003_skinned_vtx_1
                0x000000000700ccd0                piranhavines_Bone_003_skinned_tri_0
                0x000000000700cce0                piranhavines_Bone_003_skinned_vtx_0
                0x000000000700cd20                piranhavines_Bone_003_mesh_tri_1
                0x000000000700cd48                piranhavines_Bone_003_mesh_vtx_1
                0x000000000700cda8                piranhavines_Bone_003_mesh_tri_0
                0x000000000700cdd0                piranhavines_Bone_003_mesh_vtx_0
                0x000000000700ce10                piranhavines_Bone_002_skinned_tri_1
                0x000000000700ce20                piranhavines_Bone_002_skinned_vtx_1
                0x000000000700ce80                piranhavines_Bone_002_skinned_tri_0
                0x000000000700ce90                piranhavines_Bone_002_skinned_vtx_0
                0x000000000700ced0                piranhavines_Bone_002_mesh_tri_1
                0x000000000700cef8                piranhavines_Bone_002_mesh_vtx_1
                0x000000000700cf58                piranhavines_Bone_002_mesh_tri_0
                0x000000000700cf80                piranhavines_Bone_002_mesh_vtx_0
                0x000000000700cfc0                piranhavines_Bone_001_skinned_tri_1
                0x000000000700cfd0                piranhavines_Bone_001_skinned_vtx_1
                0x000000000700d030                piranhavines_Bone_001_skinned_tri_0
                0x000000000700d040                piranhavines_Bone_001_skinned_vtx_0
                0x000000000700d080                piranhavines_Bone_001_mesh_tri_1
                0x000000000700d0a8                piranhavines_Bone_001_mesh_vtx_1
                0x000000000700d108                piranhavines_Bone_001_mesh_tri_0
                0x000000000700d130                piranhavines_Bone_001_mesh_vtx_0
                0x000000000700d170                piranhavines_Bone_mesh_tri_1
                0x000000000700d198                piranhavines_Bone_mesh_vtx_1
                0x000000000700d258                piranhavines_Bone_mesh_tri_0
                0x000000000700d280                piranhavines_Bone_mesh_vtx_0
                0x000000000700d300                piranhavines_dg_dod_kiba_01_41480_ci8_pal_rgba16
                0x000000000700d3d8                piranhavines_dg_dod_kiba_01_41480_ci8_pal_rgba16_aligner
                0x000000000700d3e0                piranhavines_dg_dod_kiba_01_41480_ci8
                0x000000000700dbe0                piranhavines_dg_dod_kiba_01_41480_ci8_aligner
                0x000000000700dbe8                piranhavines_GreenWall_ci4_pal_rgba16
                0x000000000700dc08                piranhavines_GreenWall_ci4_pal_rgba16_aligner
                0x000000000700dc10                piranhavines_GreenWall_ci4
                0x000000000700e410                piranhavines_GreenWall_ci4_aligner
                0x000000000700e418                piranhavines_sm64_material_005_lights
                0x000000000700e430                piranhavines_sm64_material_003_lights
                0x000000000700e448                NavalPiranha_material_revert_render_settings
                0x000000000700e488                NavalPiranha_f_skinned
                0x000000000700e4d8                NavalPiranha_f_mesh
                0x000000000700e570                NavalPiranha_e_mesh
                0x000000000700e5f0                NavalPiranha_d_skinned
                0x000000000700e628                NavalPiranha_d_mesh
                0x000000000700e660                NavalPiranha_c_skinned
                0x000000000700e698                NavalPiranha_c_mesh
                0x000000000700e6d0                NavalPiranha_Bone_mesh
                0x000000000700e708                mat_revert_NavalPiranha_unnamed_mtl_0001_f3d_v2
                0x000000000700e720                mat_NavalPiranha_unnamed_mtl_0001_f3d_v2
                0x000000000700e760                mat_revert_NavalPiranha_sm64_material
                0x000000000700e778                mat_NavalPiranha_sm64_material
                0x000000000700e7b8                mat_revert_NavalPiranha_sm64_material_001
                0x000000000700e7d0                mat_NavalPiranha_sm64_material_001
                0x000000000700e850                mat_revert_NavalPiranha_sm64_material_002
                0x000000000700e868                mat_NavalPiranha_sm64_material_002
                0x000000000700e900                mat_revert_NavalPiranha_sm64_material_004_v2
                0x000000000700e920                mat_NavalPiranha_sm64_material_004_v2
                0x000000000700e9d8                mat_revert_NavalPiranha_sm64_material_005_v2
                0x000000000700e9f8                mat_NavalPiranha_sm64_material_005_v2
                0x000000000700eab0                mat_revert_NavalPiranha_sm64_material_003_v2
                0x000000000700ead0                mat_NavalPiranha_sm64_material_003_v2
                0x000000000700eb88                NavalPiranha_f_skinned_tri_2
                0x000000000700eb98                NavalPiranha_f_skinned_vtx_2
                0x000000000700ebd8                NavalPiranha_f_skinned_tri_1
                0x000000000700ebe8                NavalPiranha_f_skinned_vtx_1
                0x000000000700ec28                NavalPiranha_f_skinned_tri_0
                0x000000000700ec38                NavalPiranha_f_skinned_vtx_0
                0x000000000700ec58                NavalPiranha_f_mesh_tri_5
                0x000000000700ec78                NavalPiranha_f_mesh_vtx_5
                0x000000000700ecd8                NavalPiranha_f_mesh_tri_4
                0x000000000700ecf0                NavalPiranha_f_mesh_vtx_4
                0x000000000700ed20                NavalPiranha_f_mesh_tri_3
                0x000000000700eda8                NavalPiranha_f_mesh_vtx_3
                0x000000000700ef38                NavalPiranha_f_mesh_tri_2
                0x000000000700ef58                NavalPiranha_f_mesh_vtx_2
                0x000000000700ef98                NavalPiranha_f_mesh_tri_1
                0x000000000700efd0                NavalPiranha_f_mesh_vtx_1
                0x000000000700f070                NavalPiranha_f_mesh_tri_0
                0x000000000700f088                NavalPiranha_f_mesh_vtx_0
                0x000000000700f0a8                NavalPiranha_e_mesh_tri_4
                0x000000000700f0d0                NavalPiranha_e_mesh_vtx_4
                0x000000000700f150                NavalPiranha_e_mesh_tri_3
                0x000000000700f200                NavalPiranha_e_mesh_vtx_3
                0x000000000700f3e0                NavalPiranha_e_mesh_tri_2
                0x000000000700f410                NavalPiranha_e_mesh_vtx_2
                0x000000000700f4b0                NavalPiranha_e_mesh_tri_1
                0x000000000700f4d0                NavalPiranha_e_mesh_vtx_1
                0x000000000700f520                NavalPiranha_e_mesh_tri_0
                0x000000000700f5c8                NavalPiranha_e_mesh_vtx_0
                0x000000000700f798                NavalPiranha_d_skinned_tri_1
                0x000000000700f7a8                NavalPiranha_d_skinned_vtx_1
                0x000000000700f808                NavalPiranha_d_skinned_tri_0
                0x000000000700f818                NavalPiranha_d_skinned_vtx_0
                0x000000000700f858                NavalPiranha_d_mesh_tri_1
                0x000000000700f880                NavalPiranha_d_mesh_vtx_1
                0x000000000700f8e0                NavalPiranha_d_mesh_tri_0
                0x000000000700f908                NavalPiranha_d_mesh_vtx_0
                0x000000000700f948                NavalPiranha_c_skinned_tri_1
                0x000000000700f958                NavalPiranha_c_skinned_vtx_1
                0x000000000700f9b8                NavalPiranha_c_skinned_tri_0
                0x000000000700f9c8                NavalPiranha_c_skinned_vtx_0
                0x000000000700fa08                NavalPiranha_c_mesh_tri_1
                0x000000000700fa30                NavalPiranha_c_mesh_vtx_1
                0x000000000700fa90                NavalPiranha_c_mesh_tri_0
                0x000000000700fab8                NavalPiranha_c_mesh_vtx_0
                0x000000000700faf8                NavalPiranha_Bone_mesh_tri_1
                0x000000000700fb20                NavalPiranha_Bone_mesh_vtx_1
                0x000000000700fbe0                NavalPiranha_Bone_mesh_tri_0
                0x000000000700fc08                NavalPiranha_Bone_mesh_vtx_0
                0x000000000700fc88                NavalPiranha_SUPER_MARIO_64_EDBBE3D1_0_2_all_ia8
                0x0000000007010c88                NavalPiranha_SUPER_MARIO_64_EDBBE3D1_0_2_all_ia8_aligner
                0x0000000007010c90                NavalPiranha_Tile0283_RGB_ci8_pal_rgba16
                0x0000000007010cc8                NavalPiranha_Tile0283_RGB_ci8_pal_rgba16_aligner
                0x0000000007010cd0                NavalPiranha_Tile0283_RGB_ci8
                0x00000000070110d0                NavalPiranha_Tile0283_RGB_ci8_aligner
                0x00000000070110d8                NavalPiranha__11111texKinokoRed_ci4_pal_rgba16
                0x00000000070110f8                NavalPiranha__11111texKinokoRed_ci4_pal_rgba16_aligner
                0x0000000007011100                NavalPiranha__11111texKinokoRed_ci4
                0x0000000007011900                NavalPiranha__11111texKinokoRed_ci4_aligner
                0x0000000007011908                NavalPiranha_dg_dod_kiba_01_41480_ci8_pal_rgba16
                0x00000000070119e0                NavalPiranha_dg_dod_kiba_01_41480_ci8_pal_rgba16_aligner
                0x00000000070119e8                NavalPiranha_dg_dod_kiba_01_41480_ci8
                0x00000000070121e8                NavalPiranha_dg_dod_kiba_01_41480_ci8_aligner
                0x00000000070121f0                NavalPiranha_GreenWall_ci4_pal_rgba16
                0x0000000007012210                NavalPiranha_GreenWall_ci4_pal_rgba16_aligner
                0x0000000007012218                NavalPiranha_GreenWall_ci4
                0x0000000007012a18                NavalPiranha_GreenWall_ci4_aligner
                0x0000000007012a20                NavalPiranha_unnamed_mtl_0001_f3d_v2_lights
                0x0000000007012a38                NavalPiranha_sm64_material_lights
                0x0000000007012a50                NavalPiranha_sm64_material_001_lights
                0x0000000007012a68                NavalPiranha_sm64_material_004_v2_lights
                0x0000000007012a80                NavalPiranha_sm64_material_005_v2_lights
                0x0000000007012a98                NavalPiranha_sm64_material_003_v2_lights
                0x0000000007012ab0                nipperkey_material_revert_render_settings
                0x0000000007012af0                nipperkey_Circle_mesh
                0x0000000007012b38                mat_revert_nipperkey_sm64_material_002
                0x0000000007012b58                mat_nipperkey_sm64_material_002
                0x0000000007012c10                mat_revert_nipperkey_sm64_material_003
                0x0000000007012c28                mat_nipperkey_sm64_material_003
                0x0000000007012ca8                nipperkey_Circle_mesh_tri_1
                0x0000000007012cc8                nipperkey_Circle_mesh_vtx_1
                0x0000000007012d48                nipperkey_Circle_mesh_tri_0
                0x0000000007012de8                nipperkey_Circle_mesh_vtx_0
                0x0000000007012f28                nipperkey_Circle_mesh_vtx_cull
                0x0000000007012fa8                nipperkey_leaf1rgba16lowdetail_ci8_pal_rgba16
                0x0000000007013028                nipperkey_leaf1rgba16lowdetail_ci8_pal_rgba16_aligner
                0x0000000007013030                nipperkey_leaf1rgba16lowdetail_ci8
                0x0000000007013830                nipperkey_leaf1rgba16lowdetail_ci8_aligner
                0x0000000007013838                nipperkey_dot_ia8
                0x0000000007013c38                nipperkey_dot_ia8_aligner
                0x0000000007013c40                nipperkey_sm64_material_002_lights
                0x0000000007013c58                nipperkey_sm64_material_003_lights
                0x0000000007013c70                nipperdoor_material_revert_render_settings
                0x0000000007013cb0                nipperdoor_Circle_042_mesh
                0x0000000007013cf0                mat_revert_nipperdoor_sm64_material_022
                0x0000000007013d10                mat_nipperdoor_sm64_material_022
                0x0000000007013dc8                nipperdoor_Circle_042_mesh_tri_0
                0x0000000007013de0                nipperdoor_Circle_042_mesh_vtx_0
                0x0000000007013e20                nipperdoor_Circle_042_mesh_vtx_cull
                0x0000000007013ea0                nipperdoor_GC_0x2C18_32x64_RGBA16_ci8_pal_rgba16
                0x0000000007014060                nipperdoor_GC_0x2C18_32x64_RGBA16_ci8_pal_rgba16_aligner
                0x0000000007014068                nipperdoor_GC_0x2C18_32x64_RGBA16_ci8
                0x0000000007014868                nipperdoor_GC_0x2C18_32x64_RGBA16_ci8_aligner
                0x0000000007014870                nipperdoor_sm64_material_022_lights
                0x0000000007014888                nipperdoor_collision
                0x00000000070148c0                boonard_anims
                0x0000000007014e78                boonard_material_revert_render_settings
                0x0000000007014eb8                boonard_Bone_004_skinned
                0x0000000007014ed8                boonard_Bone_004_mesh
                0x0000000007014ef8                boonard_Bone_003_mesh
                0x0000000007014f18                boonard_Bone_002_skinned
                0x0000000007014f38                boonard_Bone_002_mesh
                0x0000000007014f58                boonard_Bone_001_mesh
                0x0000000007014f78                boonard_Bone_mesh
                0x0000000007014fe0                mat_revert_boonard_sm64_material_003
                0x0000000007015000                mat_boonard_sm64_material_003
                0x00000000070150b8                mat_revert_boonard_sm64_material_005_v2_v2_v2
                0x00000000070150d0                mat_boonard_sm64_material_005_v2_v2_v2
                0x0000000007015150                mat_revert_boonard_boostache
                0x0000000007015170                mat_boonard_boostache
                0x0000000007015230                mat_revert_boonard_boobrows
                0x0000000007015248                mat_boonard_boobrows
                0x00000000070152d0                mat_revert_boonard_booeyes
                0x00000000070152e8                mat_boonard_booeyes
                0x00000000070153a0                mat_revert_boonard_boomouth
                0x00000000070153b8                mat_boonard_boomouth
                0x0000000007015470                boonard_Bone_004_skinned_tri_0
                0x0000000007015480                boonard_Bone_004_skinned_vtx_0
                0x00000000070154b0                boonard_Bone_004_mesh_tri_0
                0x00000000070154d0                boonard_Bone_004_mesh_vtx_0
                0x00000000070154e0                boonard_Bone_003_mesh_tri_0
                0x0000000007015538                boonard_Bone_003_mesh_vtx_0
                0x0000000007015658                boonard_Bone_002_skinned_tri_0
                0x0000000007015668                boonard_Bone_002_skinned_vtx_0
                0x0000000007015698                boonard_Bone_002_mesh_tri_0
                0x00000000070156b8                boonard_Bone_002_mesh_vtx_0
                0x00000000070156c8                boonard_Bone_001_mesh_tri_0
                0x0000000007015748                boonard_Bone_001_mesh_vtx_0
                0x0000000007015938                boonard_Bone_mesh_tri_3
                0x0000000007015958                boonard_Bone_mesh_vtx_3
                0x00000000070159d8                boonard_Bone_mesh_tri_2
                0x00000000070159f0                boonard_Bone_mesh_vtx_2
                0x0000000007015a50                boonard_Bone_mesh_tri_1
                0x0000000007015b40                boonard_Bone_mesh_vtx_1
                0x0000000007015e20                boonard_Bone_mesh_tri_0
                0x0000000007015e40                boonard_Bone_mesh_vtx_0
                0x0000000007015ea0                boonard_Bark08_ci8_pal_rgba16
                0x0000000007015ee0                boonard_Bark08_ci8_pal_rgba16_aligner
                0x0000000007015ee8                boonard_Bark08_ci8
                0x00000000070162e8                boonard_Bark08_ci8_aligner
                0x00000000070162f0                boonard_GZLE01_fb6739da_8_i8
                0x00000000070172f0                boonard_GZLE01_fb6739da_8_i8_aligner
                0x00000000070172f8                boonard_Boonards_ffortmustache2_ci8_pal_rgba16
                0x0000000007017370                boonard_Boonards_ffortmustache2_ci8_pal_rgba16_aligner
                0x0000000007017378                boonard_Boonards_ffortmustache2_ci8
                0x0000000007017b78                boonard_Boonards_ffortmustache2_ci8_aligner
                0x0000000007017b80                boonard_Boonards_ffortmustache1_rgba16
                0x0000000007018b80                boonard_Boonards_ffortmustache1_rgba16_aligner
                0x0000000007018b88                boonard_old_boo_eyes_v2_ci8_pal_rgba16
                0x0000000007018c50                boonard_old_boo_eyes_v2_ci8_pal_rgba16_aligner
                0x0000000007018c58                boonard_old_boo_eyes_v2_ci8
                0x0000000007019458                boonard_old_boo_eyes_v2_ci8_aligner
                0x0000000007019460                boonard__0500AB40_ci8_pal_rgba16
                0x00000000070195e0                boonard__0500AB40_ci8_pal_rgba16_aligner
                0x00000000070195e8                boonard__0500AB40_ci8
                0x00000000070199e8                boonard__0500AB40_ci8_aligner
                0x00000000070199f0                boonard_sm64_material_003_lights
                0x0000000007019a08                boonard_sm64_material_005_v2_v2_v2_lights
                0x0000000007019a20                boonard_boostache_lights
                0x0000000007019a38                boonard_boobrows_lights
                0x0000000007019a50                boonard_booeyes_lights
                0x0000000007019a68                boonard_boomouth_lights
                0x0000000007019a80                bridgepound_anims
                0x0000000007019c44                bridgepound_collision
                0x0000000007019dd8                bridgepound_material_revert_render_settings
                0x0000000007019e18                bridgepound_Bone_007_mesh
                0x0000000007019e38                bridgepound_Bone_005_mesh
                0x0000000007019e58                bridgepound_Bone_008_mesh
                0x0000000007019e78                bridgepound_Bone_006_mesh
                0x0000000007019e98                mat_revert_bridgepound_sm64_material_053
                0x0000000007019eb8                mat_bridgepound_sm64_material_053
                0x0000000007019f70                bridgepound_Bone_007_mesh_tri_0
                0x0000000007019fa8                bridgepound_Bone_007_mesh_vtx_0
                0x000000000701a048                bridgepound_Bone_005_mesh_tri_0
                0x000000000701a080                bridgepound_Bone_005_mesh_vtx_0
                0x000000000701a120                bridgepound_Bone_008_mesh_tri_0
                0x000000000701a158                bridgepound_Bone_008_mesh_vtx_0
                0x000000000701a1f8                bridgepound_Bone_006_mesh_tri_0
                0x000000000701a230                bridgepound_Bone_006_mesh_vtx_0
                0x000000000701a2d0                bridgepound__3628672_ci4_pal_rgba16
                0x000000000701a2f0                bridgepound__3628672_ci4_pal_rgba16_aligner
                0x000000000701a2f8                bridgepound__3628672_ci4
                0x000000000701aaf8                bridgepound__3628672_ci4_aligner
                0x000000000701ab00                bridgepound_sm64_material_053_lights
                0x000000000701ab18                minewall_collision
                0x000000000701ab50                minewall_material_revert_render_settings
                0x000000000701ab90                minewall_Circle_022_mesh
                0x000000000701abd0                mat_revert_minewall_test_001_v2
                0x000000000701abe8                mat_minewall_test_001_v2
                0x000000000701ac58                minewall_Circle_022_mesh_tri_0
                0x000000000701acd8                minewall_Circle_022_mesh_vtx_0
                0x000000000701b158                minewall_Circle_022_mesh_vtx_cull
                0x000000000701b1d8                minewall_Texture0117_RGB_greyscale_i8
                0x000000000701b5d8                minewall_Texture0117_RGB_greyscale_i8_aligner
                0x000000000701b5e0                lilmouse_anims
                0x000000000701f248                lilmouse_material_revert_render_settings
                0x000000000701f288                lilmouse_leg2_r_mesh
                0x000000000701f2a0                lilmouse_leg2_l_mesh
                0x000000000701f2b8                lilmouse_Bone_007_skinned
                0x000000000701f2d8                lilmouse_Bone_007_mesh
                0x000000000701f310                lilmouse_Bone_006_skinned
                0x000000000701f330                lilmouse_Bone_006_mesh
                0x000000000701f350                lilmouse_Bone_option3_mesh
                0x000000000701f370                lilmouse_Bone_option2_mesh
                0x000000000701f390                lilmouse_Bone_option1_mesh
                0x000000000701f3b0                lilmouse_arm3_r_002_mesh
                0x000000000701f3e8                lilmouse_arm3_r_skinned
                0x000000000701f408                lilmouse_arm3_r_mesh
                0x000000000701f440                lilmouse_arm2_r_mesh
                0x000000000701f460                lilmouse_arm3_l_skinned
                0x000000000701f480                lilmouse_arm3_l_mesh
                0x000000000701f4b8                lilmouse_arm2_l_mesh
                0x000000000701f4d8                lilmouse_ear2_r_mesh
                0x000000000701f4f8                lilmouse_ear2_l_mesh
                0x000000000701f518                lilmouse_Bone_003_skinned
                0x000000000701f530                lilmouse_Bone_003_mesh
                0x000000000701f548                lilmouse_Bone_002_skinned
                0x000000000701f578                lilmouse_Bone_002_mesh
                0x000000000701f5d0                lilmouse_Bone_001_mesh
                0x000000000701f5f0                mat_lilmouse_sm64_material_009
                0x000000000701f628                mat_revert_lilmouse_sm64_material_013
                0x000000000701f640                mat_lilmouse_sm64_material_013
                0x000000000701f6b0                mat_revert_lilmouse_sm64_material_012
                0x000000000701f6c8                mat_lilmouse_sm64_material_012
                0x000000000701f738                mat_revert_lilmouse_sm64_material_011
                0x000000000701f758                mat_lilmouse_sm64_material_011
                0x000000000701f810                mat_revert_lilmouse_sm64_material_008
                0x000000000701f828                mat_lilmouse_sm64_material_008
                0x000000000701f8d8                mat_revert_lilmouse_sm64_material_007
                0x000000000701f8f0                mat_lilmouse_sm64_material_007
                0x000000000701f9a0                mat_revert_lilmouse_sm64_material_003
                0x000000000701f9b8                mat_lilmouse_sm64_material_003
                0x000000000701fa68                mat_lilmouse_sm64_material_004
                0x000000000701fae0                mat_revert_lilmouse_sm64_material_005
                0x000000000701faf8                mat_lilmouse_sm64_material_005
                0x000000000701fba8                lilmouse_leg2_r_mesh_tri_0
                0x000000000701fbe0                lilmouse_leg2_r_mesh_vtx_0
                0x000000000701fc50                lilmouse_leg2_l_mesh_tri_0
                0x000000000701fc88                lilmouse_leg2_l_mesh_vtx_0
                0x000000000701fcf8                lilmouse_Bone_007_skinned_tri_0
                0x000000000701fd08                lilmouse_Bone_007_skinned_vtx_0
                0x000000000701fd68                lilmouse_Bone_007_mesh_tri_1
                0x000000000701fd88                lilmouse_Bone_007_mesh_vtx_1
                0x000000000701fe18                lilmouse_Bone_007_mesh_tri_0
                0x000000000701fe40                lilmouse_Bone_007_mesh_vtx_0
                0x000000000701fea0                lilmouse_Bone_006_skinned_tri_0
                0x000000000701feb0                lilmouse_Bone_006_skinned_vtx_0
                0x000000000701ff10                lilmouse_Bone_006_mesh_tri_0
                0x000000000701ff38                lilmouse_Bone_006_mesh_vtx_0
                0x000000000701ff98                lilmouse_Bone_option3_mesh_tri_0
                0x000000000701ffc0                lilmouse_Bone_option3_mesh_vtx_0
                0x00000000070200e0                lilmouse_Bone_option2_mesh_tri_0
                0x0000000007020108                lilmouse_Bone_option2_mesh_vtx_0
                0x0000000007020228                lilmouse_Bone_option1_mesh_tri_0
                0x0000000007020260                lilmouse_Bone_option1_mesh_vtx_0
                0x0000000007020380                lilmouse_arm3_r_002_mesh_tri_1
                0x00000000070203d0                lilmouse_arm3_r_002_mesh_vtx_1
                0x00000000070205c0                lilmouse_arm3_r_002_mesh_tri_0
                0x00000000070205f0                lilmouse_arm3_r_002_mesh_vtx_0
                0x00000000070206e0                lilmouse_arm3_r_skinned_tri_0
                0x00000000070206f0                lilmouse_arm3_r_skinned_vtx_0
                0x0000000007020740                lilmouse_arm3_r_mesh_tri_1
                0x0000000007020778                lilmouse_arm3_r_mesh_vtx_1
                0x0000000007020828                lilmouse_arm3_r_mesh_tri_0
                0x0000000007020850                lilmouse_arm3_r_mesh_vtx_0
                0x00000000070208a0                lilmouse_arm2_r_mesh_tri_0
                0x00000000070208c8                lilmouse_arm2_r_mesh_vtx_0
                0x0000000007020968                lilmouse_arm3_l_skinned_tri_0
                0x0000000007020978                lilmouse_arm3_l_skinned_vtx_0
                0x00000000070209c8                lilmouse_arm3_l_mesh_tri_1
                0x0000000007020a00                lilmouse_arm3_l_mesh_vtx_1
                0x0000000007020ab0                lilmouse_arm3_l_mesh_tri_0
                0x0000000007020ad8                lilmouse_arm3_l_mesh_vtx_0
                0x0000000007020b28                lilmouse_arm2_l_mesh_tri_0
                0x0000000007020b50                lilmouse_arm2_l_mesh_vtx_0
                0x0000000007020bf0                lilmouse_ear2_r_mesh_tri_0
                0x0000000007020c20                lilmouse_ear2_r_mesh_vtx_0
                0x0000000007020cd0                lilmouse_ear2_l_mesh_tri_0
                0x0000000007020d00                lilmouse_ear2_l_mesh_vtx_0
                0x0000000007020db0                lilmouse_Bone_003_skinned_tri_0
                0x0000000007020dc0                lilmouse_Bone_003_skinned_vtx_0
                0x0000000007020e20                lilmouse_Bone_003_mesh_tri_0
                0x0000000007020e40                lilmouse_Bone_003_mesh_vtx_0
                0x0000000007020e50                lilmouse_Bone_002_skinned_tri_1
                0x0000000007020e60                lilmouse_Bone_002_skinned_vtx_1
                0x0000000007020f00                lilmouse_Bone_002_skinned_tri_0
                0x0000000007020f10                lilmouse_Bone_002_skinned_vtx_0
                0x0000000007020f30                lilmouse_Bone_002_mesh_tri_3
                0x0000000007020f48                lilmouse_Bone_002_mesh_vtx_3
                0x0000000007020f98                lilmouse_Bone_002_mesh_tri_2
                0x0000000007020fe8                lilmouse_Bone_002_mesh_vtx_2
                0x0000000007021148                lilmouse_Bone_002_mesh_tri_1
                0x0000000007021188                lilmouse_Bone_002_mesh_vtx_1
                0x0000000007021208                lilmouse_Bone_002_mesh_tri_0
                0x0000000007021228                lilmouse_Bone_002_mesh_vtx_0
                0x0000000007021278                lilmouse_Bone_001_mesh_tri_0
                0x00000000070212d8                lilmouse_Bone_001_mesh_vtx_0
                0x0000000007021428                lilmouse_Texture0117_RGB_greyscale_i8
                0x0000000007021828                lilmouse_Texture0117_RGB_greyscale_i8_aligner
                0x0000000007021830                lilmouse_Crossectionhat_ci4_pal_rgba16
                0x0000000007021850                lilmouse_Crossectionhat_ci4_pal_rgba16_aligner
                0x0000000007021858                lilmouse_Crossectionhat_ci4
                0x0000000007021a58                lilmouse_Crossectionhat_ci4_aligner
                0x0000000007021a60                lilmouse__3759888_ci4_pal_rgba16
                0x0000000007021a80                lilmouse__3759888_ci4_pal_rgba16_aligner
                0x0000000007021a88                lilmouse__3759888_ci4
                0x0000000007022288                lilmouse__3759888_ci4_aligner
                0x0000000007022290                lilmouse_Bark08_ci8_pal_rgba16
                0x00000000070222d0                lilmouse_Bark08_ci8_pal_rgba16_aligner
                0x00000000070222d8                lilmouse_Bark08_ci8
                0x00000000070226d8                lilmouse_Bark08_ci8_aligner
                0x00000000070226e0                lilmouse_mouserear2_ci8_pal_rgba16
                0x0000000007022710                lilmouse_mouserear2_ci8_pal_rgba16_aligner
                0x0000000007022718                lilmouse_mouserear2_ci8
                0x0000000007022918                lilmouse_mouserear2_ci8_aligner
                0x0000000007022920                lilmouse_nose_ia8
                0x0000000007022a20                lilmouse_nose_ia8_aligner
                0x0000000007022a28                lilmouse_mask_ci8_pal_rgba16
                0x0000000007022a88                lilmouse_mask_ci8_pal_rgba16_aligner
                0x0000000007022a90                lilmouse_mask_ci8
                0x0000000007022c90                lilmouse_mask_ci8_aligner
                0x0000000007022c98                lilmouse_sm64_material_009_lights
                0x0000000007022cb0                lilmouse_sm64_material_011_lights
                0x0000000007022cc8                lilmouse_sm64_material_008_lights
                0x0000000007022ce0                lilmouse_sm64_material_007_lights
                0x0000000007022cf8                lilmouse_sm64_material_003_lights
                0x0000000007022d10                lilmouse_sm64_material_004_lights
                0x0000000007022d28                lilmouse_sm64_material_005_lights
                0x0000000007022d40                nipper_anims
                0x0000000007025ff8                nipper_material_revert_render_settings
                0x0000000007026038                nipper_leaf2_r_skinned
                0x0000000007026058                nipper_leaf2_r_mesh
                0x0000000007026078                nipper_leaf1_r_mesh
                0x0000000007026098                nipper_leaf2_l_skinned
                0x00000000070260b8                nipper_leaf2_l_mesh
                0x00000000070260d8                nipper_leaf1_l_mesh
                0x00000000070260f8                nipper_Bone_003_skinned
                0x0000000007026118                nipper_Bone_003_mesh
                0x0000000007026150                nipper_Bone_002_skinned
                0x0000000007026170                nipper_Bone_002_mesh
                0x00000000070261a8                nipper_Bone_001_skinned
                0x00000000070261c8                nipper_Bone_001_mesh
                0x0000000007026200                nipper_Bone_mesh
                0x0000000007026220                mat_revert_nipper_sm64_material_002
                0x0000000007026240                mat_nipper_sm64_material_002
                0x00000000070262f8                mat_revert_nipper_sm64_material_003
                0x0000000007026310                mat_nipper_sm64_material_003
                0x0000000007026390                nipper_leaf2_r_skinned_tri_0
                0x00000000070263a0                nipper_leaf2_r_skinned_vtx_0
                0x00000000070263c0                nipper_leaf2_r_mesh_tri_0
                0x00000000070263d8                nipper_leaf2_r_mesh_vtx_0
                0x00000000070263e8                nipper_leaf1_r_mesh_tri_0
                0x0000000007026400                nipper_leaf1_r_mesh_vtx_0
                0x0000000007026430                nipper_leaf2_l_skinned_tri_0
                0x0000000007026440                nipper_leaf2_l_skinned_vtx_0
                0x0000000007026460                nipper_leaf2_l_mesh_tri_0
                0x0000000007026478                nipper_leaf2_l_mesh_vtx_0
                0x0000000007026488                nipper_leaf1_l_mesh_tri_0
                0x00000000070264a0                nipper_leaf1_l_mesh_vtx_0
                0x00000000070264d0                nipper_Bone_003_skinned_tri_0
                0x00000000070264e0                nipper_Bone_003_skinned_vtx_0
                0x0000000007026540                nipper_Bone_003_mesh_tri_1
                0x0000000007026580                nipper_Bone_003_mesh_vtx_1
                0x00000000070266c0                nipper_Bone_003_mesh_tri_0
                0x00000000070266f8                nipper_Bone_003_mesh_vtx_0
                0x0000000007026788                nipper_Bone_002_skinned_tri_0
                0x0000000007026798                nipper_Bone_002_skinned_vtx_0
                0x00000000070267e8                nipper_Bone_002_mesh_tri_1
                0x0000000007026808                nipper_Bone_002_mesh_vtx_1
                0x0000000007026858                nipper_Bone_002_mesh_tri_0
                0x0000000007026890                nipper_Bone_002_mesh_vtx_0
                0x00000000070268e0                nipper_Bone_001_skinned_tri_0
                0x00000000070268f0                nipper_Bone_001_skinned_vtx_0
                0x0000000007026920                nipper_Bone_001_mesh_tri_1
                0x0000000007026940                nipper_Bone_001_mesh_vtx_1
                0x0000000007026990                nipper_Bone_001_mesh_tri_0
                0x00000000070269b8                nipper_Bone_001_mesh_vtx_0
                0x00000000070269e8                nipper_Bone_mesh_tri_0
                0x0000000007026a20                nipper_Bone_mesh_vtx_0
                0x0000000007026ad0                nipper_leaf1rgba16lowdetail_ci8_pal_rgba16
                0x0000000007026b50                nipper_leaf1rgba16lowdetail_ci8_pal_rgba16_aligner
                0x0000000007026b58                nipper_leaf1rgba16lowdetail_ci8
                0x0000000007027358                nipper_leaf1rgba16lowdetail_ci8_aligner
                0x0000000007027360                nipper_dot_ia8
                0x0000000007027760                nipper_dot_ia8_aligner
                0x0000000007027768                nipper_sm64_material_002_lights
                0x0000000007027780                nipper_sm64_material_003_lights
                0x0000000007027798                yoshicart_anims
                0x0000000007027838                yoshicart_collision
                0x0000000007027a38                silverstar_material_revert_render_settings
                0x0000000007027a78                silverstar_Cube_001_mesh
                0x0000000007027aa8                silverstar_Cube_mesh
                0x0000000007027ad8                mat_revert_silverstar_sm64_material_002
                0x0000000007027af0                mat_silverstar_sm64_material_002
                0x0000000007027b60                mat_revert_silverstar_sm64_material
                0x0000000007027b78                mat_silverstar_sm64_material
                0x0000000007027bf8                silverstar_Cube_001_mesh_tri_0
                0x0000000007027c10                silverstar_Cube_001_mesh_vtx_0
                0x0000000007027c50                silverstar_Cube_001_mesh_vtx_cull
                0x0000000007027cd0                silverstar_Cube_mesh_tri_0
                0x0000000007027d30                silverstar_Cube_mesh_vtx_0
                0x0000000007027df0                silverstar_Cube_mesh_vtx_cull
                0x0000000007027e70                silverstar__222_png_ia16
                0x0000000007028e70                silverstar__222_png_ia16_aligner
                0x0000000007028e78                silverstar__0302A6F0_i8
                0x0000000007029278                silverstar__0302A6F0_i8_aligner
                0x0000000007029280                silverstar_sm64_material_lights
                0x0000000007029298                yoshicart_material_revert_render_settings
                0x00000000070292d8                yoshicart_Bone_003_mesh_mat_override_sm64_material_001_0
                0x0000000007029328                yoshicart_Bone_003_mesh
                0x0000000007029378                yoshicart_Bone_001_mesh
                0x0000000007029398                yoshicart_Bone_mesh
                0x00000000070293f8                mat_revert_yoshicart_sm64_material_001
                0x0000000007029410                mat_yoshicart_sm64_material_001
                0x00000000070294c0                mat_revert_yoshicart_sm64_material_003
                0x00000000070294d8                mat_yoshicart_sm64_material_003
                0x0000000007029588                mat_revert_yoshicart_yoshi_eye_f3d
                0x00000000070295a0                mat_yoshicart_yoshi_eye_f3d
                0x0000000007029650                mat_revert_yoshicart_sm64_material_006
                0x0000000007029668                mat_yoshicart_sm64_material_006
                0x0000000007029718                mat_revert_yoshicart_sm64_material
                0x0000000007029738                mat_yoshicart_sm64_material
                0x00000000070297f0                mat_yoshicart_sm64_material_002
                0x0000000007029868                mat_revert_yoshicart_sm64_material_004
                0x0000000007029880                mat_yoshicart_sm64_material_004
                0x0000000007029930                mat_revert_yoshicart_sm64_material_005
                0x0000000007029948                mat_yoshicart_sm64_material_005
                0x00000000070299f8                yoshicart_Bone_003_mesh_tri_2
                0x0000000007029a28                yoshicart_Bone_003_mesh_vtx_2
                0x0000000007029aa8                yoshicart_Bone_003_mesh_tri_1
                0x0000000007029ac8                yoshicart_Bone_003_mesh_vtx_1
                0x0000000007029b28                yoshicart_Bone_003_mesh_tri_0
                0x0000000007029b90                yoshicart_Bone_003_mesh_vtx_0
                0x0000000007029d50                yoshicart_Bone_001_mesh_tri_0
                0x0000000007029d68                yoshicart_Bone_001_mesh_vtx_0
                0x0000000007029da8                yoshicart_Bone_mesh_tri_3
                0x0000000007029dd0                yoshicart_Bone_mesh_vtx_3
                0x0000000007029e70                yoshicart_Bone_mesh_tri_2
                0x0000000007029e90                yoshicart_Bone_mesh_vtx_2
                0x0000000007029f50                yoshicart_Bone_mesh_tri_1
                0x0000000007029f70                yoshicart_Bone_mesh_vtx_1
                0x0000000007029ff0                yoshicart_Bone_mesh_tri_0
                0x000000000702a040                yoshicart_Bone_mesh_vtx_0
                0x000000000702a220                yoshicart_yoshi_eye01ablink_ci8_pal_rgba16
                0x000000000702a260                yoshicart_yoshi_eye01ablink_ci8_pal_rgba16_aligner
                0x000000000702a268                yoshicart_yoshi_eye01ablink_ci8
                0x000000000702a668                yoshicart_yoshi_eye01ablink_ci8_aligner
                0x000000000702a670                yoshicart_mouth_ci8_pal_rgba16
                0x000000000702a6b0                yoshicart_mouth_ci8_pal_rgba16_aligner
                0x000000000702a6b8                yoshicart_mouth_ci8
                0x000000000702a7b8                yoshicart_mouth_ci8_aligner
                0x000000000702a7c0                yoshicart_yoshi_eye01a_ci8_pal_rgba16
                0x000000000702a8a8                yoshicart_yoshi_eye01a_ci8_pal_rgba16_aligner
                0x000000000702a8b0                yoshicart_yoshi_eye01a_ci8
                0x000000000702acb0                yoshicart_yoshi_eye01a_ci8_aligner
                0x000000000702acb8                yoshicart_nostril_ci4_pal_rgba16
                0x000000000702acd8                yoshicart_nostril_ci4_pal_rgba16_aligner
                0x000000000702ace0                yoshicart_nostril_ci4
                0x000000000702ad60                yoshicart_nostril_ci4_aligner
                0x000000000702ad68                yoshicart_GPAE01_ec268d42_5_ci8_pal_rgba16
                0x000000000702ae80                yoshicart_GPAE01_ec268d42_5_ci8_pal_rgba16_aligner
                0x000000000702ae88                yoshicart_GPAE01_ec268d42_5_ci8
                0x000000000702b688                yoshicart_GPAE01_ec268d42_5_ci8_aligner
                0x000000000702b690                yoshicart_rhop_boutperiscope_ia8
                0x000000000702c690                yoshicart_rhop_boutperiscope_ia8_aligner
                0x000000000702c698                yoshicart_floor_ci8_pal_rgba16
                0x000000000702c6f8                yoshicart_floor_ci8_pal_rgba16_aligner
                0x000000000702c700                yoshicart_floor_ci8
                0x000000000702c900                yoshicart_floor_ci8_aligner
                0x000000000702c908                yoshicart_sides_ci4_pal_rgba16
                0x000000000702c918                yoshicart_sides_ci4_pal_rgba16_aligner
                0x000000000702c920                yoshicart_sides_ci4
                0x000000000702c9a0                yoshicart_sides_ci4_aligner
                0x000000000702c9a8                yoshicart_sm64_material_001_lights
                0x000000000702c9c0                yoshicart_sm64_material_003_lights
                0x000000000702c9d8                yoshicart_yoshi_eye_f3d_lights
                0x000000000702c9f0                yoshicart_sm64_material_006_lights
                0x000000000702ca08                yoshicart_sm64_material_lights
                0x000000000702ca20                yoshicart_sm64_material_002_lights
                0x000000000702ca38                yoshicart_sm64_material_004_lights
                0x000000000702ca50                yoshicart_sm64_material_005_lights
                0x000000000702ca68                lava_splash_seg4_texture_040315C8
                0x000000000702da68                lava_splash_seg4_texture_040305C8
                0x000000000702ea68                lava_splash_seg4_texture_0402F5C8
                0x000000000702fa68                lava_splash_seg4_texture_0402E5C8
                0x0000000007030a68                lava_splash_seg4_texture_0402D5C8
                0x0000000007031a68                lava_splash_seg4_texture_0402C5C8
                0x0000000007032a68                lava_splash_seg4_texture_0402B5C8
                0x0000000007033a68                lava_splash_seg4_texture_0402A5C8
                0x0000000007034a68                button2
                0x0000000007035a68                jrb_dl_material_revert_render_settings
                0x0000000007035aa8                jrb_dl_Plane_009_mesh
                0x0000000007035ae8                jrb_dl_Plane_005_mesh
                0x0000000007035b40                jrb_dl_Plane_004_mesh
                0x0000000007035b80                jrb_dl_Plane_003_mesh
                0x0000000007035bb8                jrb_dl_Plane_002_mesh
                0x0000000007035c38                jrb_dl_Cube_003_mesh
                0x0000000007035c78                jrb_dl_Cube_002_mesh
                0x0000000007035ce8                jrb_dl_Circle_052_mesh
                0x0000000007035d08                jrb_dl_Circle_051_mesh_layer_1
                0x0000000007035d28                jrb_dl_Circle_049_mesh
                0x0000000007035d48                jrb_dl_Circle_048_mesh
                0x0000000007035de0                jrb_dl_spinningdiscs_mesh
                0x0000000007035df8                jrb_dl_Plane_001_mesh
                0x0000000007035e50                jrb_dl_nippercrowd_mesh
                0x0000000007035e70                jrb_dl_Circle_045_mesh
                0x0000000007035e90                jrb_dl_Circle_042_mesh
                0x0000000007035eb0                jrb_dl_Circle_022_mesh
                0x0000000007035ee8                jrb_dl_Circle_mesh
                0x0000000007035f78                jrb_dl_Circle_040_mesh
                0x0000000007035f98                jrb_dl_Circle_036_mesh
                0x0000000007036000                jrb_dl_Circle_034_mesh
                0x0000000007036200                jrb_dl_Circle_032_mesh
                0x0000000007036220                jrb_dl_Circle_028_mesh
                0x0000000007036360                jrb_dl_n0b0_mesh
                0x00000000070363a0                jrb_dl_Circle_025_mesh
                0x00000000070363d8                jrb_dl_Circle_024_mesh
                0x00000000070364e0                jrb_dl_Circle_020_mesh
                0x0000000007036500                jrb_dl_gazhole_mesh
                0x00000000070365c8                jrb_dl_Circle_002_mesh
                0x0000000007036630                jrb_dl_cavewalls_005_mesh
                0x0000000007036668                jrb_dl_cavewalls_004_mesh_layer_1
                0x0000000007036688                jrb_dl_cavewalls_001_mesh
                0x00000000070366a8                jrb_dl_cavewalls_mesh
                0x00000000070366f8                jrb_dl_mirror_mesh
                0x0000000007036718                jrb_dl_cullthismaingeometry_mesh
                0x0000000007036810                jrb_dl_cullthislight_mesh
                0x0000000007036850                jrb_dl_Cullthishouse_mesh
                0x00000000070368b8                jrb_dl_cullthisfence_mesh
                0x0000000007036950                jrb_dl_cullthisbox_mesh
                0x0000000007036970                jrb_dl_Cube_004_mesh
                0x00000000070369c8                jrb_dl_Cube_001_mesh
                0x00000000070369e8                jrb_dl_Circle_060_mesh_layer_1
                0x0000000007036a08                jrb_dl_Circle_056_mesh
                0x0000000007036a28                jrb_dl_Circle_055_mesh_layer_4
                0x0000000007036a48                jrb_dl_Circle_055_mesh
                0x0000000007036a68                jrb_dl_Circle_054_mesh
                0x0000000007036b08                jrb_dl_Circle_043_mesh
                0x0000000007036b28                jrb_dl_Circle_026_mesh_layer_1
                0x0000000007036b68                jrb_dl_Circle_026_mesh
                0x0000000007036c08                jrb_dl_Circle_018_mesh
                0x0000000007036c28                jrb_dl_Circle_017_mesh
                0x0000000007036c68                jrb_dl_Circle_009_mesh_layer_4
                0x0000000007036c88                jrb_dl_Circle_009_mesh
                0x0000000007036ca8                jrb_dl_Circle_008_mesh
                0x0000000007036d18                jrb_dl_Circle_005_mesh
                0x0000000007036d38                jrb_dl_Circle_004_mesh
                0x0000000007036e90                jrb_dl_Circle_003_mesh
                0x0000000007036ec8                jrb_dl_boxes_mesh
                0x0000000007036f00                mat_revert_jrb_dl_sm64_material_003
                0x0000000007036f28                mat_jrb_dl_sm64_material_003
                0x0000000007036fe8                mat_revert_jrb_dl_sm64_material_111_v3
                0x0000000007037008                mat_jrb_dl_sm64_material_111_v3
                0x00000000070370c0                mat_revert_jrb_dl_sm64_material_112_v3
                0x00000000070370e0                mat_jrb_dl_sm64_material_112_v3
                0x0000000007037198                mat_revert_jrb_dl_sm64_material_122_v3
                0x00000000070371b8                mat_jrb_dl_sm64_material_122_v3
                0x0000000007037270                mat_revert_jrb_dl_sm64_material_116_v3
                0x0000000007037298                mat_jrb_dl_sm64_material_116_v3
                0x0000000007037358                mat_revert_jrb_dl_sm64_material_117_v3
                0x0000000007037380                mat_jrb_dl_sm64_material_117_v3
                0x0000000007037440                mat_revert_jrb_dl_sm64_material_113_v3
                0x0000000007037460                mat_jrb_dl_sm64_material_113_v3
                0x0000000007037518                mat_revert_jrb_dl_sm64_material_114_v3
                0x0000000007037538                mat_jrb_dl_sm64_material_114_v3
                0x00000000070375f0                mat_revert_jrb_dl_sm64_material_119_v3
                0x0000000007037610                mat_jrb_dl_sm64_material_119_v3
                0x00000000070376c8                mat_revert_jrb_dl_sm64_material_118_v3
                0x00000000070376e8                mat_jrb_dl_sm64_material_118_v3
                0x00000000070377a0                mat_revert_jrb_dl_sm64_material_120_v3
                0x00000000070377c0                mat_jrb_dl_sm64_material_120_v3
                0x0000000007037878                mat_revert_jrb_dl_sm64_material_106_v3
                0x0000000007037898                mat_jrb_dl_sm64_material_106_v3
                0x0000000007037938                mat_revert_jrb_dl_f3d_material_004
                0x0000000007037950                mat_jrb_dl_f3d_material_004
                0x0000000007037990                mat_revert_jrb_dl_sm64_material_105_v3_layer5
                0x00000000070379c0                mat_jrb_dl_sm64_material_105_v3_layer5
                0x0000000007037aa8                mat_revert_jrb_dl_sm64_material_108_v3_layer1
                0x0000000007037ad8                mat_jrb_dl_sm64_material_108_v3_layer1
                0x0000000007037b70                mat_revert_jrb_dl_sm64_material_005_v3_layer1_area7
                0x0000000007037ba8                mat_jrb_dl_sm64_material_005_v3_layer1_area7
                0x0000000007037c88                mat_revert_jrb_dl_sm64_material_109_v3_layer1
                0x0000000007037cb8                mat_jrb_dl_sm64_material_109_v3_layer1
                0x0000000007037d60                mat_revert_jrb_dl_sm64_material_110_v3_layer1
                0x0000000007037d98                mat_jrb_dl_sm64_material_110_v3_layer1
                0x0000000007037e78                mat_revert_jrb_dl_sm64_material_107_v3_layer1
                0x0000000007037ea8                mat_jrb_dl_sm64_material_107_v3_layer1
                0x0000000007037f88                mat_revert_jrb_dl_sm64_material_104_v3
                0x0000000007037fa8                mat_jrb_dl_sm64_material_104_v3
                0x0000000007038060                mat_revert_jrb_dl_sm64_material_103_v3
                0x0000000007038078                mat_jrb_dl_sm64_material_103_v3
                0x00000000070380f8                mat_revert_jrb_dl_sm64_material_097_v3
                0x0000000007038118                mat_jrb_dl_sm64_material_097_v3
                0x00000000070381d0                mat_revert_jrb_dl_sm64_material_094_v3
                0x00000000070381f0                mat_jrb_dl_sm64_material_094_v3
                0x00000000070382a8                mat_revert_jrb_dl_sm64_material_095_v3
                0x00000000070382c8                mat_jrb_dl_sm64_material_095_v3
                0x0000000007038380                mat_jrb_dl_sm64_material_092_v3
                0x00000000070383f8                mat_revert_jrb_dl_sm64_material_093_v3
                0x0000000007038418                mat_jrb_dl_sm64_material_093_v3
                0x00000000070384d0                mat_revert_jrb_dl_sm64_material_089_v3
                0x00000000070384f0                mat_jrb_dl_sm64_material_089_v3
                0x00000000070385a8                mat_revert_jrb_dl_sm64_material_090_v3
                0x00000000070385c8                mat_jrb_dl_sm64_material_090_v3
                0x0000000007038680                mat_revert_jrb_dl_sm64_material_088_v3
                0x0000000007038698                mat_jrb_dl_sm64_material_088_v3
                0x0000000007038718                mat_revert_jrb_dl_sm64_material_069_v3
                0x0000000007038738                mat_jrb_dl_sm64_material_069_v3
                0x00000000070387f0                mat_revert_jrb_dl_sm64_material_070_v3
                0x0000000007038810                mat_jrb_dl_sm64_material_070_v3
                0x00000000070388c8                mat_revert_jrb_dl_sm64_material_082_v3
                0x00000000070388e0                mat_jrb_dl_sm64_material_082_v3
                0x0000000007038960                mat_revert_jrb_dl_sm64_material_065_v3
                0x0000000007038980                mat_jrb_dl_sm64_material_065_v3
                0x0000000007038a38                mat_revert_jrb_dl_sm64_material_074_v3
                0x0000000007038a58                mat_jrb_dl_sm64_material_074_v3
                0x0000000007038b10                mat_revert_jrb_dl_sm64_material_075_v3
                0x0000000007038b30                mat_jrb_dl_sm64_material_075_v3
                0x0000000007038be8                mat_revert_jrb_dl_sm64_material_078_v3
                0x0000000007038c08                mat_jrb_dl_sm64_material_078_v3
                0x0000000007038cc0                mat_revert_jrb_dl_sm64_material_077_v3
                0x0000000007038ce0                mat_jrb_dl_sm64_material_077_v3
                0x0000000007038d98                mat_revert_jrb_dl_sm64_material_076_v3
                0x0000000007038db8                mat_jrb_dl_sm64_material_076_v3
                0x0000000007038e70                mat_revert_jrb_dl_sm64_material_068_v3
                0x0000000007038e88                mat_jrb_dl_sm64_material_068_v3
                0x0000000007038f08                mat_revert_jrb_dl_sm64_material_066_v3
                0x0000000007038f28                mat_jrb_dl_sm64_material_066_v3
                0x0000000007038fe0                mat_revert_jrb_dl_sm64_material_067_v3
                0x0000000007039000                mat_jrb_dl_sm64_material_067_v3
                0x00000000070390b8                mat_revert_jrb_dl_sm64_material_083_v3
                0x00000000070390d0                mat_jrb_dl_sm64_material_083_v3
                0x0000000007039140                mat_revert_jrb_dl_Material_f3d_v3
                0x0000000007039160                mat_jrb_dl_Material_f3d_v3
                0x0000000007039218                mat_revert_jrb_dl_Material_002_f3d_v3
                0x0000000007039238                mat_jrb_dl_Material_002_f3d_v3
                0x00000000070392f0                mat_revert_jrb_dl_Material_001_f3d_v3
                0x0000000007039310                mat_jrb_dl_Material_001_f3d_v3
                0x00000000070393c8                mat_revert_jrb_dl_sm64_material_072_v3
                0x00000000070393e8                mat_jrb_dl_sm64_material_072_v3
                0x00000000070394a0                mat_revert_jrb_dl_Tex_0008_0_f3d_v3
                0x00000000070394c0                mat_jrb_dl_Tex_0008_0_f3d_v3
                0x0000000007039578                mat_revert_jrb_dl_sm64_material_071_v3
                0x0000000007039590                mat_jrb_dl_sm64_material_071_v3
                0x0000000007039600                mat_revert_jrb_dl_actualCake_SG_f3d_v3
                0x0000000007039620                mat_jrb_dl_actualCake_SG_f3d_v3
                0x00000000070396d8                mat_revert_jrb_dl_cherryXstrawberry_SG_f3d_v3
                0x00000000070396f8                mat_jrb_dl_cherryXstrawberry_SG_f3d_v3
                0x00000000070397b0                mat_revert_jrb_dl_sm64_material_064_v3
                0x00000000070397d0                mat_jrb_dl_sm64_material_064_v3
                0x0000000007039888                mat_revert_jrb_dl_sm64_material_063_v3
                0x00000000070398a8                mat_jrb_dl_sm64_material_063_v3
                0x0000000007039960                mat_revert_jrb_dl_sm64_material_081_v3
                0x0000000007039980                mat_jrb_dl_sm64_material_081_v3
                0x0000000007039a38                mat_revert_jrb_dl_sm64_material_080_v3
                0x0000000007039a58                mat_jrb_dl_sm64_material_080_v3
                0x0000000007039b10                mat_revert_jrb_dl_sm64_material_073_v3
                0x0000000007039b28                mat_jrb_dl_sm64_material_073_v3
                0x0000000007039b90                mat_revert_jrb_dl_sm64_material_085_v3
                0x0000000007039bb0                mat_jrb_dl_sm64_material_085_v3
                0x0000000007039c68                mat_revert_jrb_dl_sm64_material_084_v3
                0x0000000007039c88                mat_jrb_dl_sm64_material_084_v3
                0x0000000007039d40                mat_revert_jrb_dl_sm64_material_079_v3
                0x0000000007039d60                mat_jrb_dl_sm64_material_079_v3
                0x0000000007039e18                mat_revert_jrb_dl_sm64_material_061_v3
                0x0000000007039e38                mat_jrb_dl_sm64_material_061_v3
                0x0000000007039ef0                mat_revert_jrb_dl_sm64_material_062_v3
                0x0000000007039f10                mat_jrb_dl_sm64_material_062_v3
                0x0000000007039fc8                mat_revert_jrb_dl_sm64_material_060_v3
                0x0000000007039fe8                mat_jrb_dl_sm64_material_060_v3
                0x000000000703a0a0                mat_revert_jrb_dl_sm64_material_056_v3
                0x000000000703a0c0                mat_jrb_dl_sm64_material_056_v3
                0x000000000703a178                mat_jrb_dl_death_v3
                0x000000000703a1b0                mat_revert_jrb_dl_sm64_material_101_v3
                0x000000000703a1c8                mat_jrb_dl_sm64_material_101_v3
                0x000000000703a248                mat_revert_jrb_dl_sm64_material_099_v3
                0x000000000703a260                mat_jrb_dl_sm64_material_099_v3
                0x000000000703a2e0                mat_revert_jrb_dl_sm64_material_100_v3
                0x000000000703a2f8                mat_jrb_dl_sm64_material_100_v3
                0x000000000703a378                mat_revert_jrb_dl_sm64_material_102_v3
                0x000000000703a390                mat_jrb_dl_sm64_material_102_v3
                0x000000000703a410                mat_revert_jrb_dl_sm64_material_058_v3
                0x000000000703a430                mat_jrb_dl_sm64_material_058_v3
                0x000000000703a4e8                mat_revert_jrb_dl_sm64_material_054_v3
                0x000000000703a500                mat_jrb_dl_sm64_material_054_v3
                0x000000000703a580                mat_revert_jrb_dl_sm64_material_057_v3
                0x000000000703a5a0                mat_jrb_dl_sm64_material_057_v3
                0x000000000703a658                mat_revert_jrb_dl_sm64_material_055_v3
                0x000000000703a670                mat_jrb_dl_sm64_material_055_v3
                0x000000000703a6f0                mat_revert_jrb_dl_sm64_material_059_v3
                0x000000000703a708                mat_jrb_dl_sm64_material_059_v3
                0x000000000703a778                mat_revert_jrb_dl_sm64_material_036_v3
                0x000000000703a790                mat_jrb_dl_sm64_material_036_v3
                0x000000000703a800                mat_revert_jrb_dl_sm64_material_042_v3
                0x000000000703a818                mat_jrb_dl_sm64_material_042_v3
                0x000000000703a888                mat_revert_jrb_dl_sm64_material_028_v3
                0x000000000703a8a0                mat_jrb_dl_sm64_material_028_v3
                0x000000000703a910                mat_revert_jrb_dl_sm64_material_v3_001_v3
                0x000000000703a928                mat_jrb_dl_sm64_material_v3_001_v3
                0x000000000703a998                mat_revert_jrb_dl_sm64_material_024_v3
                0x000000000703a9b0                mat_jrb_dl_sm64_material_024_v3
                0x000000000703aa20                mat_revert_jrb_dl_sm64_material_037_v3
                0x000000000703aa38                mat_jrb_dl_sm64_material_037_v3
                0x000000000703aaa8                mat_revert_jrb_dl_sm64_material_038_v3
                0x000000000703aac0                mat_jrb_dl_sm64_material_038_v3
                0x000000000703ab30                mat_revert_jrb_dl_sm64_material_040_v3_layer1_area3
                0x000000000703ab60                mat_jrb_dl_sm64_material_040_v3_layer1_area3
                0x000000000703ac08                mat_revert_jrb_dl_sm64_material_036_v3_001
                0x000000000703ac20                mat_jrb_dl_sm64_material_036_v3_001
                0x000000000703ac90                mat_revert_jrb_dl_sm64_material_037_v3_001
                0x000000000703aca8                mat_jrb_dl_sm64_material_037_v3_001
                0x000000000703ad18                mat_revert_jrb_dl_sm64_material_038_v3_001
                0x000000000703ad30                mat_jrb_dl_sm64_material_038_v3_001
                0x000000000703ada0                mat_revert_jrb_dl_sm64_material_027_v3
                0x000000000703adc0                mat_jrb_dl_sm64_material_027_v3
                0x000000000703ae78                mat_revert_jrb_dl_sm64_material_026_v3
                0x000000000703ae98                mat_jrb_dl_sm64_material_026_v3
                0x000000000703af50                mat_revert_jrb_dl_f3d_material_003
                0x000000000703af68                mat_jrb_dl_f3d_material_003
                0x000000000703afa8                mat_revert_jrb_dl_sm64_material_025_v3
                0x000000000703afc8                mat_jrb_dl_sm64_material_025_v3
                0x000000000703b080                mat_revert_jrb_dl_buttonanimation
                0x000000000703b098                mat_jrb_dl_buttonanimation
                0x000000000703b118                mat_revert_jrb_dl_sm64_material_004_v3
                0x000000000703b138                mat_jrb_dl_sm64_material_004_v3
                0x000000000703b1b0                mat_revert_jrb_dl_sm64_material_028_v3_001
                0x000000000703b1c8                mat_jrb_dl_sm64_material_028_v3_001
                0x000000000703b238                mat_revert_jrb_dl_sm64_material_001
                0x000000000703b250                mat_jrb_dl_sm64_material_001
                0x000000000703b2c0                mat_revert_jrb_dl_sm64_material_048_v3
                0x000000000703b2e0                mat_jrb_dl_sm64_material_048_v3
                0x000000000703b398                mat_revert_jrb_dl_sm64_material_044_v3
                0x000000000703b3b8                mat_jrb_dl_sm64_material_044_v3
                0x000000000703b470                mat_revert_jrb_dl_sm64_material_005_v3_layer1_area1
                0x000000000703b4a8                mat_jrb_dl_sm64_material_005_v3_layer1_area1
                0x000000000703b588                mat_revert_jrb_dl_sm64_material_045_v3
                0x000000000703b5a8                mat_jrb_dl_sm64_material_045_v3
                0x000000000703b660                mat_revert_jrb_dl_sm64_material_052_v3
                0x000000000703b680                mat_jrb_dl_sm64_material_052_v3
                0x000000000703b738                mat_revert_jrb_dl_sm64_material_050_v3
                0x000000000703b750                mat_jrb_dl_sm64_material_050_v3
                0x000000000703b7d0                mat_revert_jrb_dl_sm64_material_043_v3
                0x000000000703b7f0                mat_jrb_dl_sm64_material_043_v3
                0x000000000703b8a8                mat_revert_jrb_dl_sm64_material_049_v3
                0x000000000703b8c0                mat_jrb_dl_sm64_material_049_v3
                0x000000000703b940                mat_revert_jrb_dl_sm64_material_047_v3
                0x000000000703b960                mat_jrb_dl_sm64_material_047_v3
                0x000000000703ba18                mat_revert_jrb_dl_sm64_material_051_v3
                0x000000000703ba38                mat_jrb_dl_sm64_material_051_v3
                0x000000000703baf0                mat_revert_jrb_dl_sm64_material_087_v3
                0x000000000703bb08                mat_jrb_dl_sm64_material_087_v3
                0x000000000703bb78                mat_revert_jrb_dl_f3d_material_005
                0x000000000703bb90                mat_jrb_dl_f3d_material_005
                0x000000000703bbb8                mat_revert_jrb_dl_sm64_material_091_v3
                0x000000000703bbd8                mat_jrb_dl_sm64_material_091_v3
                0x000000000703bc90                mat_revert_jrb_dl_f3d_material_002
                0x000000000703bca8                mat_jrb_dl_f3d_material_002
                0x000000000703bce8                mat_revert_jrb_dl_sm64_material_003_v3
                0x000000000703bd08                mat_jrb_dl_sm64_material_003_v3
                0x000000000703bdc0                mat_revert_jrb_dl_sm64_material_039_v3
                0x000000000703bde0                mat_jrb_dl_sm64_material_039_v3
                0x000000000703be98                mat_revert_jrb_dl_sm64_material_016_v3
                0x000000000703beb8                mat_jrb_dl_sm64_material_016_v3
                0x000000000703bf70                mat_revert_jrb_dl_f3d_material
                0x000000000703bf90                mat_jrb_dl_f3d_material
                0x000000000703c048                mat_revert_jrb_dl_sm64_material_020_v3
                0x000000000703c068                mat_jrb_dl_sm64_material_020_v3
                0x000000000703c120                mat_revert_jrb_dl_sm64_material_018_v3
                0x000000000703c140                mat_jrb_dl_sm64_material_018_v3
                0x000000000703c1f8                mat_revert_jrb_dl_sm64_material_019_v3
                0x000000000703c218                mat_jrb_dl_sm64_material_019_v3
                0x000000000703c2d0                mat_revert_jrb_dl_sm64_material_017_v3
                0x000000000703c2f0                mat_jrb_dl_sm64_material_017_v3
                0x000000000703c3a8                mat_revert_jrb_dl_sm64_material
                0x000000000703c3c0                mat_jrb_dl_sm64_material
                0x000000000703c3e8                mat_revert_jrb_dl_test_v3
                0x000000000703c400                mat_jrb_dl_test_v3
                0x000000000703c470                mat_revert_jrb_dl_sm64_material_008_v3
                0x000000000703c488                mat_jrb_dl_sm64_material_008_v3
                0x000000000703c4f8                mat_revert_jrb_dl_test_001_v3
                0x000000000703c510                mat_jrb_dl_test_001_v3
                0x000000000703c580                mat_revert_jrb_dl_sm64_material_024_v3_001
                0x000000000703c598                mat_jrb_dl_sm64_material_024_v3_001
                0x000000000703c608                mat_revert_jrb_dl_sm64_material_023_v3
                0x000000000703c620                mat_jrb_dl_sm64_material_023_v3
                0x000000000703c690                mat_revert_jrb_dl_sm64_material_v3
                0x000000000703c6a8                mat_jrb_dl_sm64_material_v3
                0x000000000703c718                mat_revert_jrb_dl_sm64_material_013_v3
                0x000000000703c730                mat_jrb_dl_sm64_material_013_v3
                0x000000000703c7b0                mat_revert_jrb_dl_sm64_material_014_v3
                0x000000000703c7c8                mat_jrb_dl_sm64_material_014_v3
                0x000000000703c848                mat_revert_jrb_dl_sm64_material_012_v3_001
                0x000000000703c868                mat_jrb_dl_sm64_material_012_v3_001
                0x000000000703c920                mat_revert_jrb_dl_sm64_material_009_v3
                0x000000000703c940                mat_jrb_dl_sm64_material_009_v3
                0x000000000703c9f8                mat_revert_jrb_dl_sm64_material_010_v3_001
                0x000000000703ca18                mat_jrb_dl_sm64_material_010_v3_001
                0x000000000703cad0                mat_revert_jrb_dl_sm64_material_007_v3
                0x000000000703cae8                mat_jrb_dl_sm64_material_007_v3
                0x000000000703cb68                mat_revert_jrb_dl_sm64_material_002_v3_layer1
                0x000000000703cb90                mat_jrb_dl_sm64_material_002_v3_layer1
                0x000000000703cc60                mat_revert_jrb_dl_sm64_material_001_v3
                0x000000000703cc80                mat_jrb_dl_sm64_material_001_v3
                0x000000000703cd38                mat_revert_jrb_dl_sm64_material_015_v3
                0x000000000703cd58                mat_jrb_dl_sm64_material_015_v3
                0x000000000703ce10                mat_revert_jrb_dl_sm64_material_086_v3
                0x000000000703ce30                mat_jrb_dl_sm64_material_086_v3
                0x000000000703cee8                mat_revert_jrb_dl_sm64_material_022_v3
                0x000000000703cf08                mat_jrb_dl_sm64_material_022_v3
                0x000000000703cfc0                jrb_dl_Plane_009_mesh_tri_0
                0x000000000703d0f8                jrb_dl_Plane_009_mesh_vtx_0
                0x000000000703d938                jrb_dl_Plane_009_mesh_vtx_cull
                0x000000000703d9b8                jrb_dl_Plane_005_mesh_tri_1
                0x000000000703da98                jrb_dl_Plane_005_mesh_vtx_1
                0x000000000703e098                jrb_dl_Plane_005_mesh_tri_0
                0x000000000703e140                jrb_dl_Plane_005_mesh_vtx_0
                0x000000000703e440                jrb_dl_Plane_005_mesh_vtx_cull
                0x000000000703e4c0                jrb_dl_Plane_004_mesh_tri_0
                0x000000000703e580                jrb_dl_Plane_004_mesh_vtx_0
                0x000000000703ea80                jrb_dl_Plane_004_mesh_vtx_cull
                0x000000000703eb00                jrb_dl_Plane_003_mesh_tri_1
                0x000000000703eb90                jrb_dl_Plane_003_mesh_vtx_1
                0x000000000703ef50                jrb_dl_Plane_003_mesh_tri_0
                0x000000000703f058                jrb_dl_Plane_003_mesh_vtx_0
                0x000000000703f728                jrb_dl_Plane_002_mesh_tri_4
                0x000000000703f900                jrb_dl_Plane_002_mesh_vtx_4
                0x0000000007040570                jrb_dl_Plane_002_mesh_tri_3
                0x00000000070405a0                jrb_dl_Plane_002_mesh_vtx_3
                0x00000000070406a0                jrb_dl_Plane_002_mesh_tri_2
                0x00000000070413e0                jrb_dl_Plane_002_mesh_vtx_2
                0x0000000007046e20                jrb_dl_Plane_002_mesh_tri_1
                0x0000000007047970                jrb_dl_Plane_002_mesh_vtx_1
                0x000000000704c6b0                jrb_dl_Plane_002_mesh_tri_0
                0x000000000704c950                jrb_dl_Plane_002_mesh_vtx_0
                0x000000000704db90                jrb_dl_Cube_003_mesh_tri_0
                0x000000000704dd28                jrb_dl_Cube_003_mesh_vtx_0
                0x000000000704ec58                jrb_dl_Cube_003_mesh_vtx_cull
                0x000000000704ecd8                jrb_dl_Cube_002_mesh_tri_2
                0x000000000704ecf0                jrb_dl_Cube_002_mesh_vtx_2
                0x000000000704ed30                jrb_dl_Cube_002_mesh_tri_1
                0x000000000704edb8                jrb_dl_Cube_002_mesh_vtx_1
                0x000000000704ef98                jrb_dl_Cube_002_mesh_tri_0
                0x000000000704f088                jrb_dl_Cube_002_mesh_vtx_0
                0x000000000704f458                jrb_dl_Cube_002_mesh_vtx_cull
                0x000000000704f4d8                jrb_dl_Circle_052_mesh_tri_0
                0x000000000704f508                jrb_dl_Circle_052_mesh_vtx_0
                0x000000000704f5b8                jrb_dl_Circle_051_mesh_layer_1_tri_0
                0x000000000704f608                jrb_dl_Circle_051_mesh_layer_1_vtx_0
                0x000000000704f718                jrb_dl_Circle_049_mesh_tri_0
                0x000000000704f740                jrb_dl_Circle_049_mesh_vtx_0
                0x000000000704f7c0                jrb_dl_Circle_048_mesh_tri_5
                0x000000000704fa98                jrb_dl_Circle_048_mesh_vtx_5
                0x0000000007050588                jrb_dl_Circle_048_mesh_tri_4
                0x0000000007050638                jrb_dl_Circle_048_mesh_vtx_4
                0x00000000070508f8                jrb_dl_Circle_048_mesh_tri_3
                0x0000000007050928                jrb_dl_Circle_048_mesh_vtx_3
                0x00000000070509c8                jrb_dl_Circle_048_mesh_tri_2
                0x00000000070509e8                jrb_dl_Circle_048_mesh_vtx_2
                0x0000000007050a48                jrb_dl_Circle_048_mesh_tri_1
                0x0000000007050ae0                jrb_dl_Circle_048_mesh_vtx_1
                0x0000000007050da0                jrb_dl_Circle_048_mesh_tri_0
                0x0000000007050e90                jrb_dl_Circle_048_mesh_vtx_0
                0x0000000007051790                jrb_dl_spinningdiscs_mesh_tri_0
                0x00000000070517e8                jrb_dl_spinningdiscs_mesh_vtx_0
                0x00000000070519c8                jrb_dl_Plane_001_mesh_tri_1
                0x0000000007051a68                jrb_dl_Plane_001_mesh_vtx_1
                0x0000000007051cf8                jrb_dl_Plane_001_mesh_tri_0
                0x0000000007051d28                jrb_dl_Plane_001_mesh_vtx_0
                0x0000000007051dc8                jrb_dl_Plane_001_mesh_vtx_cull
                0x0000000007051e48                jrb_dl_nippercrowd_mesh_tri_0
                0x0000000007051fa8                jrb_dl_nippercrowd_mesh_vtx_0
                0x00000000070524e8                jrb_dl_Circle_045_mesh_tri_0
                0x00000000070527a8                jrb_dl_Circle_045_mesh_vtx_0
                0x00000000070531a8                jrb_dl_Circle_042_mesh_tri_0
                0x00000000070531e0                jrb_dl_Circle_042_mesh_vtx_0
                0x00000000070532a0                jrb_dl_Circle_022_mesh_tri_1
                0x00000000070532e0                jrb_dl_Circle_022_mesh_vtx_1
                0x0000000007053460                jrb_dl_Circle_022_mesh_tri_0
                0x0000000007053730                jrb_dl_Circle_022_mesh_vtx_0
                0x0000000007054430                jrb_dl_Circle_mesh_tri_5
                0x0000000007054538                jrb_dl_Circle_mesh_vtx_5
                0x00000000070548f8                jrb_dl_Circle_mesh_tri_4
                0x0000000007054988                jrb_dl_Circle_mesh_vtx_4
                0x0000000007054c08                jrb_dl_Circle_mesh_tri_3
                0x0000000007054c20                jrb_dl_Circle_mesh_vtx_3
                0x0000000007054c60                jrb_dl_Circle_mesh_tri_2
                0x0000000007054d18                jrb_dl_Circle_mesh_vtx_2
                0x0000000007055038                jrb_dl_Circle_mesh_tri_1
                0x00000000070550f0                jrb_dl_Circle_mesh_vtx_1
                0x0000000007055390                jrb_dl_Circle_mesh_tri_0
                0x00000000070554a0                jrb_dl_Circle_mesh_vtx_0
                0x0000000007055900                jrb_dl_Circle_040_mesh_tri_0
                0x0000000007055960                jrb_dl_Circle_040_mesh_vtx_0
                0x0000000007055a70                jrb_dl_Circle_036_mesh_tri_3
                0x0000000007055a88                jrb_dl_Circle_036_mesh_vtx_3
                0x0000000007055ac8                jrb_dl_Circle_036_mesh_tri_2
                0x0000000007055ae0                jrb_dl_Circle_036_mesh_vtx_2
                0x0000000007055b20                jrb_dl_Circle_036_mesh_tri_1
                0x0000000007055b58                jrb_dl_Circle_036_mesh_vtx_1
                0x0000000007055d38                jrb_dl_Circle_036_mesh_tri_0
                0x0000000007055d78                jrb_dl_Circle_036_mesh_vtx_0
                0x0000000007055f58                jrb_dl_Circle_034_mesh_tri_20
                0x0000000007055f70                jrb_dl_Circle_034_mesh_vtx_20
                0x0000000007055fb0                jrb_dl_Circle_034_mesh_tri_19
                0x0000000007056020                jrb_dl_Circle_034_mesh_vtx_19
                0x0000000007056170                jrb_dl_Circle_034_mesh_tri_18
                0x0000000007056188                jrb_dl_Circle_034_mesh_vtx_18
                0x00000000070561c8                jrb_dl_Circle_034_mesh_tri_17
                0x00000000070561e0                jrb_dl_Circle_034_mesh_vtx_17
                0x0000000007056220                jrb_dl_Circle_034_mesh_tri_16
                0x00000000070562f0                jrb_dl_Circle_034_mesh_vtx_16
                0x00000000070564f0                jrb_dl_Circle_034_mesh_tri_15
                0x0000000007056540                jrb_dl_Circle_034_mesh_vtx_15
                0x0000000007056630                jrb_dl_Circle_034_mesh_tri_14
                0x0000000007056668                jrb_dl_Circle_034_mesh_vtx_14
                0x0000000007056728                jrb_dl_Circle_034_mesh_tri_13
                0x00000000070567a0                jrb_dl_Circle_034_mesh_vtx_13
                0x00000000070568e0                jrb_dl_Circle_034_mesh_tri_12
                0x00000000070568f8                jrb_dl_Circle_034_mesh_vtx_12
                0x0000000007056938                jrb_dl_Circle_034_mesh_tri_11
                0x0000000007056970                jrb_dl_Circle_034_mesh_vtx_11
                0x0000000007056ab0                jrb_dl_Circle_034_mesh_tri_10
                0x0000000007056b48                jrb_dl_Circle_034_mesh_vtx_10
                0x0000000007056d98                jrb_dl_Circle_034_mesh_tri_9
                0x0000000007056e48                jrb_dl_Circle_034_mesh_vtx_9
                0x0000000007057288                jrb_dl_Circle_034_mesh_tri_8
                0x00000000070572c0                jrb_dl_Circle_034_mesh_vtx_8
                0x0000000007057340                jrb_dl_Circle_034_mesh_tri_7
                0x0000000007057388                jrb_dl_Circle_034_mesh_vtx_7
                0x00000000070574a8                jrb_dl_Circle_034_mesh_tri_6
                0x0000000007057558                jrb_dl_Circle_034_mesh_vtx_6
                0x0000000007057738                jrb_dl_Circle_034_mesh_tri_5
                0x0000000007057880                jrb_dl_Circle_034_mesh_vtx_5
                0x0000000007057ec0                jrb_dl_Circle_034_mesh_tri_4
                0x00000000070580e0                jrb_dl_Circle_034_mesh_vtx_4
                0x00000000070587a0                jrb_dl_Circle_034_mesh_tri_3
                0x00000000070587f0                jrb_dl_Circle_034_mesh_vtx_3
                0x00000000070588b0                jrb_dl_Circle_034_mesh_tri_2
                0x00000000070588f0                jrb_dl_Circle_034_mesh_vtx_2
                0x00000000070589f0                jrb_dl_Circle_034_mesh_tri_1
                0x0000000007058a28                jrb_dl_Circle_034_mesh_vtx_1
                0x0000000007058ae8                jrb_dl_Circle_034_mesh_tri_0
                0x0000000007058bb8                jrb_dl_Circle_034_mesh_vtx_0
                0x0000000007058ed8                jrb_dl_Circle_032_mesh_tri_0
                0x0000000007058ef0                jrb_dl_Circle_032_mesh_vtx_0
                0x0000000007058f30                jrb_dl_Circle_028_mesh_tri_12
                0x0000000007058f58                jrb_dl_Circle_028_mesh_vtx_12
                0x0000000007058fd8                jrb_dl_Circle_028_mesh_tri_11
                0x0000000007059008                jrb_dl_Circle_028_mesh_vtx_11
                0x0000000007059188                jrb_dl_Circle_028_mesh_tri_10
                0x00000000070591a8                jrb_dl_Circle_028_mesh_vtx_10
                0x0000000007059208                jrb_dl_Circle_028_mesh_tri_9
                0x0000000007059220                jrb_dl_Circle_028_mesh_vtx_9
                0x0000000007059250                jrb_dl_Circle_028_mesh_tri_8
                0x0000000007059278                jrb_dl_Circle_028_mesh_vtx_8
                0x00000000070592f8                jrb_dl_Circle_028_mesh_tri_7
                0x0000000007059318                jrb_dl_Circle_028_mesh_vtx_7
                0x0000000007059378                jrb_dl_Circle_028_mesh_tri_6
                0x00000000070593b0                jrb_dl_Circle_028_mesh_vtx_6
                0x0000000007059460                jrb_dl_Circle_028_mesh_tri_5
                0x0000000007059518                jrb_dl_Circle_028_mesh_vtx_5
                0x0000000007059828                jrb_dl_Circle_028_mesh_tri_4
                0x0000000007059848                jrb_dl_Circle_028_mesh_vtx_4
                0x0000000007059898                jrb_dl_Circle_028_mesh_tri_3
                0x00000000070598c8                jrb_dl_Circle_028_mesh_vtx_3
                0x00000000070599a8                jrb_dl_Circle_028_mesh_tri_2
                0x00000000070599c0                jrb_dl_Circle_028_mesh_vtx_2
                0x0000000007059a00                jrb_dl_Circle_028_mesh_tri_1
                0x0000000007059a30                jrb_dl_Circle_028_mesh_vtx_1
                0x0000000007059ab0                jrb_dl_Circle_028_mesh_tri_0
                0x0000000007059b28                jrb_dl_Circle_028_mesh_vtx_0
                0x0000000007059cf8                jrb_dl_n0b0_mesh_tri_0
                0x0000000007059e60                jrb_dl_n0b0_mesh_vtx_0
                0x000000000705a200                jrb_dl_n0b0_mesh_vtx_cull
                0x000000000705a280                jrb_dl_Circle_025_mesh_tri_1
                0x000000000705a2a0                jrb_dl_Circle_025_mesh_vtx_1
                0x000000000705a320                jrb_dl_Circle_025_mesh_tri_0
                0x000000000705a340                jrb_dl_Circle_025_mesh_vtx_0
                0x000000000705a400                jrb_dl_Circle_024_mesh_tri_10
                0x000000000705a418                jrb_dl_Circle_024_mesh_vtx_10
                0x000000000705a458                jrb_dl_Circle_024_mesh_tri_9
                0x000000000705a470                jrb_dl_Circle_024_mesh_vtx_9
                0x000000000705a4b0                jrb_dl_Circle_024_mesh_tri_8
                0x000000000705a4c8                jrb_dl_Circle_024_mesh_vtx_8
                0x000000000705a508                jrb_dl_Circle_024_mesh_tri_7
                0x000000000705a520                jrb_dl_Circle_024_mesh_vtx_7
                0x000000000705a560                jrb_dl_Circle_024_mesh_tri_6
                0x000000000705a578                jrb_dl_Circle_024_mesh_vtx_6
                0x000000000705a5b8                jrb_dl_Circle_024_mesh_tri_5
                0x000000000705a640                jrb_dl_Circle_024_mesh_vtx_5
                0x000000000705a8c0                jrb_dl_Circle_024_mesh_tri_4
                0x000000000705aa08                jrb_dl_Circle_024_mesh_vtx_4
                0x000000000705af08                jrb_dl_Circle_024_mesh_tri_3
                0x000000000705af60                jrb_dl_Circle_024_mesh_vtx_3
                0x000000000705b0a0                jrb_dl_Circle_024_mesh_tri_2
                0x000000000705b0e8                jrb_dl_Circle_024_mesh_vtx_2
                0x000000000705b2e8                jrb_dl_Circle_024_mesh_tri_1
                0x000000000705b3d8                jrb_dl_Circle_024_mesh_vtx_1
                0x000000000705ba18                jrb_dl_Circle_024_mesh_tri_0
                0x000000000705bb28                jrb_dl_Circle_024_mesh_vtx_0
                0x000000000705bef8                jrb_dl_Circle_020_mesh_tri_0
                0x000000000705bf30                jrb_dl_Circle_020_mesh_vtx_0
                0x000000000705bff0                jrb_dl_gazhole_mesh_tri_7
                0x000000000705c038                jrb_dl_gazhole_mesh_vtx_7
                0x000000000705c238                jrb_dl_gazhole_mesh_tri_6
                0x000000000705c300                jrb_dl_gazhole_mesh_vtx_6
                0x000000000705c840                jrb_dl_gazhole_mesh_tri_5
                0x000000000705c8c0                jrb_dl_gazhole_mesh_vtx_5
                0x000000000705cc20                jrb_dl_gazhole_mesh_tri_4
                0x000000000705cc78                jrb_dl_gazhole_mesh_vtx_4
                0x000000000705ced8                jrb_dl_gazhole_mesh_tri_3
                0x000000000705cfd0                jrb_dl_gazhole_mesh_vtx_3
                0x000000000705d6b0                jrb_dl_gazhole_mesh_tri_2
                0x000000000705d7a0                jrb_dl_gazhole_mesh_vtx_2
                0x000000000705de30                jrb_dl_gazhole_mesh_tri_1
                0x000000000705def8                jrb_dl_gazhole_mesh_vtx_1
                0x000000000705e4f8                jrb_dl_gazhole_mesh_tri_0
                0x000000000705e6e0                jrb_dl_gazhole_mesh_vtx_0
                0x000000000705ee10                jrb_dl_Circle_002_mesh_tri_3
                0x000000000705ee70                jrb_dl_Circle_002_mesh_vtx_3
                0x000000000705f1d0                jrb_dl_Circle_002_mesh_tri_2
                0x000000000705f368                jrb_dl_Circle_002_mesh_vtx_2
                0x0000000007060298                jrb_dl_Circle_002_mesh_tri_1
                0x0000000007060430                jrb_dl_Circle_002_mesh_vtx_1
                0x0000000007061360                jrb_dl_Circle_002_mesh_tri_0
                0x00000000070614c8                jrb_dl_Circle_002_mesh_vtx_0
                0x0000000007062248                jrb_dl_cavewalls_005_mesh_tri_1
                0x0000000007062260                jrb_dl_cavewalls_005_mesh_vtx_1
                0x00000000070622c0                jrb_dl_cavewalls_005_mesh_tri_0
                0x00000000070622d8                jrb_dl_cavewalls_005_mesh_vtx_0
                0x0000000007062318                jrb_dl_cavewalls_004_mesh_layer_1_tri_0
                0x0000000007062420                jrb_dl_cavewalls_004_mesh_layer_1_vtx_0
                0x0000000007062b00                jrb_dl_cavewalls_001_mesh_tri_0
                0x0000000007062cb0                jrb_dl_cavewalls_001_mesh_vtx_0
                0x0000000007063710                jrb_dl_cavewalls_mesh_tri_2
                0x0000000007063728                jrb_dl_cavewalls_mesh_vtx_2
                0x0000000007063768                jrb_dl_cavewalls_mesh_tri_1
                0x0000000007063780                jrb_dl_cavewalls_mesh_vtx_1
                0x00000000070637c0                jrb_dl_cavewalls_mesh_tri_0
                0x0000000007063da8                jrb_dl_cavewalls_mesh_vtx_0
                0x00000000070659f8                jrb_dl_mirror_mesh_tri_0
                0x0000000007065a10                jrb_dl_mirror_mesh_vtx_0
                0x0000000007065a50                jrb_dl_cullthismaingeometry_mesh_tri_9
                0x0000000007065aa8                jrb_dl_cullthismaingeometry_mesh_vtx_9
                0x0000000007065da8                jrb_dl_cullthismaingeometry_mesh_tri_8
                0x0000000007065e08                jrb_dl_cullthismaingeometry_mesh_vtx_8
                0x0000000007066168                jrb_dl_cullthismaingeometry_mesh_tri_7
                0x0000000007066188                jrb_dl_cullthismaingeometry_mesh_vtx_7
                0x00000000070661e8                jrb_dl_cullthismaingeometry_mesh_tri_6
                0x0000000007066238                jrb_dl_cullthismaingeometry_mesh_vtx_6
                0x00000000070663d8                jrb_dl_cullthismaingeometry_mesh_tri_5
                0x0000000007066440                jrb_dl_cullthismaingeometry_mesh_vtx_5
                0x00000000070665e0                jrb_dl_cullthismaingeometry_mesh_tri_4
                0x0000000007066610                jrb_dl_cullthismaingeometry_mesh_vtx_4
                0x00000000070666e0                jrb_dl_cullthismaingeometry_mesh_tri_3
                0x0000000007066718                jrb_dl_cullthismaingeometry_mesh_vtx_3
                0x00000000070668f8                jrb_dl_cullthismaingeometry_mesh_tri_2
                0x0000000007066958                jrb_dl_cullthismaingeometry_mesh_vtx_2
                0x0000000007066cb8                jrb_dl_cullthismaingeometry_mesh_tri_1
                0x0000000007066d90                jrb_dl_cullthismaingeometry_mesh_vtx_1
                0x00000000070670e0                jrb_dl_cullthismaingeometry_mesh_tri_0
                0x0000000007067130                jrb_dl_cullthismaingeometry_mesh_vtx_0
                0x0000000007067300                jrb_dl_cullthislight_mesh_tri_0
                0x0000000007067470                jrb_dl_cullthislight_mesh_vtx_0
                0x0000000007067a70                jrb_dl_cullthislight_mesh_vtx_cull
                0x0000000007067af0                jrb_dl_Cullthishouse_mesh_tri_3
                0x0000000007067b08                jrb_dl_Cullthishouse_mesh_vtx_3
                0x0000000007067b48                jrb_dl_Cullthishouse_mesh_tri_2
                0x0000000007067b78                jrb_dl_Cullthishouse_mesh_vtx_2
                0x0000000007067c28                jrb_dl_Cullthishouse_mesh_tri_1
                0x0000000007067c68                jrb_dl_Cullthishouse_mesh_vtx_1
                0x0000000007067d08                jrb_dl_Cullthishouse_mesh_tri_0
                0x0000000007067d68                jrb_dl_Cullthishouse_mesh_vtx_0
                0x0000000007067ef8                jrb_dl_cullthisfence_mesh_tri_5
                0x0000000007067f10                jrb_dl_cullthisfence_mesh_vtx_5
                0x0000000007067f70                jrb_dl_cullthisfence_mesh_tri_4
                0x0000000007067f90                jrb_dl_cullthisfence_mesh_vtx_4
                0x0000000007068050                jrb_dl_cullthisfence_mesh_tri_3
                0x0000000007068070                jrb_dl_cullthisfence_mesh_vtx_3
                0x0000000007068130                jrb_dl_cullthisfence_mesh_tri_2
                0x0000000007068148                jrb_dl_cullthisfence_mesh_vtx_2
                0x0000000007068188                jrb_dl_cullthisfence_mesh_tri_1
                0x00000000070681b8                jrb_dl_cullthisfence_mesh_vtx_1
                0x0000000007068278                jrb_dl_cullthisfence_mesh_tri_0
                0x00000000070682a0                jrb_dl_cullthisfence_mesh_vtx_0
                0x0000000007068360                jrb_dl_cullthisbox_mesh_tri_0
                0x0000000007068420                jrb_dl_cullthisbox_mesh_vtx_0
                0x00000000070687e0                jrb_dl_Cube_004_mesh_tri_1
                0x00000000070687f8                jrb_dl_Cube_004_mesh_vtx_1
                0x0000000007068838                jrb_dl_Cube_004_mesh_tri_0
                0x00000000070688a8                jrb_dl_Cube_004_mesh_vtx_0
                0x00000000070689e8                jrb_dl_Cube_004_mesh_vtx_cull
                0x0000000007068a68                jrb_dl_Cube_001_mesh_tri_0
                0x0000000007068aa0                jrb_dl_Cube_001_mesh_vtx_0
                0x0000000007068be0                jrb_dl_Circle_060_mesh_layer_1_tri_0
                0x0000000007068d50                jrb_dl_Circle_060_mesh_layer_1_vtx_0
                0x00000000070697d0                jrb_dl_Circle_056_mesh_tri_0
                0x0000000007069818                jrb_dl_Circle_056_mesh_vtx_0
                0x00000000070699d8                jrb_dl_Circle_055_mesh_layer_4_tri_0
                0x0000000007069a08                jrb_dl_Circle_055_mesh_layer_4_vtx_0
                0x0000000007069aa8                jrb_dl_Circle_055_mesh_tri_0
                0x0000000007069ae0                jrb_dl_Circle_055_mesh_vtx_0
                0x0000000007069c00                jrb_dl_Circle_054_mesh_tri_4
                0x0000000007069c38                jrb_dl_Circle_054_mesh_vtx_4
                0x0000000007069de8                jrb_dl_Circle_054_mesh_tri_3
                0x0000000007069e20                jrb_dl_Circle_054_mesh_vtx_3
                0x0000000007069fd0                jrb_dl_Circle_054_mesh_tri_2
                0x0000000007069ff0                jrb_dl_Circle_054_mesh_vtx_2
                0x000000000706a070                jrb_dl_Circle_054_mesh_tri_1
                0x000000000706a198                jrb_dl_Circle_054_mesh_vtx_1
                0x000000000706a638                jrb_dl_Circle_054_mesh_tri_0
                0x000000000706a698                jrb_dl_Circle_054_mesh_vtx_0
                0x000000000706a808                jrb_dl_Circle_054_mesh_vtx_cull
                0x000000000706a888                jrb_dl_Circle_043_mesh_tri_0
                0x000000000706a8a0                jrb_dl_Circle_043_mesh_vtx_0
                0x000000000706a8e0                jrb_dl_Circle_026_mesh_layer_1_tri_0
                0x000000000706a918                jrb_dl_Circle_026_mesh_layer_1_vtx_0
                0x000000000706a998                jrb_dl_Circle_026_mesh_layer_1_vtx_cull
                0x000000000706aa18                jrb_dl_Circle_026_mesh_tri_4
                0x000000000706aa50                jrb_dl_Circle_026_mesh_vtx_4
                0x000000000706ac00                jrb_dl_Circle_026_mesh_tri_3
                0x000000000706ac60                jrb_dl_Circle_026_mesh_vtx_3
                0x000000000706afc0                jrb_dl_Circle_026_mesh_tri_2
                0x000000000706b000                jrb_dl_Circle_026_mesh_vtx_2
                0x000000000706b0d0                jrb_dl_Circle_026_mesh_tri_1
                0x000000000706b0e8                jrb_dl_Circle_026_mesh_vtx_1
                0x000000000706b128                jrb_dl_Circle_026_mesh_tri_0
                0x000000000706b180                jrb_dl_Circle_026_mesh_vtx_0
                0x000000000706b290                jrb_dl_Circle_026_mesh_vtx_cull
                0x000000000706b310                jrb_dl_Circle_018_mesh_tri_0
                0x000000000706b350                jrb_dl_Circle_018_mesh_vtx_0
                0x000000000706b420                jrb_dl_Circle_017_mesh_tri_0
                0x000000000706b4e8                jrb_dl_Circle_017_mesh_vtx_0
                0x000000000706b728                jrb_dl_Circle_017_mesh_vtx_cull
                0x000000000706b7a8                jrb_dl_Circle_009_mesh_layer_4_tri_0
                0x000000000706b7d8                jrb_dl_Circle_009_mesh_layer_4_vtx_0
                0x000000000706b878                jrb_dl_Circle_009_mesh_tri_0
                0x000000000706b8c0                jrb_dl_Circle_009_mesh_vtx_0
                0x000000000706ba40                jrb_dl_Circle_008_mesh_tri_2
                0x000000000706ba80                jrb_dl_Circle_008_mesh_vtx_2
                0x000000000706bb80                jrb_dl_Circle_008_mesh_tri_1
                0x000000000706bc10                jrb_dl_Circle_008_mesh_vtx_1
                0x000000000706bf30                jrb_dl_Circle_008_mesh_tri_0
                0x000000000706bf70                jrb_dl_Circle_008_mesh_vtx_0
                0x000000000706c0f0                jrb_dl_Circle_008_mesh_vtx_cull
                0x000000000706c170                jrb_dl_Circle_005_mesh_tri_0
                0x000000000706c238                jrb_dl_Circle_005_mesh_vtx_0
                0x000000000706c698                jrb_dl_Circle_004_mesh_tri_13
                0x000000000706c6c8                jrb_dl_Circle_004_mesh_vtx_13
                0x000000000706c7c8                jrb_dl_Circle_004_mesh_tri_12
                0x000000000706c828                jrb_dl_Circle_004_mesh_vtx_12
                0x000000000706cb88                jrb_dl_Circle_004_mesh_tri_11
                0x000000000706cbe8                jrb_dl_Circle_004_mesh_vtx_11
                0x000000000706cf18                jrb_dl_Circle_004_mesh_tri_10
                0x000000000706d028                jrb_dl_Circle_004_mesh_vtx_10
                0x000000000706da18                jrb_dl_Circle_004_mesh_tri_9
                0x000000000706da50                jrb_dl_Circle_004_mesh_vtx_9
                0x000000000706dc00                jrb_dl_Circle_004_mesh_tri_8
                0x000000000706dc38                jrb_dl_Circle_004_mesh_vtx_8
                0x000000000706dde8                jrb_dl_Circle_004_mesh_tri_7
                0x000000000706dea0                jrb_dl_Circle_004_mesh_vtx_7
                0x000000000706e560                jrb_dl_Circle_004_mesh_tri_6
                0x000000000706e5c8                jrb_dl_Circle_004_mesh_vtx_6
                0x000000000706e7e8                jrb_dl_Circle_004_mesh_tri_5
                0x000000000706e818                jrb_dl_Circle_004_mesh_vtx_5
                0x000000000706e918                jrb_dl_Circle_004_mesh_tri_4
                0x000000000706e938                jrb_dl_Circle_004_mesh_vtx_4
                0x000000000706e998                jrb_dl_Circle_004_mesh_tri_3
                0x000000000706e9b8                jrb_dl_Circle_004_mesh_vtx_3
                0x000000000706ea18                jrb_dl_Circle_004_mesh_tri_2
                0x000000000706ea48                jrb_dl_Circle_004_mesh_vtx_2
                0x000000000706eb68                jrb_dl_Circle_004_mesh_tri_1
                0x000000000706efb8                jrb_dl_Circle_004_mesh_vtx_1
                0x0000000007070368                jrb_dl_Circle_004_mesh_tri_0
                0x0000000007070620                jrb_dl_Circle_004_mesh_vtx_0
                0x0000000007071280                jrb_dl_Circle_003_mesh_tri_1
                0x00000000070712a0                jrb_dl_Circle_003_mesh_vtx_1
                0x0000000007071320                jrb_dl_Circle_003_mesh_tri_0
                0x0000000007071340                jrb_dl_Circle_003_mesh_vtx_0
                0x00000000070713c0                jrb_dl_boxes_mesh_tri_1
                0x00000000070713d8                jrb_dl_boxes_mesh_vtx_1
                0x0000000007071418                jrb_dl_boxes_mesh_tri_0
                0x00000000070714b8                jrb_dl_boxes_mesh_vtx_0
                0x0000000007071728                jrb_dl_sign_ci4_pal_rgba16
                0x0000000007071740                jrb_dl_sign_ci4_pal_rgba16_aligner
                0x0000000007071748                jrb_dl_sign_ci4
                0x0000000007071948                jrb_dl_sign_ci4_aligner
                0x0000000007071950                jrb_dl_Unbenannt_8_ci4_pal_rgba16
                0x0000000007071958                jrb_dl_Unbenannt_8_ci4_pal_rgba16_aligner
                0x0000000007071960                jrb_dl_Unbenannt_8_ci4
                0x00000000070719e0                jrb_dl_Unbenannt_8_ci4_aligner
                0x00000000070719e8                jrb_dl_log2_ci4_pal_rgba16
                0x00000000070719f0                jrb_dl_log2_ci4_pal_rgba16_aligner
                0x00000000070719f8                jrb_dl_log2_ci4
                0x0000000007071a78                jrb_dl_log2_ci4_aligner
                0x0000000007071a80                jrb_dl_Unbenannt5_1_ci4_pal_rgba16
                0x0000000007071a90                jrb_dl_Unbenannt5_1_ci4_pal_rgba16_aligner
                0x0000000007071a98                jrb_dl_Unbenannt5_1_ci4
                0x0000000007071b18                jrb_dl_Unbenannt5_1_ci4_aligner
                0x0000000007071b20                jrb_dl_hangablesides_ci4_pal_rgba16
                0x0000000007071b28                jrb_dl_hangablesides_ci4_pal_rgba16_aligner
                0x0000000007071b30                jrb_dl_hangablesides_ci4
                0x0000000007071c30                jrb_dl_hangablesides_ci4_aligner
                0x0000000007071c38                jrb_dl_hangablecorner_ci4_pal_rgba16
                0x0000000007071c48                jrb_dl_hangablecorner_ci4_pal_rgba16_aligner
                0x0000000007071c50                jrb_dl_hangablecorner_ci4
                0x0000000007071e50                jrb_dl_hangablecorner_ci4_aligner
                0x0000000007071e58                jrb_dl__5_ci4_pal_rgba16
                0x0000000007071e60                jrb_dl__5_ci4_pal_rgba16_aligner
                0x0000000007071e68                jrb_dl__5_ci4
                0x0000000007072068                jrb_dl__5_ci4_aligner
                0x0000000007072070                jrb_dl_lava_ci4_pal_rgba16
                0x0000000007072078                jrb_dl_lava_ci4_pal_rgba16_aligner
                0x0000000007072080                jrb_dl_lava_ci4
                0x0000000007072100                jrb_dl_lava_ci4_aligner
                0x0000000007072108                jrb_dl_corner_ci4_pal_rgba16
                0x0000000007072118                jrb_dl_corner_ci4_pal_rgba16_aligner
                0x0000000007072120                jrb_dl_corner_ci4
                0x00000000070721a0                jrb_dl_corner_ci4_aligner
                0x00000000070721a8                jrb_dl_side1_ci4_pal_rgba16
                0x00000000070721b8                jrb_dl_side1_ci4_pal_rgba16_aligner
                0x00000000070721c0                jrb_dl_side1_ci4
                0x0000000007072240                jrb_dl_side1_ci4_aligner
                0x0000000007072248                jrb_dl_middle_ci4_pal_rgba16
                0x0000000007072258                jrb_dl_middle_ci4_pal_rgba16_aligner
                0x0000000007072260                jrb_dl_middle_ci4
                0x00000000070722e0                jrb_dl_middle_ci4_aligner
                0x00000000070722e8                jrb_dl__07001800_ci8_pal_rgba16
                0x0000000007072318                jrb_dl__07001800_ci8_pal_rgba16_aligner
                0x0000000007072320                jrb_dl__07001800_ci8
                0x0000000007072720                jrb_dl__07001800_ci8_aligner
                0x0000000007072728                jrb_dl_tempImgEd00B8_rgba16
                0x0000000007072f28                jrb_dl_tempImgEd00B8_rgba16_aligner
                0x0000000007072f30                jrb_dl_ice__3__rgba16
                0x0000000007073730                jrb_dl_ice__3__rgba16_aligner
                0x0000000007073738                jrb_dl_gareki_i4
                0x0000000007073f38                jrb_dl_gareki_i4_aligner
                0x0000000007073f40                jrb_dl_is_rockWall_rgba16
                0x0000000007074f40                jrb_dl_is_rockWall_rgba16_aligner
                0x0000000007074f48                jrb_dl__0x1240_ci4_pal_rgba16
                0x0000000007074f68                jrb_dl__0x1240_ci4_pal_rgba16_aligner
                0x0000000007074f70                jrb_dl__0x1240_ci4
                0x0000000007075770                jrb_dl__0x1240_ci4_aligner
                0x0000000007075778                jrb_dl_esf23tsesdfh_bo01_rgba16
                0x0000000007075f78                jrb_dl_esf23tsesdfh_bo01_rgba16_aligner
                0x0000000007075f80                jrb_dl_is_iceTile_rgba16
                0x0000000007076780                jrb_dl_is_iceTile_rgba16_aligner
                0x0000000007076788                jrb_dl_GPAE01_ec268d42_5_ci8_pal_rgba16
                0x00000000070768f8                jrb_dl_GPAE01_ec268d42_5_ci8_pal_rgba16_aligner
                0x0000000007076900                jrb_dl_GPAE01_ec268d42_5_ci8
                0x0000000007077100                jrb_dl_GPAE01_ec268d42_5_ci8_aligner
                0x0000000007077108                jrb_dl_nipDance_frame1_rgba16
                0x0000000007078108                jrb_dl_nipDance_frame1_rgba16_aligner
                0x0000000007078110                jrb_dl_GreenWall_ci4_pal_rgba16
                0x0000000007078130                jrb_dl_GreenWall_ci4_pal_rgba16_aligner
                0x0000000007078138                jrb_dl_GreenWall_ci4
                0x0000000007078938                jrb_dl_GreenWall_ci4_aligner
                0x0000000007078940                jrb_dl_MARIOKART64_19B5B6FE_0_2_all_ci8_pal_rgba16
                0x0000000007078a08                jrb_dl_MARIOKART64_19B5B6FE_0_2_all_ci8_pal_rgba16_aligner
                0x0000000007078a10                jrb_dl_MARIOKART64_19B5B6FE_0_2_all_ci8
                0x0000000007078e10                jrb_dl_MARIOKART64_19B5B6FE_0_2_all_ci8_aligner
                0x0000000007078e18                jrb_dl_dg_dod_kiba_01_41480_ci8_pal_rgba16
                0x0000000007078ed8                jrb_dl_dg_dod_kiba_01_41480_ci8_pal_rgba16_aligner
                0x0000000007078ee0                jrb_dl_dg_dod_kiba_01_41480_ci8
                0x00000000070796e0                jrb_dl_dg_dod_kiba_01_41480_ci8_aligner
                0x00000000070796e8                jrb_dl_songdiscall2_ia8
                0x000000000707a6e8                jrb_dl_songdiscall2_ia8_aligner
                0x000000000707a6f0                jrb_dl__3723656_ci4_pal_rgba16
                0x000000000707a710                jrb_dl__3723656_ci4_pal_rgba16_aligner
                0x000000000707a718                jrb_dl__3723656_ci4
                0x000000000707af18                jrb_dl__3723656_ci4_aligner
                0x000000000707af20                jrb_dl_coarse_dirt_ci8_pal_rgba16
                0x000000000707af60                jrb_dl_coarse_dirt_ci8_pal_rgba16_aligner
                0x000000000707af68                jrb_dl_coarse_dirt_ci8
                0x000000000707b368                jrb_dl_coarse_dirt_ci8_aligner
                0x000000000707b370                jrb_dl__0x78E0_ci4_pal_rgba16
                0x000000000707b390                jrb_dl__0x78E0_ci4_pal_rgba16_aligner
                0x000000000707b398                jrb_dl__0x78E0_ci4
                0x000000000707bb98                jrb_dl__0x78E0_ci4_aligner
                0x000000000707bba0                jrb_dl_cloth_xx01_Carpet001_ci4_pal_rgba16
                0x000000000707bbb8                jrb_dl_cloth_xx01_Carpet001_ci4_pal_rgba16_aligner
                0x000000000707bbc0                jrb_dl_cloth_xx01_Carpet001_ci4
                0x000000000707c3c0                jrb_dl_cloth_xx01_Carpet001_ci4_aligner
                0x000000000707c3c8                jrb_dl_handle_ci4_pal_rgba16
                0x000000000707c3e8                jrb_dl_handle_ci4_pal_rgba16_aligner
                0x000000000707c3f0                jrb_dl_handle_ci4
                0x000000000707c7f0                jrb_dl_handle_ci4_aligner
                0x000000000707c7f8                jrb_dl_s_l300_ia8
                0x000000000707d7f8                jrb_dl_s_l300_ia8_aligner
                0x000000000707d800                jrb_dl_Wood_Gate_Thing_Part_1_ci8_pal_rgba16
                0x000000000707d8d8                jrb_dl_Wood_Gate_Thing_Part_1_ci8_pal_rgba16_aligner
                0x000000000707d8e0                jrb_dl_Wood_Gate_Thing_Part_1_ci8
                0x000000000707e0e0                jrb_dl_Wood_Gate_Thing_Part_1_ci8_aligner
                0x000000000707e0e8                jrb_dl_GM4E01_2ca7efcf_14_mip1_ci4_pal_rgba16
                0x000000000707e0f8                jrb_dl_GM4E01_2ca7efcf_14_mip1_ci4_pal_rgba16_aligner
                0x000000000707e100                jrb_dl_GM4E01_2ca7efcf_14_mip1_ci4
                0x000000000707e300                jrb_dl_GM4E01_2ca7efcf_14_mip1_ci4_aligner
                0x000000000707e308                jrb_dl_GZLE01_e9122588_14_mip1_ci4_pal_rgba16
                0x000000000707e328                jrb_dl_GZLE01_e9122588_14_mip1_ci4_pal_rgba16_aligner
                0x000000000707e330                jrb_dl_GZLE01_e9122588_14_mip1_ci4
                0x000000000707eb30                jrb_dl_GZLE01_e9122588_14_mip1_ci4_aligner
                0x000000000707eb38                jrb_dl_kid_boo3_ci4_pal_rgba16
                0x000000000707eb58                jrb_dl_kid_boo3_ci4_pal_rgba16_aligner
                0x000000000707eb60                jrb_dl_kid_boo3_ci4
                0x000000000707f360                jrb_dl_kid_boo3_ci4_aligner
                0x000000000707f368                jrb_dl_st_small_507x507_pad_600x600_f8f8f8_u1_ci4_pal_rgba16
                0x000000000707f388                jrb_dl_st_small_507x507_pad_600x600_f8f8f8_u1_ci4_pal_rgba16_aligner
                0x000000000707f390                jrb_dl_st_small_507x507_pad_600x600_f8f8f8_u1_ci4
                0x000000000707fb90                jrb_dl_st_small_507x507_pad_600x600_f8f8f8_u1_ci4_aligner
                0x000000000707fb98                jrb_dl__0x5D80_ci4_pal_rgba16
                0x000000000707fbb8                jrb_dl__0x5D80_ci4_pal_rgba16_aligner
                0x000000000707fbc0                jrb_dl__0x5D80_ci4
                0x00000000070803c0                jrb_dl__0x5D80_ci4_aligner
                0x00000000070803c8                jrb_dl_th_pic_b_rgba16
                0x00000000070813c8                jrb_dl_th_pic_b_rgba16_aligner
                0x00000000070813d0                jrb_dl_GALE01_524885ab_14_ci8_pal_rgba16
                0x0000000007081418                jrb_dl_GALE01_524885ab_14_ci8_pal_rgba16_aligner
                0x0000000007081420                jrb_dl_GALE01_524885ab_14_ci8
                0x0000000007081820                jrb_dl_GALE01_524885ab_14_ci8_aligner
                0x0000000007081828                jrb_dl_jyutn02_ci4_pal_rgba16
                0x0000000007081848                jrb_dl_jyutn02_ci4_pal_rgba16_aligner
                0x0000000007081850                jrb_dl_jyutn02_ci4
                0x0000000007082050                jrb_dl_jyutn02_ci4_aligner
                0x0000000007082058                jrb_dl_taxesA_i4
                0x0000000007083058                jrb_dl_taxesA_i4_aligner
                0x0000000007083060                jrb_dl_MARIOKART64_F4ECF162_0_2_all_ci4_pal_rgba16
                0x0000000007083078                jrb_dl_MARIOKART64_F4ECF162_0_2_all_ci4_pal_rgba16_aligner
                0x0000000007083080                jrb_dl_MARIOKART64_F4ECF162_0_2_all_ci4
                0x0000000007083280                jrb_dl_MARIOKART64_F4ECF162_0_2_all_ci4_aligner
                0x0000000007083288                jrb_dl_texture1_ci4_pal_rgba16
                0x00000000070832a8                jrb_dl_texture1_ci4_pal_rgba16_aligner
                0x00000000070832b0                jrb_dl_texture1_ci4
                0x0000000007083ab0                jrb_dl_texture1_ci4_aligner
                0x0000000007083ab8                jrb_dl_texture0_ci4_pal_rgba16
                0x0000000007083ad8                jrb_dl_texture0_ci4_pal_rgba16_aligner
                0x0000000007083ae0                jrb_dl_texture0_ci4
                0x00000000070842e0                jrb_dl_texture0_ci4_aligner
                0x00000000070842e8                jrb_dl_pirates_boufeu01txy_ci4_pal_rgba16
                0x0000000007084308                jrb_dl_pirates_boufeu01txy_ci4_pal_rgba16_aligner
                0x0000000007084310                jrb_dl_pirates_boufeu01txy_ci4
                0x0000000007084b10                jrb_dl_pirates_boufeu01txy_ci4_aligner
                0x0000000007084b18                jrb_dl_Tex_0008_0_ci4_pal_rgba16
                0x0000000007084b38                jrb_dl_Tex_0008_0_ci4_pal_rgba16_aligner
                0x0000000007084b40                jrb_dl_Tex_0008_0_ci4
                0x0000000007085340                jrb_dl_Tex_0008_0_ci4_aligner
                0x0000000007085348                jrb_dl_cs_metal05_spc_i8
                0x0000000007085748                jrb_dl_cs_metal05_spc_i8_aligner
                0x0000000007085750                jrb_dl_actualCake_ci8_pal_rgba16
                0x00000000070857c0                jrb_dl_actualCake_ci8_pal_rgba16_aligner
                0x00000000070857c8                jrb_dl_actualCake_ci8
                0x0000000007085bc8                jrb_dl_actualCake_ci8_aligner
                0x0000000007085bd0                jrb_dl_cherryXstrawberry_ci8_pal_rgba16
                0x0000000007085c68                jrb_dl_cherryXstrawberry_ci8_pal_rgba16_aligner
                0x0000000007085c70                jrb_dl_cherryXstrawberry_ci8
                0x0000000007086070                jrb_dl_cherryXstrawberry_ci8_aligner
                0x0000000007086078                jrb_dl_E391CC66ADC1F4C2F421CBB084F28CF4_ci4_pal_rgba16
                0x0000000007086090                jrb_dl_E391CC66ADC1F4C2F421CBB084F28CF4_ci4_pal_rgba16_aligner
                0x0000000007086098                jrb_dl_E391CC66ADC1F4C2F421CBB084F28CF4_ci4
                0x0000000007086498                jrb_dl_E391CC66ADC1F4C2F421CBB084F28CF4_ci4_aligner
                0x00000000070864a0                jrb_dl_hairal_obj_01_55A80_ci4_pal_rgba16
                0x00000000070864c0                jrb_dl_hairal_obj_01_55A80_ci4_pal_rgba16_aligner
                0x00000000070864c8                jrb_dl_hairal_obj_01_55A80_ci4
                0x0000000007086cc8                jrb_dl_hairal_obj_01_55A80_ci4_aligner
                0x0000000007086cd0                jrb_dl_RMGP01_11fb5671_14_mip1ci4_ci4_pal_rgba16
                0x0000000007086ce8                jrb_dl_RMGP01_11fb5671_14_mip1ci4_ci4_pal_rgba16_aligner
                0x0000000007086cf0                jrb_dl_RMGP01_11fb5671_14_mip1ci4_ci4
                0x00000000070874f0                jrb_dl_RMGP01_11fb5671_14_mip1ci4_ci4_aligner
                0x00000000070874f8                jrb_dl_dsaf_logs_ci8_pal_rgba16
                0x0000000007087570                jrb_dl_dsaf_logs_ci8_pal_rgba16_aligner
                0x0000000007087578                jrb_dl_dsaf_logs_ci8
                0x0000000007087d78                jrb_dl_dsaf_logs_ci8_aligner
                0x0000000007087d80                jrb_dl_SUPER_MARIO_64_FE55B4F9_3_2_all_ia8
                0x0000000007088d80                jrb_dl_SUPER_MARIO_64_FE55B4F9_3_2_all_ia8_aligner
                0x0000000007088d88                jrb_dl__0x7C60_ci4_pal_rgba16
                0x0000000007088da8                jrb_dl__0x7C60_ci4_pal_rgba16_aligner
                0x0000000007088db0                jrb_dl__0x7C60_ci4
                0x00000000070895b0                jrb_dl__0x7C60_ci4_aligner
                0x00000000070895b8                jrb_dl_EARTHWORM_JIM_3D_B4EF70D0_0_2_all_ci4_pal_rgba16
                0x00000000070895d8                jrb_dl_EARTHWORM_JIM_3D_B4EF70D0_0_2_all_ci4_pal_rgba16_aligner
                0x00000000070895e0                jrb_dl_EARTHWORM_JIM_3D_B4EF70D0_0_2_all_ci4
                0x00000000070897e0                jrb_dl_EARTHWORM_JIM_3D_B4EF70D0_0_2_all_ci4_aligner
                0x00000000070897e8                jrb_dl__0x4720_ci4_pal_rgba16
                0x0000000007089808                jrb_dl__0x4720_ci4_pal_rgba16_aligner
                0x0000000007089810                jrb_dl__0x4720_ci4
                0x000000000708a010                jrb_dl__0x4720_ci4_aligner
                0x000000000708a018                jrb_dl_s01_mado_01_52800_ci8_pal_rgba16
                0x000000000708a160                jrb_dl_s01_mado_01_52800_ci8_pal_rgba16_aligner
                0x000000000708a168                jrb_dl_s01_mado_01_52800_ci8
                0x000000000708a968                jrb_dl_s01_mado_01_52800_ci8_aligner
                0x000000000708a970                jrb_dl__048E6CCD64E749DC248F9B4EC0AEEFB4_ci4_pal_rgba16
                0x000000000708a990                jrb_dl__048E6CCD64E749DC248F9B4EC0AEEFB4_ci4_pal_rgba16_aligner
                0x000000000708a998                jrb_dl__048E6CCD64E749DC248F9B4EC0AEEFB4_ci4
                0x000000000708b198                jrb_dl__048E6CCD64E749DC248F9B4EC0AEEFB4_ci4_aligner
                0x000000000708b1a0                jrb_dl__00005410_32x32_rgba16_ci8_pal_rgba16
                0x000000000708b1c8                jrb_dl__00005410_32x32_rgba16_ci8_pal_rgba16_aligner
                0x000000000708b1d0                jrb_dl__00005410_32x32_rgba16_ci8
                0x000000000708b5d0                jrb_dl__00005410_32x32_rgba16_ci8_aligner
                0x000000000708b5d8                jrb_dl_FT_0x574B0_32x32_RGBA16_ci8_pal_rgba16
                0x000000000708b6f8                jrb_dl_FT_0x574B0_32x32_RGBA16_ci8_pal_rgba16_aligner
                0x000000000708b700                jrb_dl_FT_0x574B0_32x32_RGBA16_ci8
                0x000000000708bb00                jrb_dl_FT_0x574B0_32x32_RGBA16_ci8_aligner
                0x000000000708bb08                jrb_dl_image_part_003_rgba16
                0x000000000708cb08                jrb_dl_image_part_003_rgba16_aligner
                0x000000000708cb10                jrb_dl_image_part_001_rgba16
                0x000000000708db10                jrb_dl_image_part_001_rgba16_aligner
                0x000000000708db18                jrb_dl_image_part_002_rgba16
                0x000000000708eb18                jrb_dl_image_part_002_rgba16_aligner
                0x000000000708eb20                jrb_dl_image_part_004_rgba16
                0x000000000708fb20                jrb_dl_image_part_004_rgba16_aligner
                0x000000000708fb28                jrb_dl__0xDDE0_ci4_pal_rgba16
                0x000000000708fb48                jrb_dl__0xDDE0_ci4_pal_rgba16_aligner
                0x000000000708fb50                jrb_dl__0xDDE0_ci4
                0x0000000007090350                jrb_dl__0xDDE0_ci4_aligner
                0x0000000007090358                jrb_dl_dbzwoods_ci8_pal_rgba16
                0x0000000007090440                jrb_dl_dbzwoods_ci8_pal_rgba16_aligner
                0x0000000007090448                jrb_dl_dbzwoods_ci8
                0x0000000007090c48                jrb_dl_dbzwoods_ci8_aligner
                0x0000000007090c50                jrb_dl_cobblei4_i4
                0x0000000007091c50                jrb_dl_cobblei4_i4_aligner
                0x0000000007091c58                jrb_dl_gake_7_i8
                0x0000000007092458                jrb_dl_gake_7_i8_aligner
                0x0000000007092460                jrb_dl_Wood_Gate_Thing_Part_2_ci8_pal_rgba16
                0x0000000007092508                jrb_dl_Wood_Gate_Thing_Part_2_ci8_pal_rgba16_aligner
                0x0000000007092510                jrb_dl_Wood_Gate_Thing_Part_2_ci8
                0x0000000007092d10                jrb_dl_Wood_Gate_Thing_Part_2_ci8_aligner
                0x0000000007092d18                jrb_dl_SMASH_BROTHERS_9679D206_0_2_all_ci8_pal_rgba16
                0x0000000007092d40                jrb_dl_SMASH_BROTHERS_9679D206_0_2_all_ci8_pal_rgba16_aligner
                0x0000000007092d48                jrb_dl_SMASH_BROTHERS_9679D206_0_2_all_ci8
                0x0000000007093548                jrb_dl_SMASH_BROTHERS_9679D206_0_2_all_ci8_aligner
                0x0000000007093550                jrb_dl_button1_rgba16
                0x0000000007094550                jrb_dl_button1_rgba16_aligner
                0x0000000007094558                jrb_dl__0700A000_ia8
                0x0000000007094958                jrb_dl__0700A000_ia8_aligner
                0x0000000007094960                jrb_dl_LightBeam2_ia8
                0x0000000007095160                jrb_dl_LightBeam2_ia8_aligner
                0x0000000007095168                jrb_dl_arn_doatif_ci4_pal_rgba16
                0x0000000007095180                jrb_dl_arn_doatif_ci4_pal_rgba16_aligner
                0x0000000007095188                jrb_dl_arn_doatif_ci4
                0x0000000007095588                jrb_dl_arn_doatif_ci4_aligner
                0x0000000007095590                jrb_dl__0x2A180_ci4_pal_rgba16
                0x00000000070955b0                jrb_dl__0x2A180_ci4_pal_rgba16_aligner
                0x00000000070955b8                jrb_dl__0x2A180_ci4
                0x0000000007095db8                jrb_dl__0x2A180_ci4_aligner
                0x0000000007095dc0                jrb_dl__3546416_ci4_pal_rgba16
                0x0000000007095de0                jrb_dl__3546416_ci4_pal_rgba16_aligner
                0x0000000007095de8                jrb_dl__3546416_ci4
                0x00000000070965e8                jrb_dl__3546416_ci4_aligner
                0x00000000070965f0                jrb_dl_GLME01_45dabbca_14ci4_ci4_pal_rgba16
                0x0000000007096610                jrb_dl_GLME01_45dabbca_14ci4_ci4_pal_rgba16_aligner
                0x0000000007096618                jrb_dl_GLME01_45dabbca_14ci4_ci4
                0x0000000007096e18                jrb_dl_GLME01_45dabbca_14ci4_ci4_aligner
                0x0000000007096e20                jrb_dl_sdagjllbroken_ci8_pal_rgba16
                0x0000000007097018                jrb_dl_sdagjllbroken_ci8_pal_rgba16_aligner
                0x0000000007097020                jrb_dl_sdagjllbroken_ci8
                0x0000000007097820                jrb_dl_sdagjllbroken_ci8_aligner
                0x0000000007097828                jrb_dl__0x10600_ia4
                0x0000000007098028                jrb_dl__0x10600_ia4_aligner
                0x0000000007098030                jrb_dl_sdagjll_ci8_pal_rgba16
                0x00000000070981d0                jrb_dl_sdagjll_ci8_pal_rgba16_aligner
                0x00000000070981d8                jrb_dl_sdagjll_ci8
                0x00000000070989d8                jrb_dl_sdagjll_ci8_aligner
                0x00000000070989e0                jrb_dl_woodX_ia8
                0x00000000070999e0                jrb_dl_woodX_ia8_aligner
                0x00000000070999e8                jrb_dl__0x188C0_ci8_pal_rgba16
                0x0000000007099a90                jrb_dl__0x188C0_ci8_pal_rgba16_aligner
                0x0000000007099a98                jrb_dl__0x188C0_ci8
                0x0000000007099e98                jrb_dl__0x188C0_ci8_aligner
                0x0000000007099ea0                jrb_dl__3716072_ci4_pal_rgba16
                0x0000000007099ec0                jrb_dl__3716072_ci4_pal_rgba16_aligner
                0x0000000007099ec8                jrb_dl__3716072_ci4
                0x000000000709a6c8                jrb_dl__3716072_ci4_aligner
                0x000000000709a6d0                jrb_dl_TNT_ia8
                0x000000000709aad0                jrb_dl_TNT_ia8_aligner
                0x000000000709aad8                jrb_dl_grandpa_boo_vci32__ci4_pal_rgba16
                0x000000000709aaf8                jrb_dl_grandpa_boo_vci32__ci4_pal_rgba16_aligner
                0x000000000709ab00                jrb_dl_grandpa_boo_vci32__ci4
                0x000000000709b300                jrb_dl_grandpa_boo_vci32__ci4_aligner
                0x000000000709b308                jrb_dl_nb_wood_cmb_ci8_pal_rgba16
                0x000000000709b448                jrb_dl_nb_wood_cmb_ci8_pal_rgba16_aligner
                0x000000000709b450                jrb_dl_nb_wood_cmb_ci8
                0x000000000709bc50                jrb_dl_nb_wood_cmb_ci8_aligner
                0x000000000709bc58                jrb_dl_cs_stone11_alb__2__ci8_pal_rgba16
                0x000000000709bcb0                jrb_dl_cs_stone11_alb__2__ci8_pal_rgba16_aligner
                0x000000000709bcb8                jrb_dl_cs_stone11_alb__2__ci8
                0x000000000709beb8                jrb_dl_cs_stone11_alb__2__ci8_aligner
                0x000000000709bec0                jrb_dl_isi_d_ci8_pal_rgba16
                0x000000000709bf38                jrb_dl_isi_d_ci8_pal_rgba16_aligner
                0x000000000709bf40                jrb_dl_isi_d_ci8
                0x000000000709c340                jrb_dl_isi_d_ci8_aligner
                0x000000000709c348                jrb_dl_hairal_saku_01_60280_ci4_pal_rgba16
                0x000000000709c368                jrb_dl_hairal_saku_01_60280_ci4_pal_rgba16_aligner
                0x000000000709c370                jrb_dl_hairal_saku_01_60280_ci4
                0x000000000709cb70                jrb_dl_hairal_saku_01_60280_ci4_aligner
                0x000000000709cb78                jrb_dl__45656786978645320Txo_ita3mai_ci4_pal_rgba16
                0x000000000709cb98                jrb_dl__45656786978645320Txo_ita3mai_ci4_pal_rgba16_aligner
                0x000000000709cba0                jrb_dl__45656786978645320Txo_ita3mai_ci4
                0x000000000709d3a0                jrb_dl__45656786978645320Txo_ita3mai_ci4_aligner
                0x000000000709d3a8                jrb_dl_bcjawretrsdfin_stone50_ci4_pal_rgba16
                0x000000000709d3c8                jrb_dl_bcjawretrsdfin_stone50_ci4_pal_rgba16_aligner
                0x000000000709d3d0                jrb_dl_bcjawretrsdfin_stone50_ci4
                0x000000000709dbd0                jrb_dl_bcjawretrsdfin_stone50_ci4_aligner
                0x000000000709dbd8                jrb_dl_E009C30_ci4_pal_rgba16
                0x000000000709dbf8                jrb_dl_E009C30_ci4_pal_rgba16_aligner
                0x000000000709dc00                jrb_dl_E009C30_ci4
                0x000000000709e400                jrb_dl_E009C30_ci4_aligner
                0x000000000709e408                jrb_dl_OSC_O_M_BARRISTA_ROPE_ci4_pal_rgba16
                0x000000000709e428                jrb_dl_OSC_O_M_BARRISTA_ROPE_ci4_pal_rgba16_aligner
                0x000000000709e430                jrb_dl_OSC_O_M_BARRISTA_ROPE_ci4
                0x000000000709ec30                jrb_dl_OSC_O_M_BARRISTA_ROPE_ci4_aligner
                0x000000000709ec38                jrb_dl_Texture0117_RGB_greyscale_i8_copy
                0x000000000709f038                jrb_dl_Texture0117_RGB_greyscale_i8_copy_aligner
                0x000000000709f040                jrb_dl_Texture0117_RGB_greyscale_i8
                0x000000000709f440                jrb_dl_Texture0117_RGB_greyscale_i8_aligner
                0x000000000709f448                jrb_dl__3434rfsfsdftuya_doukutu2_i8
                0x000000000709fc48                jrb_dl__3434rfsfsdftuya_doukutu2_i8_aligner
                0x000000000709fc50                jrb_dl__311AE0525B6022A7CE70D92EC5748D14__2__i4
                0x00000000070a0450                jrb_dl__311AE0525B6022A7CE70D92EC5748D14__2__i4_aligner
                0x00000000070a0458                jrb_dl_ki_yuka_ci4_pal_rgba16
                0x00000000070a0478                jrb_dl_ki_yuka_ci4_pal_rgba16_aligner
                0x00000000070a0480                jrb_dl_ki_yuka_ci4
                0x00000000070a0c80                jrb_dl_ki_yuka_ci4_aligner
                0x00000000070a0c88                jrb_dl_dg_dod_hasi_02_30380CI4_ci4_pal_rgba16
                0x00000000070a0ca8                jrb_dl_dg_dod_hasi_02_30380CI4_ci4_pal_rgba16_aligner
                0x00000000070a0cb0                jrb_dl_dg_dod_hasi_02_30380CI4_ci4
                0x00000000070a14b0                jrb_dl_dg_dod_hasi_02_30380CI4_ci4_aligner
                0x00000000070a14b8                jrb_dl_F301_6_ShipWood3_ci8_pal_rgba16
                0x00000000070a1520                jrb_dl_F301_6_ShipWood3_ci8_pal_rgba16_aligner
                0x00000000070a1528                jrb_dl_F301_6_ShipWood3_ci8
                0x00000000070a1d28                jrb_dl_F301_6_ShipWood3_ci8_aligner
                0x00000000070a1d30                jrb_dl_rtfjhchcvR_Gadhasira_G_i4
                0x00000000070a2d30                jrb_dl_rtfjhchcvR_Gadhasira_G_i4_aligner
                0x00000000070a2d38                jrb_dl_Bctrwi3_combinedI8_i4
                0x00000000070a3538                jrb_dl_Bctrwi3_combinedI8_i4_aligner
                0x00000000070a3540                jrb_dl_LEGORacers_BCABA69C_2_0_CD4D6167_ci_i4
                0x00000000070a3d40                jrb_dl_LEGORacers_BCABA69C_2_0_CD4D6167_ci_i4_aligner
                0x00000000070a3d48                jrb_dl_TR_senro01ci4mirror_ci4_pal_rgba16
                0x00000000070a3d68                jrb_dl_TR_senro01ci4mirror_ci4_pal_rgba16_aligner
                0x00000000070a3d70                jrb_dl_TR_senro01ci4mirror_ci4
                0x00000000070a4570                jrb_dl_TR_senro01ci4mirror_ci4_aligner
                0x00000000070a4578                jrb_dl_gry_wood_rail_bmp_ci4_pal_rgba16
                0x00000000070a4598                jrb_dl_gry_wood_rail_bmp_ci4_pal_rgba16_aligner
                0x00000000070a45a0                jrb_dl_gry_wood_rail_bmp_ci4
                0x00000000070a4da0                jrb_dl_gry_wood_rail_bmp_ci4_aligner
                0x00000000070a4da8                jrb_dl_book02_ai_alb_ci4_pal_rgba16
                0x00000000070a4dc0                jrb_dl_book02_ai_alb_ci4_pal_rgba16_aligner
                0x00000000070a4dc8                jrb_dl_book02_ai_alb_ci4
                0x00000000070a55c8                jrb_dl_book02_ai_alb_ci4_aligner
                0x00000000070a55d0                jrb_dl_OSC_O_J_WOODBOX01ci4mirrored_ci4_pal_rgba16
                0x00000000070a55f0                jrb_dl_OSC_O_J_WOODBOX01ci4mirrored_ci4_pal_rgba16_aligner
                0x00000000070a55f8                jrb_dl_OSC_O_J_WOODBOX01ci4mirrored_ci4
                0x00000000070a5df8                jrb_dl_OSC_O_J_WOODBOX01ci4mirrored_ci4_aligner
                0x00000000070a5e00                jrb_dl_sm64_material_003_lights
                0x00000000070a5e18                jrb_dl_sm64_material_111_v3_lights
                0x00000000070a5e30                jrb_dl_sm64_material_112_v3_lights
                0x00000000070a5e48                jrb_dl_sm64_material_122_v3_lights
                0x00000000070a5e60                jrb_dl_sm64_material_116_v3_lights
                0x00000000070a5e78                jrb_dl_sm64_material_117_v3_lights
                0x00000000070a5e90                jrb_dl_sm64_material_113_v3_lights
                0x00000000070a5ea8                jrb_dl_sm64_material_114_v3_lights
                0x00000000070a5ec0                jrb_dl_sm64_material_119_v3_lights
                0x00000000070a5ed8                jrb_dl_sm64_material_118_v3_lights
                0x00000000070a5ef0                jrb_dl_sm64_material_120_v3_lights
                0x00000000070a5f08                jrb_dl_f3d_material_004_lights
                0x00000000070a5f20                jrb_dl_sm64_material_105_v3_layer5_lights
                0x00000000070a5f38                jrb_dl_sm64_material_108_v3_layer1_lights
                0x00000000070a5f50                jrb_dl_sm64_material_005_v3_layer1_area7_lights
                0x00000000070a5f68                jrb_dl_sm64_material_109_v3_layer1_lights
                0x00000000070a5f80                jrb_dl_sm64_material_110_v3_layer1_lights
                0x00000000070a5f98                jrb_dl_sm64_material_107_v3_layer1_lights
                0x00000000070a5fb0                jrb_dl_sm64_material_104_v3_lights
                0x00000000070a5fc8                jrb_dl_sm64_material_103_v3_lights
                0x00000000070a5fe0                jrb_dl_sm64_material_097_v3_lights
                0x00000000070a5ff8                jrb_dl_sm64_material_094_v3_lights
                0x00000000070a6010                jrb_dl_sm64_material_095_v3_lights
                0x00000000070a6028                jrb_dl_sm64_material_092_v3_lights
                0x00000000070a6040                jrb_dl_sm64_material_093_v3_lights
                0x00000000070a6058                jrb_dl_sm64_material_089_v3_lights
                0x00000000070a6070                jrb_dl_sm64_material_090_v3_lights
                0x00000000070a6088                jrb_dl_sm64_material_088_v3_lights
                0x00000000070a60a0                jrb_dl_sm64_material_069_v3_lights
                0x00000000070a60b8                jrb_dl_sm64_material_070_v3_lights
                0x00000000070a60d0                jrb_dl_sm64_material_082_v3_lights
                0x00000000070a60e8                jrb_dl_sm64_material_065_v3_lights
                0x00000000070a6100                jrb_dl_sm64_material_074_v3_lights
                0x00000000070a6118                jrb_dl_sm64_material_075_v3_lights
                0x00000000070a6130                jrb_dl_sm64_material_078_v3_lights
                0x00000000070a6148                jrb_dl_sm64_material_077_v3_lights
                0x00000000070a6160                jrb_dl_sm64_material_076_v3_lights
                0x00000000070a6178                jrb_dl_sm64_material_068_v3_lights
                0x00000000070a6190                jrb_dl_sm64_material_066_v3_lights
                0x00000000070a61a8                jrb_dl_sm64_material_067_v3_lights
                0x00000000070a61c0                jrb_dl_Material_f3d_v3_lights
                0x00000000070a61d8                jrb_dl_Material_002_f3d_v3_lights
                0x00000000070a61f0                jrb_dl_Material_001_f3d_v3_lights
                0x00000000070a6208                jrb_dl_sm64_material_072_v3_lights
                0x00000000070a6220                jrb_dl_Tex_0008_0_f3d_v3_lights
                0x00000000070a6238                jrb_dl_actualCake_SG_f3d_v3_lights
                0x00000000070a6250                jrb_dl_cherryXstrawberry_SG_f3d_v3_lights
                0x00000000070a6268                jrb_dl_sm64_material_064_v3_lights
                0x00000000070a6280                jrb_dl_sm64_material_063_v3_lights
                0x00000000070a6298                jrb_dl_sm64_material_081_v3_lights
                0x00000000070a62b0                jrb_dl_sm64_material_080_v3_lights
                0x00000000070a62c8                jrb_dl_sm64_material_085_v3_lights
                0x00000000070a62e0                jrb_dl_sm64_material_084_v3_lights
                0x00000000070a62f8                jrb_dl_sm64_material_079_v3_lights
                0x00000000070a6310                jrb_dl_sm64_material_061_v3_lights
                0x00000000070a6328                jrb_dl_sm64_material_062_v3_lights
                0x00000000070a6340                jrb_dl_sm64_material_060_v3_lights
                0x00000000070a6358                jrb_dl_sm64_material_056_v3_lights
                0x00000000070a6370                jrb_dl_death_v3_lights
                0x00000000070a6388                jrb_dl_sm64_material_101_v3_lights
                0x00000000070a63a0                jrb_dl_sm64_material_099_v3_lights
                0x00000000070a63b8                jrb_dl_sm64_material_100_v3_lights
                0x00000000070a63d0                jrb_dl_sm64_material_102_v3_lights
                0x00000000070a63e8                jrb_dl_sm64_material_058_v3_lights
                0x00000000070a6400                jrb_dl_sm64_material_054_v3_lights
                0x00000000070a6418                jrb_dl_sm64_material_057_v3_lights
                0x00000000070a6430                jrb_dl_sm64_material_055_v3_lights
                0x00000000070a6448                jrb_dl_sm64_material_040_v3_layer1_area3_lights
                0x00000000070a6460                jrb_dl_sm64_material_027_v3_lights
                0x00000000070a6478                jrb_dl_sm64_material_026_v3_lights
                0x00000000070a6490                jrb_dl_f3d_material_003_lights
                0x00000000070a64a8                jrb_dl_sm64_material_025_v3_lights
                0x00000000070a64c0                jrb_dl_buttonanimation_lights
                0x00000000070a64d8                jrb_dl_sm64_material_048_v3_lights
                0x00000000070a64f0                jrb_dl_sm64_material_044_v3_lights
                0x00000000070a6508                jrb_dl_sm64_material_005_v3_layer1_area1_lights
                0x00000000070a6520                jrb_dl_sm64_material_045_v3_lights
                0x00000000070a6538                jrb_dl_sm64_material_052_v3_lights
                0x00000000070a6550                jrb_dl_sm64_material_050_v3_lights
                0x00000000070a6568                jrb_dl_sm64_material_043_v3_lights
                0x00000000070a6580                jrb_dl_sm64_material_049_v3_lights
                0x00000000070a6598                jrb_dl_sm64_material_047_v3_lights
                0x00000000070a65b0                jrb_dl_sm64_material_051_v3_lights
                0x00000000070a65c8                jrb_dl_sm64_material_091_v3_lights
                0x00000000070a65e0                jrb_dl_f3d_material_002_lights
                0x00000000070a65f8                jrb_dl_sm64_material_003_v3_lights
                0x00000000070a6610                jrb_dl_sm64_material_039_v3_lights
                0x00000000070a6628                jrb_dl_sm64_material_016_v3_lights
                0x00000000070a6640                jrb_dl_f3d_material_lights
                0x00000000070a6658                jrb_dl_sm64_material_020_v3_lights
                0x00000000070a6670                jrb_dl_sm64_material_018_v3_lights
                0x00000000070a6688                jrb_dl_sm64_material_019_v3_lights
                0x00000000070a66a0                jrb_dl_sm64_material_017_v3_lights
                0x00000000070a66b8                jrb_dl_sm64_material_013_v3_lights
                0x00000000070a66d0                jrb_dl_sm64_material_014_v3_lights
                0x00000000070a66e8                jrb_dl_sm64_material_012_v3_001_lights
                0x00000000070a6700                jrb_dl_sm64_material_009_v3_lights
                0x00000000070a6718                jrb_dl_sm64_material_010_v3_001_lights
                0x00000000070a6730                jrb_dl_sm64_material_007_v3_lights
                0x00000000070a6748                jrb_dl_sm64_material_002_v3_layer1_lights
                0x00000000070a6760                jrb_dl_sm64_material_001_v3_lights
                0x00000000070a6778                jrb_dl_sm64_material_015_v3_lights
                0x00000000070a6790                jrb_dl_sm64_material_086_v3_lights
                0x00000000070a67a8                jrb_dl_sm64_material_022_v3_lights
                0x00000000070a67c0                jrb_area_0_macro_objs
                0x00000000070a67c4                jrb_area_0_collision
                0x00000000070aaeac                jrb_area_7_macro_objs
                0x00000000070aaeb0                jrb_area_7_collision
                0x00000000070abacc                jrb_area_6_macro_objs
                0x00000000070abad0                jrb_area_6_collision
                0x00000000070ad004                jrb_area_5_macro_objs
                0x00000000070ad008                jrb_area_5_collision
                0x00000000070adbd4                jrb_area_4_macro_objs
                0x00000000070adbd8                jrb_area_4_collision
                0x00000000070aea68                jrb_area_3_macro_objs
                0x00000000070aea6c                jrb_area_3_collision
                0x00000000070af820                jrb_area_2_macro_objs
                0x00000000070af824                jrb_area_2_collision
                0x00000000070b1b98                jrb_area_1_spline_IntroCutscenePos_005
                0x00000000070b1ba8                jrb_area_1_spline_IntroCutscenePos_004
                0x00000000070b1bb8                jrb_area_1_spline_IntroCutscenePos_003
                0x00000000070b1bd8                jrb_area_1_spline_IntroCutscenePos_002
                0x00000000070b1bf0                jrb_area_1_spline_IntroCutscenePos_001
                0x00000000070b1c08                jrb_area_1_spline_IntroCutscenePos
                0x00000000070b1c20                jrb_area_1_spline_IntroCutsceneFoc_003
                0x00000000070b1c40                jrb_area_1_spline_IntroCutsceneFoc_002
                0x00000000070b1c58                jrb_area_1_spline_IntroCutsceneFoc_001
                0x00000000070b1c70                jrb_area_1_spline_IntroCutsceneFoc
                0x00000000070b1c88                jrb_area_1_macro_objs
                0x00000000070b1c8c                jrb_area_1_collision

.data1
 *(.data1)

.got.plt
 *(.got.plt)
                0x00000000070b5198                . = .
                0x00000000070bd190                _gp = (ALIGN (0x10) + 0x7ff0)

.got
 *(.got)

.sdata
 *(.sdata .sdata.* .gnu.linkonce.s.*)

.lit8
 *(.lit8)

.lit4
 *(.lit4)
                0x00000000070b5198                _edata = .
                [!provide]                        PROVIDE (edata = .)
                0x00000000070b5198                . = .
                0x00000000070b5198                __bss_start = .
                0x00000000070b5198                _fbss = .

.sbss
 *(.dynsbss)
 *(.sbss .sbss.* .gnu.linkonce.sb.*)
 *(.scommon)

.bss            0x00000000070b5198        0x0
 *(.dynbss)
 *(.bss .bss.* .gnu.linkonce.b.*)
 .bss           0x00000000070b5198        0x0 build/us/levels/jrb/leveldata.o
 *(COMMON)
                0x00000000070b5198                . = ALIGN ((. != 0x0)?0x4:0x1)
                0x00000000070b5198                . = ALIGN (0x4)
                0x00000000070b5198                . = SEGMENT_START ("ldata-segment", .)
                0x00000000070b5198                . = ALIGN (0x4)
                0x00000000070b5198                _end = .
                [!provide]                        PROVIDE (end = .)
                0x00000000070b5198                . = DATA_SEGMENT_END (.)

.stab
 *(.stab)

.stabstr
 *(.stabstr)

.stab.excl
 *(.stab.excl)

.stab.exclstr
 *(.stab.exclstr)

.stab.index
 *(.stab.index)

.stab.indexstr
 *(.stab.indexstr)

.comment        0x0000000000000000       0x12
 *(.comment)
 .comment       0x0000000000000000       0x12 build/us/levels/jrb/leveldata.o
                                         0x13 (size before relaxing)

.pdr            0x0000000000000000        0x0
 .pdr           0x0000000000000000        0x0 build/us/levels/jrb/leveldata.o

.gnu.build.attributes
 *(.gnu.build.attributes .gnu.build.attributes.*)

.debug
 *(.debug)

.line
 *(.line)

.debug_srcinfo
 *(.debug_srcinfo)

.debug_sfnames
 *(.debug_sfnames)

.debug_aranges
 *(.debug_aranges)

.debug_pubnames
 *(.debug_pubnames)

.debug_info
 *(.debug_info .gnu.linkonce.wi.*)

.debug_abbrev
 *(.debug_abbrev)

.debug_line
 *(.debug_line .debug_line.* .debug_line_end)

.debug_frame
 *(.debug_frame)

.debug_str
 *(.debug_str)

.debug_loc
 *(.debug_loc)

.debug_macinfo
 *(.debug_macinfo)

.debug_weaknames
 *(.debug_weaknames)

.debug_funcnames
 *(.debug_funcnames)

.debug_typenames
 *(.debug_typenames)

.debug_varnames
 *(.debug_varnames)

.debug_pubtypes
 *(.debug_pubtypes)

.debug_ranges
 *(.debug_ranges)

.debug_addr
 *(.debug_addr)

.debug_line_str
 *(.debug_line_str)

.debug_loclists
 *(.debug_loclists)

.debug_macro
 *(.debug_macro)

.debug_names
 *(.debug_names)

.debug_rnglists
 *(.debug_rnglists)

.debug_str_offsets
 *(.debug_str_offsets)

.debug_sup
 *(.debug_sup)

.gnu.attributes
                0x0000000000000000       0x10
 *(.gnu.attributes)
 .gnu.attributes
                0x0000000000000000       0x10 build/us/levels/jrb/leveldata.o

.gptab.sdata
 *(.gptab.data)
 *(.gptab.sdata)

.gptab.sbss
 *(.gptab.bss)
 *(.gptab.sbss)

.mdebug.abi32   0x0000000000000000        0x0
 *(.mdebug.abi32)
 .mdebug.abi32  0x0000000000000000        0x0 build/us/levels/jrb/leveldata.o

.mdebug.abiN32
 *(.mdebug.abiN32)

.mdebug.abi64
 *(.mdebug.abi64)

.mdebug.abiO64
 *(.mdebug.abiO64)

.mdebug.eabi32
 *(.mdebug.eabi32)

.mdebug.eabi64
 *(.mdebug.eabi64)

.gcc_compiled_long32
 *(.gcc_compiled_long32)

.gcc_compiled_long64
 *(.gcc_compiled_long64)

/DISCARD/
 *(.note.GNU-stack)
 *(.gnu_debuglink)
 *(.gnu.lto_*)
OUTPUT(build/us/levels/jrb/leveldata.elf elf32-bigmips)
