
Memory Configuration

Name             Origin             Length             Attributes
*default*        0x0000000000000000 0xffffffffffffffff

Linker script and memory map

Address of section .text set to 0x8000000
LOAD build/us/actors/common0.o
                [!provide]                        PROVIDE (__executable_start = SEGMENT_START ("text-segment", 0x400000))
                0x0000000000400000                . = SEGMENT_START ("text-segment", 0x400000)

.interp
 *(.interp)

.MIPS.abiflags  0x0000000000400000       0x18
 *(.MIPS.abiflags)
 .MIPS.abiflags
                0x0000000000400000       0x18 build/us/actors/common0.o

.reginfo        0x0000000000400018       0x18
 *(.reginfo)
 .reginfo       0x0000000000400018       0x18 build/us/actors/common0.o

.MIPS.xhash
 *(.MIPS.xhash)

.note.gnu.build-id
 *(.note.gnu.build-id)

.dynamic
 *(.dynamic)

.hash
 *(.hash)

.gnu.hash
 *(.gnu.hash)

.dynsym
 *(.dynsym)

.dynstr
 *(.dynstr)

.gnu.version
 *(.gnu.version)

.gnu.version_d
 *(.gnu.version_d)

.gnu.version_r
 *(.gnu.version_r)

.rel.dyn        0x0000000000400018        0x0
 *(.rel.init)
 *(.rel.text .rel.text.* .rel.gnu.linkonce.t.*)
 *(.rel.fini)
 *(.rel.rodata .rel.rodata.* .rel.gnu.linkonce.r.*)
 *(.rel.data.rel.ro .rel.data.rel.ro.* .rel.gnu.linkonce.d.rel.ro.*)
 *(.rel.data .rel.data.* .rel.gnu.linkonce.d.*)
 *(.rel.tdata .rel.tdata.* .rel.gnu.linkonce.td.*)
 *(.rel.tbss .rel.tbss.* .rel.gnu.linkonce.tb.*)
 *(.rel.ctors)
 *(.rel.dtors)
 *(.rel.got)
 *(.rel.dyn)
 .rel.dyn       0x0000000000400018        0x0 build/us/actors/common0.o
 *(.rel.sdata .rel.sdata.* .rel.gnu.linkonce.s.*)
 *(.rel.sbss .rel.sbss.* .rel.gnu.linkonce.sb.*)
 *(.rel.sdata2 .rel.sdata2.* .rel.gnu.linkonce.s2.*)
 *(.rel.sbss2 .rel.sbss2.* .rel.gnu.linkonce.sb2.*)
 *(.rel.bss .rel.bss.* .rel.gnu.linkonce.b.*)
                [!provide]                        PROVIDE (__rel_iplt_start = .)
 *(.rel.iplt)
                [!provide]                        PROVIDE (__rel_iplt_end = .)

.rela.dyn       0x0000000000400018        0x0
 *(.rela.init)
 *(.rela.text .rela.text.* .rela.gnu.linkonce.t.*)
 *(.rela.fini)
 *(.rela.rodata .rela.rodata.* .rela.gnu.linkonce.r.*)
 *(.rela.data .rela.data.* .rela.gnu.linkonce.d.*)
 *(.rela.tdata .rela.tdata.* .rela.gnu.linkonce.td.*)
 *(.rela.tbss .rela.tbss.* .rela.gnu.linkonce.tb.*)
 *(.rela.ctors)
 *(.rela.dtors)
 *(.rela.got)
 *(.rela.sdata .rela.sdata.* .rela.gnu.linkonce.s.*)
 *(.rela.sbss .rela.sbss.* .rela.gnu.linkonce.sb.*)
 *(.rela.sdata2 .rela.sdata2.* .rela.gnu.linkonce.s2.*)
 *(.rela.sbss2 .rela.sbss2.* .rela.gnu.linkonce.sb2.*)
 *(.rela.bss .rela.bss.* .rela.gnu.linkonce.b.*)
                [!provide]                        PROVIDE (__rela_iplt_start = .)
 *(.rela.iplt)
                [!provide]                        PROVIDE (__rela_iplt_end = .)

.rel.plt
 *(.rel.plt)

.rela.plt
 *(.rela.plt)

.init
 *(SORT_NONE(.init))

.plt
 *(.plt)

.iplt
 *(.iplt)

.text           0x0000000008000000        0x0
                0x0000000008000000                _ftext = .
 *(.text.unlikely .text.*_unlikely .text.unlikely.*)
 *(.text.exit .text.exit.*)
 *(.text.startup .text.startup.*)
 *(.text.hot .text.hot.*)
 *(SORT_BY_NAME(.text.sorted.*))
 *(.text .stub .text.* .gnu.linkonce.t.*)
 .text          0x0000000008000000        0x0 build/us/actors/common0.o
 *(.gnu.warning)
 *(.mips16.fn.*)
 *(.mips16.call.*)

.fini
 *(SORT_NONE(.fini))
                [!provide]                        PROVIDE (__etext = .)
                [!provide]                        PROVIDE (_etext = .)
                [!provide]                        PROVIDE (etext = .)

.rodata
 *(.rodata .rodata.* .gnu.linkonce.r.*)

.rodata1
 *(.rodata1)

.sdata2
 *(.sdata2 .sdata2.* .gnu.linkonce.s2.*)

.sbss2
 *(.sbss2 .sbss2.* .gnu.linkonce.sb2.*)

.eh_frame_hdr
 *(.eh_frame_hdr)
 *(.eh_frame_entry .eh_frame_entry.*)

.eh_frame
 *(.eh_frame)
 *(.eh_frame.*)

.gcc_except_table
 *(.gcc_except_table .gcc_except_table.*)

.gnu_extab
 *(.gnu_extab*)

.exception_ranges
 *(.exception_ranges*)
                0x0000000008000000                . = DATA_SEGMENT_ALIGN (CONSTANT (MAXPAGESIZE), CONSTANT (COMMONPAGESIZE))

.eh_frame
 *(.eh_frame)
 *(.eh_frame.*)

.gnu_extab
 *(.gnu_extab)

.gcc_except_table
 *(.gcc_except_table .gcc_except_table.*)

.exception_ranges
 *(.exception_ranges*)

.tdata          0x0000000008000000        0x0
                [!provide]                        PROVIDE (__tdata_start = .)
 *(.tdata .tdata.* .gnu.linkonce.td.*)

.tbss
 *(.tbss .tbss.* .gnu.linkonce.tb.*)
 *(.tcommon)

.preinit_array  0x0000000008000000        0x0
                [!provide]                        PROVIDE (__preinit_array_start = .)
 *(.preinit_array)
                [!provide]                        PROVIDE (__preinit_array_end = .)

.init_array     0x0000000008000000        0x0
                [!provide]                        PROVIDE (__init_array_start = .)
 *(SORT_BY_INIT_PRIORITY(.init_array.*) SORT_BY_INIT_PRIORITY(.ctors.*))
 *(.init_array EXCLUDE_FILE(*crtend?.o *crtend.o *crtbegin?.o *crtbegin.o) .ctors)
                [!provide]                        PROVIDE (__init_array_end = .)

.fini_array     0x0000000008000000        0x0
                [!provide]                        PROVIDE (__fini_array_start = .)
 *(SORT_BY_INIT_PRIORITY(.fini_array.*) SORT_BY_INIT_PRIORITY(.dtors.*))
 *(.fini_array EXCLUDE_FILE(*crtend?.o *crtend.o *crtbegin?.o *crtbegin.o) .dtors)
                [!provide]                        PROVIDE (__fini_array_end = .)

.ctors
 *crtbegin.o(.ctors)
 *crtbegin?.o(.ctors)
 *(EXCLUDE_FILE(*crtend?.o *crtend.o) .ctors)
 *(SORT_BY_NAME(.ctors.*))
 *(.ctors)

.dtors
 *crtbegin.o(.dtors)
 *crtbegin?.o(.dtors)
 *(EXCLUDE_FILE(*crtend?.o *crtend.o) .dtors)
 *(SORT_BY_NAME(.dtors.*))
 *(.dtors)

.jcr
 *(.jcr)

.data.rel.ro
 *(.data.rel.ro.local* .gnu.linkonce.d.rel.ro.local.*)
 *(.data.rel.ro .data.rel.ro.* .gnu.linkonce.d.rel.ro.*)
                0x0000000008000000                . = DATA_SEGMENT_RELRO_END (., 0x0)

.data           0x0000000008000000    0x32dd8
                0x0000000008000000                _fdata = .
 *(.data .data.* .gnu.linkonce.d.*)
 .data          0x0000000008000000    0x32dd8 build/us/actors/common0.o
                0x0000000008000000                grasshopper_material_revert_render_settings
                0x0000000008000040                grasshopper_Bone_001_mesh_layer_4_mat_override_f3d_material_005_0
                0x0000000008000060                grasshopper_Bone_001_mesh_layer_4
                0x0000000008000080                mat_revert_grasshopper_f3d_material_005
                0x00000000080000a0                mat_grasshopper_f3d_material_005
                0x0000000008000158                mat_revert_grasshopper_f3d_material_004
                0x0000000008000178                mat_grasshopper_f3d_material_004
                0x0000000008000230                grasshopper_Bone_001_mesh_layer_4_tri_0
                0x0000000008000250                grasshopper_Bone_001_mesh_layer_4_vtx_0
                0x00000000080002d0                grasshopper_Grasshopper_Hop_ci4_pal_rgba16
                0x00000000080002e0                grasshopper_Grasshopper_Hop_ci4_pal_rgba16_aligner
                0x00000000080002e8                grasshopper_Grasshopper_Hop_ci4
                0x0000000008000368                grasshopper_Grasshopper_Hop_ci4_aligner
                0x0000000008000370                grasshopper_Grasshopper_ci4_pal_rgba16
                0x0000000008000380                grasshopper_Grasshopper_ci4_pal_rgba16_aligner
                0x0000000008000388                grasshopper_Grasshopper_ci4
                0x0000000008000408                grasshopper_Grasshopper_ci4_aligner
                0x0000000008000410                grasshopper_f3d_material_005_lights
                0x0000000008000428                grasshopper_f3d_material_004_lights
                0x0000000008000440                spider_material_revert_render_settings
                0x0000000008000480                spider_Bone_001_mesh_layer_4_mat_override_f3d_material_008_3
                0x00000000080004a0                spider_Bone_001_mesh_layer_4_mat_override_f3d_material_007_2
                0x00000000080004c0                spider_Bone_001_mesh_layer_4_mat_override_f3d_material_006_1
                0x00000000080004e0                spider_Bone_001_mesh_layer_4_mat_override_f3d_material_005_0
                0x0000000008000500                spider_Bone_001_mesh_layer_4
                0x0000000008000520                mat_revert_spider_f3d_material_008
                0x0000000008000548                mat_spider_f3d_material_008
                0x0000000008000608                mat_revert_spider_f3d_material_007
                0x0000000008000630                mat_spider_f3d_material_007
                0x00000000080006f0                mat_revert_spider_f3d_material_006
                0x0000000008000718                mat_spider_f3d_material_006
                0x00000000080007d8                mat_revert_spider_f3d_material_005
                0x0000000008000800                mat_spider_f3d_material_005
                0x00000000080008c0                mat_revert_spider_f3d_material_004
                0x00000000080008e8                mat_spider_f3d_material_004
                0x00000000080009a8                spider_Bone_001_mesh_layer_4_tri_0
                0x00000000080009c0                spider_Bone_001_mesh_layer_4_vtx_0
                0x0000000008000a00                spider_frame5_ci4_pal_rgba16
                0x0000000008000a10                spider_frame5_ci4_pal_rgba16_aligner
                0x0000000008000a18                spider_frame5_ci4
                0x0000000008000a98                spider_frame5_ci4_aligner
                0x0000000008000aa0                spider_frame4_ci4_pal_rgba16
                0x0000000008000ab0                spider_frame4_ci4_pal_rgba16_aligner
                0x0000000008000ab8                spider_frame4_ci4
                0x0000000008000b38                spider_frame4_ci4_aligner
                0x0000000008000b40                spider_frame3_ci4_pal_rgba16
                0x0000000008000b50                spider_frame3_ci4_pal_rgba16_aligner
                0x0000000008000b58                spider_frame3_ci4
                0x0000000008000bd8                spider_frame3_ci4_aligner
                0x0000000008000be0                spider_frame2_ci4_pal_rgba16
                0x0000000008000bf0                spider_frame2_ci4_pal_rgba16_aligner
                0x0000000008000bf8                spider_frame2_ci4
                0x0000000008000c78                spider_frame2_ci4_aligner
                0x0000000008000c80                spider_frame1_ci4_pal_rgba16
                0x0000000008000c90                spider_frame1_ci4_pal_rgba16_aligner
                0x0000000008000c98                spider_frame1_ci4
                0x0000000008000d18                spider_frame1_ci4_aligner
                0x0000000008000d20                spider_f3d_material_008_lights
                0x0000000008000d38                spider_f3d_material_007_lights
                0x0000000008000d50                spider_f3d_material_006_lights
                0x0000000008000d68                spider_f3d_material_005_lights
                0x0000000008000d80                spider_f3d_material_004_lights
                0x0000000008000d98                birdRed_material_revert_render_settings
                0x0000000008000dd8                birdRed_bird_r_mesh_layer_1
                0x0000000008000df8                birdRed_bird_l_mesh_layer_1
                0x0000000008000e18                birdRed_Bone_mesh_layer_1
                0x0000000008000e70                mat_revert_birdRed_f3d_material_003
                0x0000000008000e88                mat_birdRed_f3d_material_003
                0x0000000008000ec8                mat_birdRed_f3d_material_001
                0x0000000008000f00                mat_birdRed_f3d_material
                0x0000000008000f38                mat_revert_birdRed_f3d_material_002
                0x0000000008000f50                mat_birdRed_f3d_material_002
                0x0000000008000fd0                birdRed_bird_r_mesh_layer_1_tri_0
                0x0000000008000fe8                birdRed_bird_r_mesh_layer_1_vtx_0
                0x0000000008001028                birdRed_bird_l_mesh_layer_1_tri_0
                0x0000000008001040                birdRed_bird_l_mesh_layer_1_vtx_0
                0x0000000008001080                birdRed_Bone_mesh_layer_1_tri_3
                0x00000000080010e0                birdRed_Bone_mesh_layer_1_vtx_3
                0x0000000008001440                birdRed_Bone_mesh_layer_1_tri_2
                0x0000000008001460                birdRed_Bone_mesh_layer_1_vtx_2
                0x00000000080014a0                birdRed_Bone_mesh_layer_1_tri_1
                0x00000000080014d0                birdRed_Bone_mesh_layer_1_vtx_1
                0x0000000008001550                birdRed_Bone_mesh_layer_1_tri_0
                0x00000000080015a8                birdRed_Bone_mesh_layer_1_vtx_0
                0x0000000008001738                birdRed_unnamed_ia4
                0x0000000008001778                birdRed_unnamed_ia4_aligner
                0x0000000008001780                birdRed_f3d_material_003_lights
                0x0000000008001798                birdRed_f3d_material_001_lights
                0x00000000080017b0                birdRed_f3d_material_lights
                0x00000000080017c8                birdRed_f3d_material_002_lights
                0x00000000080017e0                birds_seg5_anims_050009E8
                0x0000000008001e40                bird_material_revert_render_settings
                0x0000000008001e80                bird_bird_r_mesh_layer_1
                0x0000000008001ea0                bird_bird_l_mesh_layer_1
                0x0000000008001ec0                bird_Bone_mesh_layer_1
                0x0000000008001f18                mat_revert_bird_f3d_material_003
                0x0000000008001f30                mat_bird_f3d_material_003
                0x0000000008001f70                mat_bird_f3d_material_001
                0x0000000008001fa8                mat_bird_f3d_material
                0x0000000008001fe0                mat_revert_bird_f3d_material_002
                0x0000000008001ff8                mat_bird_f3d_material_002
                0x0000000008002078                bird_bird_r_mesh_layer_1_tri_0
                0x0000000008002090                bird_bird_r_mesh_layer_1_vtx_0
                0x00000000080020d0                bird_bird_l_mesh_layer_1_tri_0
                0x00000000080020e8                bird_bird_l_mesh_layer_1_vtx_0
                0x0000000008002128                bird_Bone_mesh_layer_1_tri_3
                0x0000000008002188                bird_Bone_mesh_layer_1_vtx_3
                0x00000000080024e8                bird_Bone_mesh_layer_1_tri_2
                0x0000000008002508                bird_Bone_mesh_layer_1_vtx_2
                0x0000000008002548                bird_Bone_mesh_layer_1_tri_1
                0x0000000008002578                bird_Bone_mesh_layer_1_vtx_1
                0x00000000080025f8                bird_Bone_mesh_layer_1_tri_0
                0x0000000008002650                bird_Bone_mesh_layer_1_vtx_0
                0x00000000080027e0                bird_unnamed_ia4
                0x0000000008002820                bird_unnamed_ia4_aligner
                0x0000000008002828                bird_f3d_material_003_lights
                0x0000000008002840                bird_f3d_material_001_lights
                0x0000000008002858                bird_f3d_material_lights
                0x0000000008002870                bird_f3d_material_002_lights
                0x0000000008002888                koopa_shell_seg8_dl_08028B78
                0x00000000080028f8                koopa_shell_seg8_dl_08028A20
                0x00000000080029d0                koopa_shell_seg8_dl_08028978
                0x0000000008002a38                koopa_shell_seg8_dl_080288E0
                0x0000000008003f10                koopa_shell_seg8_dl_08027420
                0x0000000008003f60                koopa_shell_seg8_dl_080273C8
                0x0000000008003fb8                koopa_shell_seg8_dl_08027258
                0x00000000080040b0                koopa_shell_seg8_dl_08027170
                0x0000000008004150                koopa_shell_seg8_dl_08027108
                0x0000000008004f18                unknown_seg8_collision_080262F8
                0x0000000008004fa8                unknown_seg8_dl_08026260
                0x0000000008005270                exclamation_box_outline_seg8_collision_08025F78
                0x0000000008005300                exclamation_box_outline_seg8_dl_08025F08
                0x0000000008005370                exclamation_box_outline_seg8_dl_08025EC0
                0x0000000008005808                exclamation_box_outline_seg8_dl_080259F8
                0x0000000008005878                exclamation_box_outline_seg8_dl_08025968
                0x0000000008006238                exclamation_box_outline_seg8_dl_08024FE86
                0x0000000008006258                exclamation_box_outline_seg8_dl_08024FE85
                0x0000000008006278                exclamation_box_outline_seg8_dl_08024FE84
                0x0000000008006298                exclamation_box_outline_seg8_dl_08024FE8
                0x00000000080062b8                exclamation_box_outline_seg8_dl_08024FC8
                0x00000000080062d8                exclamation_box_outline_seg8_dl_08024FA8
                0x00000000080062f8                exclamation_box_outline_seg8_dl_08024F88
                0x0000000008006318                exclamation_box_outline_seg8_dl_08024F58
                0x0000000008006348                exclamation_box_outline_seg8_dl_08024F30
                0x0000000008006370                exclamation_box_outline_seg8_dl_08024EB8
                0x0000000008006608                metal_box_seg8_collision_08024C28
                0x0000000008006698                metal_box_dl
                0x0000000008006708                metal_box_seg8_dl_08024B18
                0x0000000008007910                bobomb_seg8_anims_0802396C
                0x0000000008007d60                bobomb_seg8_dl_08023480
                0x0000000008007dc8                bobomb_seg8_dl_08023378
                0x0000000008007e60                bobomb_seg8_dl_08023270
                0x0000000008008368                bobomb_seg8_dl_08022D78
                0x00000000080083d8                bobomb_seg8_dl_08022D08
                0x0000000008008448                bobomb_seg8_dl_08022CA0
                0x00000000080084a0                bobomb_seg8_dl_08022C38
                0x0000000008008578                bobomb_seg8_dl_08022B88
                0x00000000080085a8                bobomb_seg8_dl_08022B58
                0x00000000080085d8                bobomb_seg8_dl_08022B08
                0x0000000008008618                bobomb_seg8_dl_08022AC0
                0x000000000800d6c0                goomba_seg8_anims_0801DA4C
                0x000000000800e6d0                goomba_material_revert_render_settings
                0x000000000800e720                goomba_000_offset_004_mesh
                0x000000000800e738                goomba_000_offset_003_mesh
                0x000000000800e750                goomba_000_offset_002_mesh_mat_override_sm64_material_006_0
                0x000000000800e778                goomba_000_offset_002_mesh
                0x000000000800e7a0                goomba_000_displaylist_meshINVERT
                0x000000000800e7d0                goomba_000_displaylist_mesh
                0x000000000800e7f0                mat_goomba_sm64_material_005
                0x000000000800e828                mat_goomba_sm64_material_006
                0x000000000800e8a0                mat_goomba_g002m00_png_f3d
                0x000000000800e918                mat_goomba_g002m004_png_f3d
                0x000000000800e990                mat_revert_goomba_sm64_material_007
                0x000000000800e9a8                mat_goomba_sm64_material_007
                0x000000000800ea28                goomba_000_offset_004_mesh_tri_0
                0x000000000800ea90                goomba_000_offset_004_mesh_vtx_0
                0x000000000800eb60                goomba_000_offset_003_mesh_tri_0
                0x000000000800ebc8                goomba_000_offset_003_mesh_vtx_0
                0x000000000800ec98                goomba_000_offset_002_mesh_tri_1
                0x000000000800ed98                goomba_000_offset_002_mesh_vtx_1
                0x000000000800ef98                goomba_000_offset_002_mesh_tri_0
                0x000000000800efb0                goomba_000_offset_002_mesh_vtx_0
                0x000000000800f010                goomba_000_displaylist_mesh_tri_0
                0x000000000800f028                goomba_000_displaylist_mesh_vtx_0
                0x000000000800f058                goomba_g002m00closed_rgba16
                0x0000000008010058                goomba_g002m00closed_rgba16_aligner
                0x0000000008010060                goomba_g002m00_rgba16
                0x0000000008011060                goomba_g002m00_rgba16_aligner
                0x0000000008011068                goomba_g002m004_ia4
                0x0000000008011868                goomba_g002m004_ia4_aligner
                0x0000000008011870                goomba_SUPER_MARIO_64_FD83B121_0_2_all_ia8
                0x0000000008012870                goomba_SUPER_MARIO_64_FD83B121_0_2_all_ia8_aligner
                0x0000000008012878                goomba_sm64_material_005_lights
                0x0000000008012890                goomba_sm64_material_006_lights
                0x00000000080128a8                goomba_g002m00_png_f3d_lights
                0x00000000080128c0                goomba_g002m004_png_f3d_lights
                0x00000000080128d8                goomba_sm64_material_007_lights
                0x00000000080128f0                goombaeyeopenblue
                0x00000000080138f0                goombaeyeclosedblue
                0x00000000080148f0                exclamation_box_seg8_dl_080194386
                0x0000000008014958                exclamation_box_seg8_dl_080194385
                0x00000000080149b8                exclamation_box_seg8_dl_080194384
                0x0000000008014a18                exclamation_box_seg8_dl_08019438
                0x0000000008014a78                exclamation_box_seg8_dl_080193D8
                0x0000000008014ae8                exclamation_box_seg8_dl_08019378
                0x0000000008014b48                exclamation_box_seg8_dl_08019318
                0x0000000008014bb8                exclamation_box_seg8_dl_080192D0
                0x0000000008014c00                exclamation_box_seg8_dl_08019280
                0x0000000008014c40                exclamation_box_seg8_dl_08019220
                0x0000000008014e00                exclamation_box_seg8_dl_08019058
                0x0000000008014e48                exclamation_box_seg8_dl_08019008
                0x0000000008014e88                exclamation_box_seg8_dl_08018FA8
                0x000000000801f860                breakable_box_seg8_collision_08012D70
                0x000000000801f8f0                breakable_box_seg8_dl_08012D48
                0x000000000801f918                breakable_box_seg8_dl_08012D20
                0x000000000801f940                breakable_box_seg8_dl_08012CD8
                0x000000000801f988                breakable_box_seg8_dl_08012C30
                0x0000000008020bc0                flyguy_seg8_anims_08011A64
                0x0000000008020e98                flyguy_seg8_dl_08011710
                0x0000000008020f20                flyguy_seg8_dl_080116D0
                0x0000000008020f50                flyguy_seg8_dl_08011420
                0x00000000080210f8                flyguy_seg8_dl_080113A8
                0x0000000008021908                flyguy_seg8_dl_08010B80
                0x0000000008021978                flyguy_seg8_dl_08010B38
                0x0000000008021a10                flyguy_seg8_dl_08010A90
                0x0000000008021a48                flyguy_seg8_dl_08010968
                0x0000000008021b00                flyguy_seg8_dl_08010840
                0x00000000080242f8                heart_seg8_dl_0800DFE0
                0x0000000008024bc8                checkerboard_platform_seg8_collision_0800D710
                0x0000000008024c58                checkerboard_platform_seg8_dl_0800D680
                0x0000000008024ce8                checkerboard_platform_seg8_dl_0800D618
                0x0000000008024d30                checkerboard_platform_seg8_dl_0800D5C0
                0x0000000008025b10                purple_switch_seg8_collision_0800C7A8
                0x0000000008025b90                purple_switch_seg8_dl_0800C718
                0x0000000008025c20                purple_switch_seg8_dl_0800C6E0
                0x0000000008025c50                purple_switch_seg8_dl_0800C668
                0x0000000008026280                chuckya_seg8_anims_0800C070
                0x00000000080276f0                chuckya_seg8_dl_0800ABE8
                0x0000000008027720                chuckya_seg8_dl_0800AB70
                0x0000000008027930                chuckya_seg8_dl_0800A998
                0x0000000008027950                chuckya_seg8_dl_0800A958
                0x00000000080279e8                chuckya_seg8_dl_0800A8D0
                0x0000000008027a08                chuckya_seg8_dl_0800A870
                0x0000000008027af0                chuckya_seg8_dl_0800A758
                0x0000000008027b60                chuckya_seg8_dl_0800A700
                0x0000000008027c40                chuckya_seg8_dl_0800A5F8
                0x0000000008027cb0                chuckya_seg8_dl_0800A5C0
                0x0000000008027d20                chuckya_seg8_dl_0800A510
                0x0000000008027d90                chuckya_seg8_dl_0800A4D8
                0x0000000008027e00                chuckya_seg8_dl_0800A428
                0x0000000008027e70                chuckya_seg8_dl_0800A3F0
                0x0000000008027ee0                chuckya_seg8_dl_0800A338
                0x0000000008027f58                chuckya_seg8_dl_0800A300
                0x0000000008027f88                chuckya_seg8_dl_0800A2C8
                0x0000000008028038                chuckya_seg8_dl_0800A1D0
                0x00000000080280b0                chuckya_seg8_dl_0800A198
                0x00000000080280e0                chuckya_seg8_dl_0800A160
                0x0000000008028190                chuckya_seg8_dl_0800A068
                0x0000000008028208                chuckya_seg8_dl_0800A030
                0x0000000008028238                chuckya_seg8_dl_08009FF8
                0x000000000802bae8                cannon_barrel_seg8_dl_08006660
                0x000000000802bb50                cannon_barrel_seg8_dl_080064C0
                0x000000000802bc40                cannon_barrel_seg8_dl_08006408
                0x000000000802c848                cannon_base_seg8_dl_080057F8
                0x000000000802c8c0                cannon_base_seg8_dl_080056D0
                0x000000000802c978                cannon_base_seg8_dl_08005658
                0x000000000802d6a0                cannon_lid_seg8_collision_08004950
                0x000000000802d6d8                cannon_lid_seg8_dl_080048E0
                0x000000000802d748                cannon_lid_seg8_dl_08004898
                0x000000000802dfe0                amp_seg8_anims_08004034
                0x000000000802e1e8                amp_seg8_dl_08003E00
                0x000000000802e210                amp_seg8_dl_08003DD8
                0x000000000802e238                amp_seg8_dl_08003DA8
                0x000000000802e260                amp_seg8_dl_080039D0
                0x000000000802e478                amp_seg8_dl_080039A0
                0x000000000802e4a0                amp_seg8_dl_08003970
                0x000000000802e4c8                amp_seg8_dl_08003940
                0x000000000802e4f0                amp_seg8_dl_08003910
                0x000000000802ef60                amp_seg8_dl_08002E58
                0x000000000802efd0                amp_seg8_dl_08002E20
                0x000000000802f040                amp_seg8_dl_08002D70
                0x000000000802f0b0                amp_seg8_dl_08002D38
                0x000000000802f120                amp_seg8_dl_08002C88
                0x000000000802f190                amp_seg8_dl_08002C50
                0x000000000802f200                amp_seg8_dl_08002BA0
                0x000000000802f270                amp_seg8_dl_08002B68
                0x0000000008030ef0                blue_coin_switch_collision
                0x0000000008030fe8                blue_coin_switch_material_revert_render_settings
                0x0000000008031028                blue_coin_switch_Plane_mesh_layer_1
                0x0000000008031080                mat_revert_blue_coin_switch_f3d_material_007
                0x00000000080310a0                mat_blue_coin_switch_f3d_material_007
                0x0000000008031158                mat_revert_blue_coin_switch_f3d_material_006
                0x0000000008031170                mat_blue_coin_switch_f3d_material_006
                0x00000000080311f0                blue_coin_switch_Plane_mesh_layer_1_tri_1
                0x0000000008031218                blue_coin_switch_Plane_mesh_layer_1_vtx_1
                0x0000000008031298                blue_coin_switch_Plane_mesh_layer_1_tri_0
                0x00000000080312e8                blue_coin_switch_Plane_mesh_layer_1_vtx_0
                0x0000000008031408                blue_coin_switch_Plane_mesh_layer_1_vtx_cull
                0x0000000008031488                blue_coin_switch_RMGP01_ea75dad0_14_ci8_pal_rgba16
                0x0000000008031590                blue_coin_switch_RMGP01_ea75dad0_14_ci8_pal_rgba16_aligner
                0x0000000008031598                blue_coin_switch_RMGP01_ea75dad0_14_ci8
                0x0000000008031d98                blue_coin_switch_RMGP01_ea75dad0_14_ci8_aligner
                0x0000000008031da0                blue_coin_switch_KKIIDDZZ_DAT_1714__p00_i8
                0x0000000008032da0                blue_coin_switch_KKIIDDZZ_DAT_1714__p00_i8_aligner
                0x0000000008032da8                blue_coin_switch_f3d_material_007_lights
                0x0000000008032dc0                blue_coin_switch_f3d_material_006_lights

.data1
 *(.data1)

.got.plt
 *(.got.plt)
                0x0000000008032dd8                . = .
                0x000000000803add0                _gp = (ALIGN (0x10) + 0x7ff0)

.got
 *(.got)

.sdata
 *(.sdata .sdata.* .gnu.linkonce.s.*)

.lit8
 *(.lit8)

.lit4
 *(.lit4)
                0x0000000008032dd8                _edata = .
                [!provide]                        PROVIDE (edata = .)
                0x0000000008032dd8                . = .
                0x0000000008032dd8                __bss_start = .
                0x0000000008032dd8                _fbss = .

.sbss
 *(.dynsbss)
 *(.sbss .sbss.* .gnu.linkonce.sb.*)
 *(.scommon)

.bss            0x0000000008032dd8        0x0
 *(.dynbss)
 *(.bss .bss.* .gnu.linkonce.b.*)
 .bss           0x0000000008032dd8        0x0 build/us/actors/common0.o
 *(COMMON)
                0x0000000008032dd8                . = ALIGN ((. != 0x0)?0x4:0x1)
                0x0000000008032dd8                . = ALIGN (0x4)
                0x0000000008032dd8                . = SEGMENT_START ("ldata-segment", .)
                0x0000000008032dd8                . = ALIGN (0x4)
                0x0000000008032dd8                _end = .
                [!provide]                        PROVIDE (end = .)
                0x0000000008032dd8                . = DATA_SEGMENT_END (.)

.stab
 *(.stab)

.stabstr
 *(.stabstr)

.stab.excl
 *(.stab.excl)

.stab.exclstr
 *(.stab.exclstr)

.stab.index
 *(.stab.index)

.stab.indexstr
 *(.stab.indexstr)

.comment        0x0000000000000000       0x12
 *(.comment)
 .comment       0x0000000000000000       0x12 build/us/actors/common0.o
                                         0x13 (size before relaxing)

.pdr            0x0000000000000000        0x0
 .pdr           0x0000000000000000        0x0 build/us/actors/common0.o

.gnu.build.attributes
 *(.gnu.build.attributes .gnu.build.attributes.*)

.debug
 *(.debug)

.line
 *(.line)

.debug_srcinfo
 *(.debug_srcinfo)

.debug_sfnames
 *(.debug_sfnames)

.debug_aranges
 *(.debug_aranges)

.debug_pubnames
 *(.debug_pubnames)

.debug_info
 *(.debug_info .gnu.linkonce.wi.*)

.debug_abbrev
 *(.debug_abbrev)

.debug_line
 *(.debug_line .debug_line.* .debug_line_end)

.debug_frame
 *(.debug_frame)

.debug_str
 *(.debug_str)

.debug_loc
 *(.debug_loc)

.debug_macinfo
 *(.debug_macinfo)

.debug_weaknames
 *(.debug_weaknames)

.debug_funcnames
 *(.debug_funcnames)

.debug_typenames
 *(.debug_typenames)

.debug_varnames
 *(.debug_varnames)

.debug_pubtypes
 *(.debug_pubtypes)

.debug_ranges
 *(.debug_ranges)

.debug_addr
 *(.debug_addr)

.debug_line_str
 *(.debug_line_str)

.debug_loclists
 *(.debug_loclists)

.debug_macro
 *(.debug_macro)

.debug_names
 *(.debug_names)

.debug_rnglists
 *(.debug_rnglists)

.debug_str_offsets
 *(.debug_str_offsets)

.debug_sup
 *(.debug_sup)

.gnu.attributes
                0x0000000000000000       0x10
 *(.gnu.attributes)
 .gnu.attributes
                0x0000000000000000       0x10 build/us/actors/common0.o

.gptab.sdata
 *(.gptab.data)
 *(.gptab.sdata)

.gptab.sbss
 *(.gptab.bss)
 *(.gptab.sbss)

.mdebug.abi32   0x0000000000000000        0x0
 *(.mdebug.abi32)
 .mdebug.abi32  0x0000000000000000        0x0 build/us/actors/common0.o

.mdebug.abiN32
 *(.mdebug.abiN32)

.mdebug.abi64
 *(.mdebug.abi64)

.mdebug.abiO64
 *(.mdebug.abiO64)

.mdebug.eabi32
 *(.mdebug.eabi32)

.mdebug.eabi64
 *(.mdebug.eabi64)

.gcc_compiled_long32
 *(.gcc_compiled_long32)

.gcc_compiled_long64
 *(.gcc_compiled_long64)

/DISCARD/
 *(.note.GNU-stack)
 *(.gnu_debuglink)
 *(.gnu.lto_*)
OUTPUT(build/us/actors/common0.elf elf32-bigmips)
