
Memory Configuration

Name             Origin             Length             Attributes
*default*        0x0000000000000000 0xffffffffffffffff

Linker script and memory map

Address of section .text set to 0x4000000
LOAD build/us/actors/group0.o
                [!provide]                        PROVIDE (__executable_start = SEGMENT_START ("text-segment", 0x400000))
                0x0000000000400000                . = SEGMENT_START ("text-segment", 0x400000)

.interp
 *(.interp)

.MIPS.abiflags  0x0000000000400000       0x18
 *(.MIPS.abiflags)
 .MIPS.abiflags
                0x0000000000400000       0x18 build/us/actors/group0.o

.reginfo        0x0000000000400018       0x18
 *(.reginfo)
 .reginfo       0x0000000000400018       0x18 build/us/actors/group0.o

.MIPS.xhash
 *(.MIPS.xhash)

.note.gnu.build-id
 *(.note.gnu.build-id)

.dynamic
 *(.dynamic)

.hash
 *(.hash)

.gnu.hash
 *(.gnu.hash)

.dynsym
 *(.dynsym)

.dynstr
 *(.dynstr)

.gnu.version
 *(.gnu.version)

.gnu.version_d
 *(.gnu.version_d)

.gnu.version_r
 *(.gnu.version_r)

.rel.dyn        0x0000000000400018        0x0
 *(.rel.init)
 *(.rel.text .rel.text.* .rel.gnu.linkonce.t.*)
 *(.rel.fini)
 *(.rel.rodata .rel.rodata.* .rel.gnu.linkonce.r.*)
 *(.rel.data.rel.ro .rel.data.rel.ro.* .rel.gnu.linkonce.d.rel.ro.*)
 *(.rel.data .rel.data.* .rel.gnu.linkonce.d.*)
 *(.rel.tdata .rel.tdata.* .rel.gnu.linkonce.td.*)
 *(.rel.tbss .rel.tbss.* .rel.gnu.linkonce.tb.*)
 *(.rel.ctors)
 *(.rel.dtors)
 *(.rel.got)
 *(.rel.dyn)
 .rel.dyn       0x0000000000400018        0x0 build/us/actors/group0.o
 *(.rel.sdata .rel.sdata.* .rel.gnu.linkonce.s.*)
 *(.rel.sbss .rel.sbss.* .rel.gnu.linkonce.sb.*)
 *(.rel.sdata2 .rel.sdata2.* .rel.gnu.linkonce.s2.*)
 *(.rel.sbss2 .rel.sbss2.* .rel.gnu.linkonce.sb2.*)
 *(.rel.bss .rel.bss.* .rel.gnu.linkonce.b.*)
                [!provide]                        PROVIDE (__rel_iplt_start = .)
 *(.rel.iplt)
                [!provide]                        PROVIDE (__rel_iplt_end = .)

.rela.dyn       0x0000000000400018        0x0
 *(.rela.init)
 *(.rela.text .rela.text.* .rela.gnu.linkonce.t.*)
 *(.rela.fini)
 *(.rela.rodata .rela.rodata.* .rela.gnu.linkonce.r.*)
 *(.rela.data .rela.data.* .rela.gnu.linkonce.d.*)
 *(.rela.tdata .rela.tdata.* .rela.gnu.linkonce.td.*)
 *(.rela.tbss .rela.tbss.* .rela.gnu.linkonce.tb.*)
 *(.rela.ctors)
 *(.rela.dtors)
 *(.rela.got)
 *(.rela.sdata .rela.sdata.* .rela.gnu.linkonce.s.*)
 *(.rela.sbss .rela.sbss.* .rela.gnu.linkonce.sb.*)
 *(.rela.sdata2 .rela.sdata2.* .rela.gnu.linkonce.s2.*)
 *(.rela.sbss2 .rela.sbss2.* .rela.gnu.linkonce.sb2.*)
 *(.rela.bss .rela.bss.* .rela.gnu.linkonce.b.*)
                [!provide]                        PROVIDE (__rela_iplt_start = .)
 *(.rela.iplt)
                [!provide]                        PROVIDE (__rela_iplt_end = .)

.rel.plt
 *(.rel.plt)

.rela.plt
 *(.rela.plt)

.init
 *(SORT_NONE(.init))

.plt
 *(.plt)

.iplt
 *(.iplt)

.text           0x0000000004000000        0x0
                0x0000000004000000                _ftext = .
 *(.text.unlikely .text.*_unlikely .text.unlikely.*)
 *(.text.exit .text.exit.*)
 *(.text.startup .text.startup.*)
 *(.text.hot .text.hot.*)
 *(SORT_BY_NAME(.text.sorted.*))
 *(.text .stub .text.* .gnu.linkonce.t.*)
 .text          0x0000000004000000        0x0 build/us/actors/group0.o
 *(.gnu.warning)
 *(.mips16.fn.*)
 *(.mips16.call.*)

.fini
 *(SORT_NONE(.fini))
                [!provide]                        PROVIDE (__etext = .)
                [!provide]                        PROVIDE (_etext = .)
                [!provide]                        PROVIDE (etext = .)

.rodata
 *(.rodata .rodata.* .gnu.linkonce.r.*)

.rodata1
 *(.rodata1)

.sdata2
 *(.sdata2 .sdata2.* .gnu.linkonce.s2.*)

.sbss2
 *(.sbss2 .sbss2.* .gnu.linkonce.sb2.*)

.eh_frame_hdr
 *(.eh_frame_hdr)
 *(.eh_frame_entry .eh_frame_entry.*)

.eh_frame
 *(.eh_frame)
 *(.eh_frame.*)

.gcc_except_table
 *(.gcc_except_table .gcc_except_table.*)

.gnu_extab
 *(.gnu_extab*)

.exception_ranges
 *(.exception_ranges*)
                0x0000000004000000                . = DATA_SEGMENT_ALIGN (CONSTANT (MAXPAGESIZE), CONSTANT (COMMONPAGESIZE))

.eh_frame
 *(.eh_frame)
 *(.eh_frame.*)

.gnu_extab
 *(.gnu_extab)

.gcc_except_table
 *(.gcc_except_table .gcc_except_table.*)

.exception_ranges
 *(.exception_ranges*)

.tdata          0x0000000004000000        0x0
                [!provide]                        PROVIDE (__tdata_start = .)
 *(.tdata .tdata.* .gnu.linkonce.td.*)

.tbss
 *(.tbss .tbss.* .gnu.linkonce.tb.*)
 *(.tcommon)

.preinit_array  0x0000000004000000        0x0
                [!provide]                        PROVIDE (__preinit_array_start = .)
 *(.preinit_array)
                [!provide]                        PROVIDE (__preinit_array_end = .)

.init_array     0x0000000004000000        0x0
                [!provide]                        PROVIDE (__init_array_start = .)
 *(SORT_BY_INIT_PRIORITY(.init_array.*) SORT_BY_INIT_PRIORITY(.ctors.*))
 *(.init_array EXCLUDE_FILE(*crtend?.o *crtend.o *crtbegin?.o *crtbegin.o) .ctors)
                [!provide]                        PROVIDE (__init_array_end = .)

.fini_array     0x0000000004000000        0x0
                [!provide]                        PROVIDE (__fini_array_start = .)
 *(SORT_BY_INIT_PRIORITY(.fini_array.*) SORT_BY_INIT_PRIORITY(.dtors.*))
 *(.fini_array EXCLUDE_FILE(*crtend?.o *crtend.o *crtbegin?.o *crtbegin.o) .dtors)
                [!provide]                        PROVIDE (__fini_array_end = .)

.ctors
 *crtbegin.o(.ctors)
 *crtbegin?.o(.ctors)
 *(EXCLUDE_FILE(*crtend?.o *crtend.o) .ctors)
 *(SORT_BY_NAME(.ctors.*))
 *(.ctors)

.dtors
 *crtbegin.o(.dtors)
 *crtbegin?.o(.dtors)
 *(EXCLUDE_FILE(*crtend?.o *crtend.o) .dtors)
 *(SORT_BY_NAME(.dtors.*))
 *(.dtors)

.jcr
 *(.jcr)

.data.rel.ro
 *(.data.rel.ro.local* .gnu.linkonce.d.rel.ro.local.*)
 *(.data.rel.ro .data.rel.ro.* .gnu.linkonce.d.rel.ro.*)
                0x0000000004000000                . = DATA_SEGMENT_RELRO_END (., 0x0)

.data           0x0000000004000000    0x4fe10
                0x0000000004000000                _fdata = .
 *(.data .data.* .gnu.linkonce.d.*)
 .data          0x0000000004000000    0x4fe10 build/us/actors/group0.o
                0x0000000004000000                dick_mario_button_ci4_ci4_pal_rgba16
                0x0000000004000018                dick_mario_button_ci4_ci4_pal_rgba16_aligner
                0x0000000004000020                dick_mario_button_ci4_ci4
                0x0000000004000820                dick_mario_button_ci4_ci4_aligner
                0x0000000004000828                breathmeter_Circle_mesh
                0x00000000040008c0                mat_revert_breathmeter_f3d_material_006
                0x00000000040008d8                mat_breathmeter_f3d_material_006
                0x0000000004000940                mat_revert_breathmeter_f3d_material_004
                0x0000000004000960                mat_breathmeter_f3d_material_004
                0x00000000040009d0                mat_revert_breathmeter_f3d_material_005
                0x00000000040009e8                mat_breathmeter_f3d_material_005
                0x0000000004000a50                breathmeter_Circle_mesh_tri_2
                0x0000000004000a68                breathmeter_Circle_mesh_vtx_2
                0x0000000004000a98                breathmeter_Circle_mesh_tri_1
                0x0000000004000ab0                breathmeter_Circle_mesh_vtx_1
                0x0000000004000ae0                breathmeter_Circle_mesh_tri_0
                0x0000000004000af8                breathmeter_Circle_mesh_vtx_0
                0x0000000004000b28                breathmeter_Circle_mesh_vtx_cull
                0x0000000004000ba8                breathmeter_breathmeter_nothing_rgba16
                0x0000000004001ba8                breathmeter_breathmeter_nothing_rgba16_aligner
                0x0000000004001bb0                breathmeter_Airmeterfull_rgba16
                0x0000000004002bb0                breathmeter_Airmeterfull_rgba16_aligner
                0x0000000004002bb8                breathmeter_Airmeterempty_rgba16
                0x0000000004003bb8                breathmeter_Airmeterempty_rgba16_aligner
                0x0000000004003bc0                bitpipegreyscale_material_revert_render_settings
                0x0000000004003c00                bitpipegreyscale_Plane_mesh
                0x0000000004003c58                mat_revert_bitpipegreyscale_sm64_material_001
                0x0000000004003c78                mat_bitpipegreyscale_sm64_material_001
                0x0000000004003d00                mat_revert_bitpipegreyscale_sm64_material
                0x0000000004003d20                mat_bitpipegreyscale_sm64_material
                0x0000000004003da8                bitpipegreyscale_Plane_mesh_tri_1
                0x0000000004003dc0                bitpipegreyscale_Plane_mesh_vtx_1
                0x0000000004003e00                bitpipegreyscale_Plane_mesh_tri_0
                0x0000000004003e78                bitpipegreyscale_Plane_mesh_vtx_0
                0x0000000004004178                bitpipegreyscale_Plane_mesh_vtx_cull
                0x00000000040041f8                bitpipegreyscale_nite_ia8
                0x00000000040042f8                bitpipegreyscale_nite_ia8_aligner
                0x0000000004004300                bitpipegreyscale_fort_i8
                0x0000000004004500                bitpipegreyscale_fort_i8_aligner
                0x0000000004004508                bitpipegreyscale_sm64_material_001_lights
                0x0000000004004520                bitpipegreyscale_sm64_material_lights
                0x0000000004004538                crab_material_revert_render_settings
                0x0000000004004578                crab_Bone_002_mesh_layer_4_mat_override_f3d_material_001_0
                0x0000000004004598                crab_Bone_002_mesh_layer_4
                0x00000000040045b8                mat_revert_crab_f3d_material_001
                0x00000000040045d8                mat_crab_f3d_material_001
                0x0000000004004690                mat_revert_crab_f3d_material
                0x00000000040046b0                mat_crab_f3d_material
                0x0000000004004768                crab_Bone_002_mesh_layer_4_tri_0
                0x0000000004004780                crab_Bone_002_mesh_layer_4_vtx_0
                0x00000000040047c0                crab_ob_crab_2_ci8_pal_rgba16
                0x0000000004004800                crab_ob_crab_2_ci8_pal_rgba16_aligner
                0x0000000004004808                crab_ob_crab_2_ci8
                0x0000000004005008                crab_ob_crab_2_ci8_aligner
                0x0000000004005010                crab_ob_crab_1_ci8_pal_rgba16
                0x0000000004005050                crab_ob_crab_1_ci8_pal_rgba16_aligner
                0x0000000004005058                crab_ob_crab_1_ci8
                0x0000000004005858                crab_ob_crab_1_ci8_aligner
                0x0000000004005860                crab_f3d_material_001_lights
                0x0000000004005878                crab_f3d_material_lights
                0x0000000004005890                yoshiExclamationMark_material_revert_render_settings
                0x00000000040058d0                yoshiExclamationMark_Bone_001_mesh_layer_4_mat_override_f3d_material_009_4
                0x00000000040058f0                yoshiExclamationMark_Bone_001_mesh_layer_4_mat_override_f3d_material_008_3
                0x0000000004005910                yoshiExclamationMark_Bone_001_mesh_layer_4_mat_override_f3d_material_007_2
                0x0000000004005930                yoshiExclamationMark_Bone_001_mesh_layer_4_mat_override_f3d_material_006_1
                0x0000000004005950                yoshiExclamationMark_Bone_001_mesh_layer_4_mat_override_f3d_material_005_0
                0x0000000004005970                yoshiExclamationMark_Bone_001_mesh_layer_4
                0x0000000004005990                mat_revert_yoshiExclamationMark_f3d_material_009
                0x00000000040059b0                mat_yoshiExclamationMark_f3d_material_009
                0x0000000004005a50                mat_revert_yoshiExclamationMark_f3d_material_008
                0x0000000004005a70                mat_yoshiExclamationMark_f3d_material_008
                0x0000000004005b10                mat_revert_yoshiExclamationMark_f3d_material_007
                0x0000000004005b30                mat_yoshiExclamationMark_f3d_material_007
                0x0000000004005bd0                mat_revert_yoshiExclamationMark_f3d_material_006
                0x0000000004005bf0                mat_yoshiExclamationMark_f3d_material_006
                0x0000000004005c90                mat_revert_yoshiExclamationMark_f3d_material_005
                0x0000000004005cb0                mat_yoshiExclamationMark_f3d_material_005
                0x0000000004005d50                mat_revert_yoshiExclamationMark_f3d_material_004
                0x0000000004005d70                mat_yoshiExclamationMark_f3d_material_004
                0x0000000004005e10                yoshiExclamationMark_Bone_001_mesh_layer_4_tri_0
                0x0000000004005e28                yoshiExclamationMark_Bone_001_mesh_layer_4_vtx_0
                0x0000000004005e68                yoshiExclamationMark_Cloud6_ci8_pal_rgba16
                0x0000000004005f78                yoshiExclamationMark_Cloud6_ci8_pal_rgba16_aligner
                0x0000000004005f80                yoshiExclamationMark_Cloud6_ci8
                0x0000000004006380                yoshiExclamationMark_Cloud6_ci8_aligner
                0x0000000004006388                yoshiExclamationMark_Cloud5_ci8_pal_rgba16
                0x0000000004006498                yoshiExclamationMark_Cloud5_ci8_pal_rgba16_aligner
                0x00000000040064a0                yoshiExclamationMark_Cloud5_ci8
                0x00000000040068a0                yoshiExclamationMark_Cloud5_ci8_aligner
                0x00000000040068a8                yoshiExclamationMark_Cloud4_ci8_pal_rgba16
                0x00000000040069c8                yoshiExclamationMark_Cloud4_ci8_pal_rgba16_aligner
                0x00000000040069d0                yoshiExclamationMark_Cloud4_ci8
                0x0000000004006dd0                yoshiExclamationMark_Cloud4_ci8_aligner
                0x0000000004006dd8                yoshiExclamationMark_Cloud3_ci8_pal_rgba16
                0x0000000004006ed8                yoshiExclamationMark_Cloud3_ci8_pal_rgba16_aligner
                0x0000000004006ee0                yoshiExclamationMark_Cloud3_ci8
                0x00000000040072e0                yoshiExclamationMark_Cloud3_ci8_aligner
                0x00000000040072e8                yoshiExclamationMark_Cloud2_ci8_pal_rgba16
                0x00000000040073d8                yoshiExclamationMark_Cloud2_ci8_pal_rgba16_aligner
                0x00000000040073e0                yoshiExclamationMark_Cloud2_ci8
                0x00000000040077e0                yoshiExclamationMark_Cloud2_ci8_aligner
                0x00000000040077e8                yoshiExclamationMark_Cloud1_ci8_pal_rgba16
                0x0000000004007900                yoshiExclamationMark_Cloud1_ci8_pal_rgba16_aligner
                0x0000000004007908                yoshiExclamationMark_Cloud1_ci8
                0x0000000004007d08                yoshiExclamationMark_Cloud1_ci8_aligner
                0x0000000004007d10                bombsprite_material_revert_render_settings
                0x0000000004007d50                bombsprite_Plane_mesh
                0x0000000004007d90                mat_revert_bombsprite_sm64_material
                0x0000000004007db0                mat_bombsprite_sm64_material
                0x0000000004007e50                bombsprite_Plane_mesh_tri_0
                0x0000000004007e68                bombsprite_Plane_mesh_vtx_0
                0x0000000004007ea8                bombsprite_Plane_mesh_vtx_cull
                0x0000000004007f28                bombsprite_bombspirte_ci8_pal_rgba16
                0x0000000004007f70                bombsprite_bombspirte_ci8_pal_rgba16_aligner
                0x0000000004007f78                bombsprite_bombspirte_ci8
                0x0000000004008378                bombsprite_bombspirte_ci8_aligner
                0x0000000004008380                bombflower_material_revert_render_settings
                0x00000000040083c0                bombflower_Cloud_Flower_002_mesh
                0x00000000040083e0                bombflower_Cloud_Flower_mesh
                0x0000000004008400                bombflower_Circle_mesh
                0x0000000004008428                mat_revert_bombflower__03___Default_f3d
                0x0000000004008448                mat_bombflower__03___Default_f3d
                0x0000000004008500                mat_revert_bombflower_sm64_material_046
                0x0000000004008520                mat_bombflower_sm64_material_046
                0x00000000040085d8                mat_bombflower_sm64_material_002
                0x0000000004008650                mat_bombflower_sm64_material_003
                0x0000000004008688                bombflower_Cloud_Flower_002_mesh_tri_0
                0x00000000040086a8                bombflower_Cloud_Flower_002_mesh_vtx_0
                0x00000000040086e8                bombflower_Cloud_Flower_mesh_tri_0
                0x0000000004008708                bombflower_Cloud_Flower_mesh_vtx_0
                0x0000000004008768                bombflower_Circle_mesh_tri_1
                0x00000000040088c8                bombflower_Circle_mesh_vtx_1
                0x0000000004008b78                bombflower_Circle_mesh_tri_0
                0x0000000004008c10                bombflower_Circle_mesh_vtx_0
                0x0000000004008df0                bombflower_s18_roap_01_2EA80_ci8_pal_rgba16
                0x0000000004008ee0                bombflower_s18_roap_01_2EA80_ci8_pal_rgba16_aligner
                0x0000000004008ee8                bombflower_s18_roap_01_2EA80_ci8
                0x00000000040096e8                bombflower_s18_roap_01_2EA80_ci8_aligner
                0x00000000040096f0                bombflower_SUPER_MARIO_64_5BC5CA75_0_2_all_ci8_pal_rgba16
                0x0000000004009760                bombflower_SUPER_MARIO_64_5BC5CA75_0_2_all_ci8_pal_rgba16_aligner
                0x0000000004009768                bombflower_SUPER_MARIO_64_5BC5CA75_0_2_all_ci8
                0x0000000004009f68                bombflower_SUPER_MARIO_64_5BC5CA75_0_2_all_ci8_aligner
                0x0000000004009f70                bombflower_facesl_ia8
                0x000000000400a070                bombflower_facesl_ia8_aligner
                0x000000000400a078                bombflower__03___Default_f3d_lights
                0x000000000400a090                bombflower_sm64_material_046_lights
                0x000000000400a0a8                bombflower_sm64_material_002_lights
                0x000000000400a0c0                bombflower_sm64_material_003_lights
                0x000000000400a0d8                bombcap_HammerBros_mesh
                0x000000000400a140                mat_revert_bombcap_sm64_material_001
                0x000000000400a158                mat_bombcap_sm64_material_001
                0x000000000400a208                mat_bombcap_sm64_material_003
                0x000000000400a240                mat_bombcap_sm64_material
                0x000000000400a2b8                bombcap_HammerBros_mesh_tri_2
                0x000000000400a3c0                bombcap_HammerBros_mesh_vtx_2
                0x000000000400a720                bombcap_HammerBros_mesh_tri_1
                0x000000000400a7b8                bombcap_HammerBros_mesh_vtx_1
                0x000000000400a998                bombcap_HammerBros_mesh_tri_0
                0x000000000400ab40                bombcap_HammerBros_mesh_vtx_0
                0x000000000400aeb0                bombcap_s18_roap_01_2EA80_ci8_pal_rgba16
                0x000000000400afa0                bombcap_s18_roap_01_2EA80_ci8_pal_rgba16_aligner
                0x000000000400afa8                bombcap_s18_roap_01_2EA80_ci8
                0x000000000400b7a8                bombcap_s18_roap_01_2EA80_ci8_aligner
                0x000000000400b7b0                bombcap_Unbenannt_1_ia8
                0x000000000400b7f0                bombcap_Unbenannt_1_ia8_aligner
                0x000000000400b7f8                bombcap_sm64_material_001_lights
                0x000000000400b810                bombcap_sm64_material_003_lights
                0x000000000400b828                bombcap_sm64_material_lights
                0x000000000400b840                yoshinew_anims
                0x0000000004016bd0                yoshinew_material_revert_render_settings
                0x0000000004016c10                yoshinew_leg3_r_mesh_layer_1
                0x0000000004016c30                yoshinew_leg2_r_mesh_layer_1
                0x0000000004016c48                yoshinew_leg1_r_mesh_layer_1
                0x0000000004016c80                yoshinew_leg1_r_skinned_mesh_layer_1
                0x0000000004016cb0                yoshinew_leg3_l_mesh_layer_1
                0x0000000004016cd0                yoshinew_leg2_l_mesh_layer_1
                0x0000000004016ce8                yoshinew_leg1_l_mesh_layer_1
                0x0000000004016d20                yoshinew_leg1_l_skinned_mesh_layer_1
                0x0000000004016d50                yoshinew_atail_001_mesh_layer_1
                0x0000000004016d80                yoshinew_atail_001_skinned_mesh_layer_1
                0x0000000004016db0                yoshinew_arm3_r_mesh_layer_1
                0x0000000004016dd0                yoshinew_arm3_r_skinned_mesh_layer_1
                0x0000000004016de8                yoshinew_arm2_r_mesh_layer_1
                0x0000000004016e00                yoshinew_arm2_r_skinned_mesh_layer_1
                0x0000000004016e18                yoshinew_arm1_r_mesh_layer_1
                0x0000000004016e48                yoshinew_arm1_r_skinned_mesh_layer_1
                0x0000000004016e78                yoshinew_arm3_l_mesh_layer_1
                0x0000000004016e98                yoshinew_arm3_l_skinned_mesh_layer_1
                0x0000000004016eb0                yoshinew_arm2_l_mesh_layer_1
                0x0000000004016ec8                yoshinew_arm2_l_skinned_mesh_layer_1
                0x0000000004016ee0                yoshinew_arm1_l_mesh_layer_1
                0x0000000004016f10                yoshinew_arm1_l_skinned_mesh_layer_1
                0x0000000004016f40                yoshinew_Bone_005_mesh_layer_1_mat_override_sunglasses_9
                0x0000000004016f60                yoshinew_Bone_005_mesh_layer_1_mat_override_happy_8
                0x0000000004016f80                yoshinew_Bone_005_mesh_layer_1_mat_override_sleeping_7
                0x0000000004016fa0                yoshinew_Bone_005_mesh_layer_1_mat_override_angry_6
                0x0000000004016fc0                yoshinew_Bone_005_mesh_layer_1_mat_override_annoyed_5
                0x0000000004016fe0                yoshinew_Bone_005_mesh_layer_1_mat_override_smug_flamboyant_4
                0x0000000004017000                yoshinew_Bone_005_mesh_layer_1_mat_override_scared_3
                0x0000000004017020                yoshinew_Bone_005_mesh_layer_1_mat_override_sad_2
                0x0000000004017040                yoshinew_Bone_005_mesh_layer_1_mat_override_closed_1
                0x0000000004017060                yoshinew_Bone_005_mesh_layer_1_mat_override_halfopen_0
                0x0000000004017080                yoshinew_Bone_005_mesh_layer_1
                0x00000000040170a0                yoshinew_Bone_005_skinned_mesh_layer_1_mat_override_sunglasses_9
                0x00000000040170c0                yoshinew_Bone_005_skinned_mesh_layer_1_mat_override_happy_8
                0x00000000040170e0                yoshinew_Bone_005_skinned_mesh_layer_1_mat_override_sleeping_7
                0x0000000004017100                yoshinew_Bone_005_skinned_mesh_layer_1_mat_override_angry_6
                0x0000000004017120                yoshinew_Bone_005_skinned_mesh_layer_1_mat_override_annoyed_5
                0x0000000004017140                yoshinew_Bone_005_skinned_mesh_layer_1_mat_override_smug_flamboyant_4
                0x0000000004017160                yoshinew_Bone_005_skinned_mesh_layer_1_mat_override_scared_3
                0x0000000004017180                yoshinew_Bone_005_skinned_mesh_layer_1_mat_override_sad_2
                0x00000000040171a0                yoshinew_Bone_005_skinned_mesh_layer_1_mat_override_closed_1
                0x00000000040171c0                yoshinew_Bone_005_skinned_mesh_layer_1_mat_override_halfopen_0
                0x00000000040171e0                yoshinew_Bone_005_skinned_mesh_layer_1
                0x0000000004017200                yoshinew_ZZZ_mesh_layer_1_mat_override_sunglasses_9
                0x0000000004017240                yoshinew_ZZZ_mesh_layer_1_mat_override_happy_8
                0x0000000004017280                yoshinew_ZZZ_mesh_layer_1_mat_override_sleeping_7
                0x00000000040172c0                yoshinew_ZZZ_mesh_layer_1_mat_override_angry_6
                0x0000000004017308                yoshinew_ZZZ_mesh_layer_1_mat_override_annoyed_5
                0x0000000004017350                yoshinew_ZZZ_mesh_layer_1_mat_override_smug_flamboyant_4
                0x0000000004017398                yoshinew_ZZZ_mesh_layer_1_mat_override_scared_3
                0x00000000040173e0                yoshinew_ZZZ_mesh_layer_1_mat_override_sad_2
                0x0000000004017428                yoshinew_ZZZ_mesh_layer_1_mat_override_closed_1
                0x0000000004017468                yoshinew_ZZZ_mesh_layer_1_mat_override_halfopen_0
                0x00000000040174b0                yoshinew_ZZZ_mesh_layer_1
                0x00000000040174f0                yoshinew_AAAC_mesh_layer_1
                0x0000000004017520                mat_yoshinew_sunglasses
                0x0000000004017580                mat_yoshinew_happy
                0x00000000040175e0                mat_yoshinew_sleeping
                0x0000000004017640                mat_revert_yoshinew_angry
                0x0000000004017658                mat_yoshinew_angry
                0x00000000040176f0                mat_revert_yoshinew_annoyed
                0x0000000004017708                mat_yoshinew_annoyed
                0x00000000040177a0                mat_revert_yoshinew_smug_flamboyant
                0x00000000040177b8                mat_yoshinew_smug_flamboyant
                0x0000000004017850                mat_revert_yoshinew_scared
                0x0000000004017868                mat_yoshinew_scared
                0x0000000004017900                mat_revert_yoshinew_sad
                0x0000000004017918                mat_yoshinew_sad
                0x00000000040179b0                mat_yoshinew_closed
                0x0000000004017a10                mat_revert_yoshinew_halfopen
                0x0000000004017a28                mat_yoshinew_halfopen
                0x0000000004017ac0                mat_yoshinew_material_2_f3d
                0x0000000004017b20                mat_yoshinew_material_3_f3d
                0x0000000004017b80                mat_revert_yoshinew_material_0_f3d
                0x0000000004017b98                mat_yoshinew_material_0_f3d
                0x0000000004017c30                mat_yoshinew_f3d_material
                0x0000000004017c50                yoshinew_leg3_r_mesh_layer_1_tri_0
                0x0000000004017cb0                yoshinew_leg3_r_mesh_layer_1_vtx_0
                0x0000000004017dd0                yoshinew_leg2_r_mesh_layer_1_tri_0
                0x0000000004017e00                yoshinew_leg2_r_mesh_layer_1_vtx_0
                0x0000000004017e60                yoshinew_leg1_r_mesh_layer_1_tri_2
                0x0000000004017e78                yoshinew_leg1_r_mesh_layer_1_vtx_2
                0x0000000004017eb8                yoshinew_leg1_r_mesh_layer_1_tri_1
                0x0000000004017ed8                yoshinew_leg1_r_mesh_layer_1_vtx_1
                0x0000000004017f08                yoshinew_leg1_r_mesh_layer_1_tri_0
                0x0000000004017f28                yoshinew_leg1_r_mesh_layer_1_vtx_0
                0x0000000004017f48                yoshinew_leg1_r_skinned_mesh_layer_1_tri_1
                0x0000000004017f58                yoshinew_leg1_r_skinned_mesh_layer_1_vtx_1
                0x0000000004017f88                yoshinew_leg1_r_skinned_mesh_layer_1_tri_0
                0x0000000004017f98                yoshinew_leg1_r_skinned_mesh_layer_1_vtx_0
                0x0000000004017fd8                yoshinew_leg3_l_mesh_layer_1_tri_0
                0x0000000004018038                yoshinew_leg3_l_mesh_layer_1_vtx_0
                0x0000000004018158                yoshinew_leg2_l_mesh_layer_1_tri_0
                0x0000000004018188                yoshinew_leg2_l_mesh_layer_1_vtx_0
                0x00000000040181e8                yoshinew_leg1_l_mesh_layer_1_tri_2
                0x0000000004018200                yoshinew_leg1_l_mesh_layer_1_vtx_2
                0x0000000004018240                yoshinew_leg1_l_mesh_layer_1_tri_1
                0x0000000004018260                yoshinew_leg1_l_mesh_layer_1_vtx_1
                0x0000000004018290                yoshinew_leg1_l_mesh_layer_1_tri_0
                0x00000000040182b0                yoshinew_leg1_l_mesh_layer_1_vtx_0
                0x00000000040182d0                yoshinew_leg1_l_skinned_mesh_layer_1_tri_1
                0x00000000040182e0                yoshinew_leg1_l_skinned_mesh_layer_1_vtx_1
                0x0000000004018310                yoshinew_leg1_l_skinned_mesh_layer_1_tri_0
                0x0000000004018320                yoshinew_leg1_l_skinned_mesh_layer_1_vtx_0
                0x0000000004018360                yoshinew_atail_001_mesh_layer_1_tri_1
                0x0000000004018380                yoshinew_atail_001_mesh_layer_1_vtx_1
                0x0000000004018390                yoshinew_atail_001_mesh_layer_1_tri_0
                0x00000000040183a8                yoshinew_atail_001_mesh_layer_1_vtx_0
                0x00000000040183b8                yoshinew_atail_001_skinned_mesh_layer_1_tri_1
                0x00000000040183c8                yoshinew_atail_001_skinned_mesh_layer_1_vtx_1
                0x0000000004018418                yoshinew_atail_001_skinned_mesh_layer_1_tri_0
                0x0000000004018428                yoshinew_atail_001_skinned_mesh_layer_1_vtx_0
                0x0000000004018458                yoshinew_arm3_r_mesh_layer_1_tri_1
                0x0000000004018480                yoshinew_arm3_r_mesh_layer_1_vtx_1
                0x00000000040184e0                yoshinew_arm3_r_mesh_layer_1_tri_0
                0x0000000004018510                yoshinew_arm3_r_mesh_layer_1_vtx_0
                0x0000000004018550                yoshinew_arm3_r_skinned_mesh_layer_1_tri_0
                0x0000000004018560                yoshinew_arm3_r_skinned_mesh_layer_1_vtx_0
                0x0000000004018590                yoshinew_arm2_r_mesh_layer_1_tri_0
                0x00000000040185b8                yoshinew_arm2_r_mesh_layer_1_vtx_0
                0x00000000040185e8                yoshinew_arm2_r_skinned_mesh_layer_1_tri_0
                0x00000000040185f8                yoshinew_arm2_r_skinned_mesh_layer_1_vtx_0
                0x0000000004018628                yoshinew_arm1_r_mesh_layer_1_tri_1
                0x0000000004018648                yoshinew_arm1_r_mesh_layer_1_vtx_1
                0x0000000004018668                yoshinew_arm1_r_mesh_layer_1_tri_0
                0x0000000004018690                yoshinew_arm1_r_mesh_layer_1_vtx_0
                0x00000000040186c0                yoshinew_arm1_r_skinned_mesh_layer_1_tri_1
                0x00000000040186d0                yoshinew_arm1_r_skinned_mesh_layer_1_vtx_1
                0x0000000004018730                yoshinew_arm1_r_skinned_mesh_layer_1_tri_0
                0x0000000004018740                yoshinew_arm1_r_skinned_mesh_layer_1_vtx_0
                0x0000000004018780                yoshinew_arm3_l_mesh_layer_1_tri_1
                0x00000000040187a8                yoshinew_arm3_l_mesh_layer_1_vtx_1
                0x0000000004018808                yoshinew_arm3_l_mesh_layer_1_tri_0
                0x0000000004018838                yoshinew_arm3_l_mesh_layer_1_vtx_0
                0x0000000004018878                yoshinew_arm3_l_skinned_mesh_layer_1_tri_0
                0x0000000004018888                yoshinew_arm3_l_skinned_mesh_layer_1_vtx_0
                0x00000000040188b8                yoshinew_arm2_l_mesh_layer_1_tri_0
                0x00000000040188e0                yoshinew_arm2_l_mesh_layer_1_vtx_0
                0x0000000004018910                yoshinew_arm2_l_skinned_mesh_layer_1_tri_0
                0x0000000004018920                yoshinew_arm2_l_skinned_mesh_layer_1_vtx_0
                0x0000000004018950                yoshinew_arm1_l_mesh_layer_1_tri_1
                0x0000000004018970                yoshinew_arm1_l_mesh_layer_1_vtx_1
                0x0000000004018990                yoshinew_arm1_l_mesh_layer_1_tri_0
                0x00000000040189b8                yoshinew_arm1_l_mesh_layer_1_vtx_0
                0x00000000040189e8                yoshinew_arm1_l_skinned_mesh_layer_1_tri_1
                0x00000000040189f8                yoshinew_arm1_l_skinned_mesh_layer_1_vtx_1
                0x0000000004018a58                yoshinew_arm1_l_skinned_mesh_layer_1_tri_0
                0x0000000004018a68                yoshinew_arm1_l_skinned_mesh_layer_1_vtx_0
                0x0000000004018aa8                yoshinew_Bone_005_mesh_layer_1_tri_0
                0x0000000004018ad0                yoshinew_Bone_005_mesh_layer_1_vtx_0
                0x0000000004018af0                yoshinew_Bone_005_skinned_mesh_layer_1_tri_0
                0x0000000004018b00                yoshinew_Bone_005_skinned_mesh_layer_1_vtx_0
                0x0000000004018b70                yoshinew_ZZZ_mesh_layer_1_tri_2
                0x0000000004018bd0                yoshinew_ZZZ_mesh_layer_1_vtx_2
                0x0000000004018d40                yoshinew_ZZZ_mesh_layer_1_tri_1
                0x0000000004018db8                yoshinew_ZZZ_mesh_layer_1_vtx_1
                0x0000000004018f38                yoshinew_ZZZ_mesh_layer_1_tri_0
                0x0000000004018fc0                yoshinew_ZZZ_mesh_layer_1_vtx_0
                0x0000000004019140                yoshinew_AAAC_mesh_layer_1_tri_1
                0x0000000004019180                yoshinew_AAAC_mesh_layer_1_vtx_1
                0x0000000004019280                yoshinew_AAAC_mesh_layer_1_tri_0
                0x0000000004019298                yoshinew_AAAC_mesh_layer_1_vtx_0
                0x00000000040192f8                yoshinew__0_8725_squirtle_glasses_png_ia8
                0x00000000040196f8                yoshinew__0_8725_squirtle_glasses_png_ia8_aligner
                0x0000000004019700                yoshinew_Eye_Happy_ia8
                0x0000000004019b00                yoshinew_Eye_Happy_ia8_aligner
                0x0000000004019b08                yoshinew_Eye_Sleep__1__ia8
                0x0000000004019f08                yoshinew_Eye_Sleep__1__ia8_aligner
                0x0000000004019f10                yoshinew_realrealangry_ci8_pal_rgba16
                0x0000000004019f70                yoshinew_realrealangry_ci8_pal_rgba16_aligner
                0x0000000004019f78                yoshinew_realrealangry_ci8
                0x000000000401a378                yoshinew_realrealangry_ci8_aligner
                0x000000000401a380                yoshinew_annoying_ci8_pal_rgba16
                0x000000000401a3e0                yoshinew_annoying_ci8_pal_rgba16_aligner
                0x000000000401a3e8                yoshinew_annoying_ci8
                0x000000000401a7e8                yoshinew_annoying_ci8_aligner
                0x000000000401a7f0                yoshinew_angwy_ci8_pal_rgba16
                0x000000000401a850                yoshinew_angwy_ci8_pal_rgba16_aligner
                0x000000000401a858                yoshinew_angwy_ci8
                0x000000000401ac58                yoshinew_angwy_ci8_aligner
                0x000000000401ac60                yoshinew_scared_ci8_pal_rgba16
                0x000000000401acb8                yoshinew_scared_ci8_pal_rgba16_aligner
                0x000000000401acc0                yoshinew_scared_ci8
                0x000000000401b0c0                yoshinew_scared_ci8_aligner
                0x000000000401b0c8                yoshinew_realangry_ci8_pal_rgba16
                0x000000000401b128                yoshinew_realangry_ci8_pal_rgba16_aligner
                0x000000000401b130                yoshinew_realangry_ci8
                0x000000000401b530                yoshinew_realangry_ci8_aligner
                0x000000000401b538                yoshinew__34B9EA8451_closed_ia8
                0x000000000401b938                yoshinew__34B9EA8451_closed_ia8_aligner
                0x000000000401b940                yoshinew__34B9EA8451_halfclosed_ci8_pal_rgba16
                0x000000000401b9a8                yoshinew__34B9EA8451_halfclosed_ci8_pal_rgba16_aligner
                0x000000000401b9b0                yoshinew__34B9EA8451_halfclosed_ci8
                0x000000000401bdb0                yoshinew__34B9EA8451_halfclosed_ci8_aligner
                0x000000000401bdb8                yoshinew__34B9EA8451_c_ia8
                0x000000000401c1b8                yoshinew__34B9EA8451_c_ia8_aligner
                0x000000000401c1c0                yoshinew__5E58AD88_c_ia8
                0x000000000401c2c0                yoshinew__5E58AD88_c_ia8_aligner
                0x000000000401c2c8                yoshinew__3BA53B0B_c_ci4_pal_rgba16
                0x000000000401c2d0                yoshinew__3BA53B0B_c_ci4_pal_rgba16_aligner
                0x000000000401c2d8                yoshinew__3BA53B0B_c_ci4
                0x000000000401c358                yoshinew__3BA53B0B_c_ci4_aligner
                0x000000000401c360                bitpipe_collision
                0x000000000401c558                bitpipe_material_revert_render_settings
                0x000000000401c598                bitpipe_Plane_mesh
                0x000000000401c5e0                mat_revert_bitpipe_sm64_material_001
                0x000000000401c608                mat_bitpipe_sm64_material_001
                0x000000000401c6c8                mat_revert_bitpipe_sm64_material
                0x000000000401c6e8                mat_bitpipe_sm64_material
                0x000000000401c770                bitpipe_Plane_mesh_tri_1
                0x000000000401c788                bitpipe_Plane_mesh_vtx_1
                0x000000000401c7c8                bitpipe_Plane_mesh_tri_0
                0x000000000401c840                bitpipe_Plane_mesh_vtx_0
                0x000000000401cb40                bitpipe_Plane_mesh_vtx_cull
                0x000000000401cbc0                bitpipe_nite_ci4_pal_rgba16
                0x000000000401cbd0                bitpipe_nite_ci4_pal_rgba16_aligner
                0x000000000401cbd8                bitpipe_nite_ci4
                0x000000000401cc58                bitpipe_nite_ci4_aligner
                0x000000000401cc60                bitpipe_fort_rgba16
                0x000000000401d060                bitpipe_fort_rgba16_aligner
                0x000000000401d068                bitpipe_sm64_material_001_lights
                0x000000000401d080                bitpipe_sm64_material_lights
                0x000000000401d098                icequad_collision
                0x000000000401d158                icequad_material_revert_render_settings
                0x000000000401d190                icequad_Circle_mesh_layer_7
                0x000000000401d1b0                mat_revert_icequad_f3d_material
                0x000000000401d1d0                mat_icequad_f3d_material
                0x000000000401d288                icequad_Circle_mesh_layer_7_tri_0
                0x000000000401d2b0                icequad_Circle_mesh_layer_7_vtx_0
                0x000000000401d320                icequad_SUPER_MARIO_64_84FED0D8_0_2_rgb_ci4_pal_rgba16
                0x000000000401d340                icequad_SUPER_MARIO_64_84FED0D8_0_2_rgb_ci4_pal_rgba16_aligner
                0x000000000401d348                icequad_SUPER_MARIO_64_84FED0D8_0_2_rgb_ci4
                0x000000000401db48                icequad_SUPER_MARIO_64_84FED0D8_0_2_rgb_ci4_aligner
                0x000000000401db50                icequad_f3d_material_lights
                0x000000000401db68                cloudchase_material_revert_render_settings
                0x000000000401dba8                cloudchase_Plane_mesh
                0x000000000401dbf0                mat_revert_cloudchase_sm64_material_046
                0x000000000401dc10                mat_cloudchase_sm64_material_046
                0x000000000401dcb0                cloudchase_Plane_mesh_tri_0
                0x000000000401dcd0                cloudchase_Plane_mesh_vtx_0
                0x000000000401dd10                cloudchase_dsg_ci8_pal_rgba16
                0x000000000401de48                cloudchase_dsg_ci8
                0x000000000401e648                cloudspawn_collision
                0x000000000401e6f8                cloudspawn_material_revert_render_settings
                0x000000000401e738                cloudspawn_n0b0_mesh
                0x000000000401e758                mat_revert_cloudspawn_m0_f3d
                0x000000000401e770                mat_cloudspawn_m0_f3d
                0x000000000401e7b8                cloudspawn_n0b0_mesh_tri_0
                0x000000000401ea68                cloudspawn_n0b0_mesh_vtx_0
                0x000000000401f0b8                cloudspawn_m0_f3d_lights
                0x000000000401f0d0                cloudcap_cloud_mario_mesh
                0x000000000401f150                mat_revert_cloudcap_CloudCap_f3d
                0x000000000401f168                mat_cloudcap_CloudCap_f3d
                0x000000000401f218                mat_revert_cloudcap_M_Logo
                0x000000000401f230                mat_cloudcap_M_Logo
                0x000000000401f2e0                cloudcap_cloud_mario_mesh_tri_1
                0x000000000401f3c0                cloudcap_cloud_mario_mesh_vtx_1
                0x000000000401f680                cloudcap_cloud_mario_mesh_tri_0
                0x000000000401f750                cloudcap_cloud_mario_mesh_vtx_0
                0x000000000401fa60                cloudcap_cloud_mario_mesh_vtx_cull
                0x000000000401fae0                cloudcap_Cloud02_ci8_pal_rgba16
                0x000000000401fb10                cloudcap_Cloud02_ci8_pal_rgba16_aligner
                0x000000000401fb18                cloudcap_Cloud02_ci8
                0x0000000004020318                cloudcap_Cloud02_ci8_aligner
                0x0000000004020320                cloudcap_ClouMS02_ci8_pal_rgba16
                0x00000000040203c8                cloudcap_ClouMS02_ci8_pal_rgba16_aligner
                0x00000000040203d0                cloudcap_ClouMS02_ci8
                0x0000000004020bd0                cloudcap_ClouMS02_ci8_aligner
                0x0000000004020bd8                cloudcap_CloudCap_f3d_lights
                0x0000000004020bf0                cloudcap_M_Logo_lights
                0x0000000004020c08                cloudflower_material_revert_render_settings
                0x0000000004020c48                cloudflower_Cloud_Flower_002_mesh
                0x0000000004020c90                cloudflower_Cloud_Flower_001_mesh
                0x0000000004020cd8                cloudflower_Cloud_Flower_mesh
                0x0000000004020d20                mat_revert_cloudflower__03___Default_f3d
                0x0000000004020d38                mat_cloudflower__03___Default_f3d
                0x0000000004020db8                mat_revert_cloudflower_sm64_material_046
                0x0000000004020dd8                mat_cloudflower_sm64_material_046
                0x0000000004020e90                cloudflower_Cloud_Flower_002_mesh_tri_0
                0x0000000004020ea8                cloudflower_Cloud_Flower_002_mesh_vtx_0
                0x0000000004020ed8                cloudflower_Cloud_Flower_001_mesh_tri_0
                0x00000000040210e8                cloudflower_Cloud_Flower_001_mesh_vtx_0
                0x0000000004021568                cloudflower_Cloud_Flower_mesh_tri_0
                0x0000000004021588                cloudflower_Cloud_Flower_mesh_vtx_0
                0x00000000040215e8                cloudflower_eye_i8
                0x0000000004021de8                cloudflower_CloudFlower_ci4_pal_rgba16
                0x0000000004021e08                cloudflower_CloudFlower_ci4
                0x0000000004022608                cloudflower__03___Default_f3d_lights
                0x0000000004022620                cloudflower_sm64_material_046_lights
                0x0000000004022638                wobblerock_collision
                0x00000000040226b8                wobblerock_material_revert_render_settings
                0x00000000040226f8                wobblerock_Circle_mesh
                0x0000000004022750                mat_revert_wobblerock_sm64_material_046
                0x0000000004022768                mat_wobblerock_sm64_material_046
                0x0000000004022818                mat_wobblerock_sm64_material_047
                0x0000000004022898                wobblerock_Circle_mesh_tri_1
                0x00000000040228e0                wobblerock_Circle_mesh_vtx_1
                0x0000000004022a00                wobblerock_Circle_mesh_tri_0
                0x0000000004022a30                wobblerock_Circle_mesh_vtx_0
                0x0000000004022a90                wobblerock_z_kabe02_s_ci8_pal_rgba16
                0x0000000004022b90                wobblerock_z_kabe02_s_ci8
                0x0000000004022f90                wobblerock_wi2_sandI8_i8
                0x0000000004023f90                wobblerock_sm64_material_046_lights
                0x0000000004023fa8                wobblerock_sm64_material_047_lights
                0x0000000004023fc0                screw_collision
                0x00000000040240e8                screw_material_revert_render_settings
                0x0000000004024128                screw_Circle_mesh
                0x0000000004024198                mat_screw_sm64_material_046
                0x0000000004024210                mat_screw_sm64_material_047
                0x0000000004024288                screw_Circle_mesh_tri_1
                0x00000000040242d8                screw_Circle_mesh_vtx_1
                0x00000000040244d8                screw_Circle_mesh_tri_0
                0x0000000004024518                screw_Circle_mesh_vtx_0
                0x0000000004024618                screw_Circle_mesh_vtx_cull
                0x0000000004024698                screw_GPAE01_7748a791_6_i8
                0x0000000004024a98                screw_Grain05_i4
                0x0000000004025298                screw_sm64_material_046_lights
                0x00000000040252b0                screw_sm64_material_047_lights
                0x00000000040252c8                bouncyflower_anims
                0x0000000004025348                bouncyflower_material_revert_render_settings
                0x0000000004025388                bouncyflower_Plane_mesh
                0x00000000040253c0                mat_revert_bouncyflower_sm64_material_045
                0x00000000040253e0                mat_bouncyflower_sm64_material_045
                0x0000000004025498                mat_revert_bouncyflower_sm64_material_044
                0x00000000040254b0                mat_bouncyflower_sm64_material_044
                0x00000000040254f0                bouncyflower_Plane_mesh_tri_1
                0x0000000004025540                bouncyflower_Plane_mesh_vtx_1
                0x0000000004025640                bouncyflower_Plane_mesh_tri_0
                0x00000000040256d8                bouncyflower_Plane_mesh_vtx_0
                0x0000000004025808                bouncyflower_bo9unceflower_ci4_pal_rgba16
                0x0000000004025828                bouncyflower_bo9unceflower_ci4_pal_rgba16_aligner
                0x0000000004025830                bouncyflower_bo9unceflower_ci4
                0x0000000004026030                bouncyflower_bo9unceflower_ci4_aligner
                0x0000000004026038                bouncyflower_sm64_material_045_lights
                0x0000000004026050                bouncyflower_sm64_material_044_lights
                0x0000000004026068                sparkles_animation_seg4_dl_04035360
                0x0000000004026080                sparkles_animation_seg4_dl_04035348
                0x0000000004026098                sparkles_animation_seg4_dl_04035330
                0x00000000040260b0                sparkles_animation_seg4_dl_04035318
                0x00000000040260c8                sparkles_animation_seg4_dl_04035300
                0x00000000040260e0                sparkles_animation_seg4_dl_04035288
                0x0000000004028990                white_particle_small_unused_dl
                0x00000000040289a8                white_particle_small_dl
                0x00000000040289c0                white_particle_small_dl_end
                0x00000000040289f0                white_particle_small_dl_begin
                0x0000000004028cd0                water_splash_seg4_dl_040326E8
                0x0000000004028ce8                water_splash_seg4_dl_040326D0
                0x0000000004028d00                water_splash_seg4_dl_040326B8
                0x0000000004028d18                water_splash_seg4_dl_040326A0
                0x0000000004028d30                water_splash_seg4_dl_04032688
                0x0000000004028d48                water_splash_seg4_dl_04032670
                0x0000000004028d60                water_splash_seg4_dl_04032658
                0x0000000004028d78                water_splash_seg4_dl_04032640
                0x0000000004028d90                water_splash_seg4_dl_040325C8
                0x0000000004030e40                sparkles_seg4_dl_0402A570
                0x0000000004030e58                sparkles_seg4_dl_0402A558
                0x0000000004030e70                sparkles_seg4_dl_0402A540
                0x0000000004030e88                sparkles_seg4_dl_0402A528
                0x0000000004030ea0                sparkles_seg4_dl_0402A510
                0x0000000004030eb8                sparkles_seg4_dl_0402A4F8
                0x0000000004030ed0                sparkles_seg4_dl_0402A490
                0x0000000004033f70                water_wave_seg4_dl_04027438
                0x0000000004033f88                water_wave_seg4_dl_04027420
                0x0000000004033fa0                water_wave_seg4_dl_04027408
                0x0000000004033fb8                water_wave_seg4_dl_040273F0
                0x0000000004033fd0                water_wave_seg4_dl_040273D8
                0x0000000004033fe8                water_wave_seg4_dl_040273A0
                0x0000000004034018                water_wave_seg4_dl_04027358
                0x00000000040360a0                stomp_smoke_seg4_dl_04025300
                0x00000000040360b8                stomp_smoke_seg4_dl_040252E8
                0x00000000040360d0                stomp_smoke_seg4_dl_040252D0
                0x00000000040360e8                stomp_smoke_seg4_dl_040252B8
                0x0000000004036100                stomp_smoke_seg4_dl_040252A0
                0x0000000004036118                stomp_smoke_seg4_dl_04025288
                0x0000000004036130                stomp_smoke_seg4_dl_04025270
                0x0000000004036148                stomp_smoke_seg4_dl_04025258
                0x0000000004036160                stomp_smoke_seg4_dl_04025240
                0x0000000004036178                stomp_smoke_seg4_dl_04025228
                0x0000000004036190                stomp_smoke_seg4_dl_04025210
                0x00000000040361a8                stomp_smoke_seg4_dl_040251F8
                0x00000000040361c0                stomp_smoke_seg4_dl_040251E0
                0x00000000040361d8                stomp_smoke_seg4_dl_040251C8
                0x00000000040361f0                stomp_smoke_seg4_dl_04025190
                0x0000000004036220                stomp_smoke_seg4_dl_04025148
                0x00000000040392e8                burn_smoke_seg4_dl_04022070
                0x0000000004039340                burn_smoke_seg4_dl_04022048
                0x0000000004039368                burn_smoke_seg4_dl_04022028
                0x0000000004039380                burn_smoke_seg4_dl_04022000
                0x0000000004039be8                smoke_seg4_dl_040217A8
                0x0000000004039c00                smoke_seg4_dl_04021790
                0x0000000004039c18                smoke_seg4_dl_04021778
                0x0000000004039c30                smoke_seg4_dl_04021760
                0x0000000004039c48                smoke_seg4_dl_04021748
                0x0000000004039c60                smoke_seg4_dl_04021730
                0x0000000004039c78                smoke_seg4_dl_04021718
                0x0000000004039c90                smoke_seg4_dl_040216A0
                0x0000000004040d40                bubble_seg4_dl_0401DDE0
                0x0000000004040db8                bubble_seg4_dl_0401DD60
                0x0000000004041a70                mario_material_revert_render_settings
                0x0000000004041ab0                mario_000_displaylist_005_mesh_layer_1_mat_override_metal_0
                0x0000000004041ae8                mario_000_displaylist_005_mesh_layer_1
                0x0000000004041b18                mario_000_displaylist_005_skinned_mesh_layer_1_mat_override_metal_0
                0x0000000004041b38                mario_000_displaylist_005_skinned_mesh_layer_1
                0x0000000004041b50                mario_000_offset_013_mesh_layer_1_mat_override_metal_0
                0x0000000004041b70                mario_000_offset_013_mesh_layer_1
                0x0000000004041b88                mario_000_offset_013_skinned_mesh_layer_1_mat_override_metal_0
                0x0000000004041ba8                mario_000_offset_013_skinned_mesh_layer_1
                0x0000000004041bc0                mario_000_offset_012_mesh_layer_1_mat_override_metal_0
                0x0000000004041be0                mario_000_offset_012_mesh_layer_1
                0x0000000004041bf8                mario_000_offset_012_skinned_mesh_layer_1_mat_override_metal_0
                0x0000000004041c18                mario_000_offset_012_skinned_mesh_layer_1
                0x0000000004041c30                mario_000_offset_011_mesh_layer_1_mat_override_metal_0
                0x0000000004041c68                mario_000_offset_011_mesh_layer_1
                0x0000000004041c98                mario_000_offset_011_skinned_mesh_layer_1_mat_override_metal_0
                0x0000000004041cb8                mario_000_offset_011_skinned_mesh_layer_1
                0x0000000004041cd0                mario_000_offset_010_mesh_layer_1_mat_override_metal_0
                0x0000000004041cf0                mario_000_offset_010_mesh_layer_1
                0x0000000004041d08                mario_000_offset_010_skinned_mesh_layer_1_mat_override_metal_0
                0x0000000004041d28                mario_000_offset_010_skinned_mesh_layer_1
                0x0000000004041d40                mario_000_offset_009_mesh_layer_1_mat_override_metal_0
                0x0000000004041d60                mario_000_offset_009_mesh_layer_1
                0x0000000004041d78                mario_000_offset_009_skinned_mesh_layer_1_mat_override_metal_0
                0x0000000004041d98                mario_000_offset_009_skinned_mesh_layer_1
                0x0000000004041db0                mario_006_switch_option_left_hand_wing_cap_wings_mesh_layer_4_mat_override_metal_0
                0x0000000004041de8                mario_006_switch_option_left_hand_wing_cap_wings_mesh_layer_4
                0x0000000004041e20                mario_006_switch_option_left_hand_wing_cap_mesh_layer_1_mat_override_metal_0
                0x0000000004041e58                mario_006_switch_option_left_hand_wing_cap_mesh_layer_1
                0x0000000004041e88                mario_005_switch_option_left_hand_cap_mesh_layer_1_mat_override_metal_0
                0x0000000004041ec0                mario_005_switch_option_left_hand_cap_mesh_layer_1
                0x0000000004041ef0                mario_004_switch_option_left_hand_peace_mesh_layer_1_mat_override_metal_0
                0x0000000004041f10                mario_004_switch_option_left_hand_peace_mesh_layer_1
                0x0000000004041f28                mario_002_switch_option_left_hand_open_mesh_layer_1_mat_override_metal_0
                0x0000000004041f48                mario_002_switch_option_left_hand_open_mesh_layer_1
                0x0000000004041f60                mario_000_displaylist_004_mesh_layer_1_mat_override_metal_0
                0x0000000004041f80                mario_000_displaylist_004_mesh_layer_1
                0x0000000004041f98                mario_000_offset_007_mesh_layer_1_mat_override_metal_0
                0x0000000004041fc0                mario_000_offset_007_mesh_layer_1
                0x0000000004041fe0                mario_000_offset_007_skinned_mesh_layer_1_mat_override_metal_0
                0x0000000004042000                mario_000_offset_007_skinned_mesh_layer_1
                0x0000000004042018                mario_000_offset_006_mesh_layer_1_mat_override_metal_0
                0x0000000004042040                mario_000_offset_006_mesh_layer_1
                0x0000000004042060                mario_000_offset_006_skinned_mesh_layer_1_mat_override_metal_0
                0x0000000004042080                mario_000_offset_006_skinned_mesh_layer_1
                0x0000000004042098                mario_002_switch_option_right_hand_open_mesh_layer_1_mat_override_metal_0
                0x00000000040420b8                mario_002_switch_option_right_hand_open_mesh_layer_1
                0x00000000040420d0                mario_000_displaylist_003_mesh_layer_1_mat_override_metal_0
                0x00000000040420f0                mario_000_displaylist_003_mesh_layer_1
                0x0000000004042108                mario_000_offset_004_mesh_layer_1_mat_override_metal_0
                0x0000000004042130                mario_000_offset_004_mesh_layer_1
                0x0000000004042150                mario_000_offset_004_skinned_mesh_layer_1_mat_override_metal_0
                0x0000000004042170                mario_000_offset_004_skinned_mesh_layer_1
                0x0000000004042188                mario_000_offset_003_mesh_layer_1_mat_override_metal_0
                0x00000000040421b0                mario_000_offset_003_mesh_layer_1
                0x00000000040421d0                mario_000_offset_003_skinned_mesh_layer_1_mat_override_metal_0
                0x00000000040421f0                mario_000_offset_003_skinned_mesh_layer_1
                0x0000000004042208                mario_000_displaylist_002_mesh_layer_4_mat_override_metal_0
                0x0000000004042228                mario_000_displaylist_002_mesh_layer_4
                0x0000000004042248                mario_000_displaylist_001_mesh_layer_4_mat_override_metal_0
                0x0000000004042268                mario_000_displaylist_001_mesh_layer_4
                0x0000000004042288                mario_002_switch_option_head__no_cap__mesh_layer_1_mat_override_face_7___eye_X_3
                0x00000000040422d0                mario_002_switch_option_head__no_cap__mesh_layer_1_mat_override_face_2___eye_closed_2
                0x0000000004042320                mario_002_switch_option_head__no_cap__mesh_layer_1_mat_override_face_1___eye_half_1
                0x0000000004042370                mario_002_switch_option_head__no_cap__mesh_layer_1_mat_override_metal_0
                0x00000000040423d8                mario_002_switch_option_head__no_cap__mesh_layer_1
                0x0000000004042428                mario_000_displaylist_mesh_layer_1_mat_override_face_7___eye_X_3
                0x0000000004042488                mario_000_displaylist_mesh_layer_1_mat_override_face_2___eye_closed_2
                0x00000000040424f0                mario_000_displaylist_mesh_layer_1_mat_override_face_1___eye_half_1
                0x0000000004042558                mario_000_displaylist_mesh_layer_1_mat_override_metal_0
                0x00000000040425d8                mario_000_displaylist_mesh_layer_1
                0x0000000004042640                mario_000_offset_001_mesh_layer_1_mat_override_metal_0
                0x0000000004042698                mario_000_offset_001_mesh_layer_1
                0x00000000040426e0                mario_000_offset_001_skinned_mesh_layer_1_mat_override_metal_0
                0x0000000004042700                mario_000_offset_001_skinned_mesh_layer_1
                0x0000000004042718                mario_000_offset_mesh_layer_1_mat_override_metal_0
                0x0000000004042738                mario_000_offset_mesh_layer_1
                0x0000000004042750                mat_revert_mario_shoes
                0x0000000004042768                mat_mario_shoes
                0x0000000004042818                mat_revert_mario_wing_2
                0x0000000004042830                mat_mario_wing_2
                0x0000000004042898                mat_mario_gloves
                0x00000000040428d0                mat_revert_mario_wing_1
                0x00000000040428e8                mat_mario_wing_1
                0x0000000004042950                mat_mario_face_7___eye_X
                0x00000000040429c8                mat_revert_mario_face_2___eye_closed
                0x00000000040429e0                mat_mario_face_2___eye_closed
                0x0000000004042a90                mat_revert_mario_face_1___eye_half
                0x0000000004042aa8                mat_mario_face_1___eye_half
                0x0000000004042b58                mat_mario_sideburns
                0x0000000004042bd0                mat_mario_hair
                0x0000000004042c08                mat_mario_mustache
                0x0000000004042c80                mat_revert_mario_cap
                0x0000000004042c98                mat_mario_cap
                0x0000000004042d48                mat_revert_mario_face_0___eye_open
                0x0000000004042d60                mat_mario_face_0___eye_open
                0x0000000004042e10                mat_revert_mario_body
                0x0000000004042e28                mat_mario_body
                0x0000000004042ed8                mat_mario_red
                0x0000000004042f10                mat_revert_mario_metal
                0x0000000004042f30                mat_mario_metal
                0x0000000004042fd0                mat_mario_blue
                0x0000000004043008                mario_000_displaylist_005_mesh_layer_1_tri_1
                0x0000000004043070                mario_000_displaylist_005_mesh_layer_1_vtx_1
                0x00000000040431e0                mario_000_displaylist_005_mesh_layer_1_tri_0
                0x0000000004043220                mario_000_displaylist_005_mesh_layer_1_vtx_0
                0x0000000004043280                mario_000_displaylist_005_skinned_mesh_layer_1_tri_0
                0x0000000004043290                mario_000_displaylist_005_skinned_mesh_layer_1_vtx_0
                0x00000000040432e0                mario_000_offset_013_mesh_layer_1_tri_0
                0x0000000004043318                mario_000_offset_013_mesh_layer_1_vtx_0
                0x0000000004043368                mario_000_offset_013_skinned_mesh_layer_1_tri_0
                0x0000000004043378                mario_000_offset_013_skinned_mesh_layer_1_vtx_0
                0x00000000040433c8                mario_000_offset_012_mesh_layer_1_tri_0
                0x0000000004043410                mario_000_offset_012_mesh_layer_1_vtx_0
                0x0000000004043470                mario_000_offset_012_skinned_mesh_layer_1_tri_0
                0x0000000004043480                mario_000_offset_012_skinned_mesh_layer_1_vtx_0
                0x0000000004043520                mario_000_offset_011_mesh_layer_1_tri_1
                0x0000000004043588                mario_000_offset_011_mesh_layer_1_vtx_1
                0x00000000040436f8                mario_000_offset_011_mesh_layer_1_tri_0
                0x0000000004043738                mario_000_offset_011_mesh_layer_1_vtx_0
                0x0000000004043798                mario_000_offset_011_skinned_mesh_layer_1_tri_0
                0x00000000040437a8                mario_000_offset_011_skinned_mesh_layer_1_vtx_0
                0x00000000040437f8                mario_000_offset_010_mesh_layer_1_tri_0
                0x0000000004043830                mario_000_offset_010_mesh_layer_1_vtx_0
                0x0000000004043880                mario_000_offset_010_skinned_mesh_layer_1_tri_0
                0x0000000004043890                mario_000_offset_010_skinned_mesh_layer_1_vtx_0
                0x00000000040438e0                mario_000_offset_009_mesh_layer_1_tri_0
                0x0000000004043928                mario_000_offset_009_mesh_layer_1_vtx_0
                0x0000000004043988                mario_000_offset_009_skinned_mesh_layer_1_tri_0
                0x0000000004043998                mario_000_offset_009_skinned_mesh_layer_1_vtx_0
                0x0000000004043a38                mario_006_switch_option_left_hand_wing_cap_wings_mesh_layer_4_tri_1
                0x0000000004043a58                mario_006_switch_option_left_hand_wing_cap_wings_mesh_layer_4_vtx_1
                0x0000000004043ad8                mario_006_switch_option_left_hand_wing_cap_wings_mesh_layer_4_tri_0
                0x0000000004043af8                mario_006_switch_option_left_hand_wing_cap_wings_mesh_layer_4_vtx_0
                0x0000000004043b78                mario_006_switch_option_left_hand_wing_cap_mesh_layer_1_tri_1
                0x0000000004043c40                mario_006_switch_option_left_hand_wing_cap_mesh_layer_1_vtx_1
                0x0000000004043e20                mario_006_switch_option_left_hand_wing_cap_mesh_layer_1_tri_0
                0x0000000004043f08                mario_006_switch_option_left_hand_wing_cap_mesh_layer_1_vtx_0
                0x00000000040441f8                mario_005_switch_option_left_hand_cap_mesh_layer_1_tri_1
                0x00000000040442c0                mario_005_switch_option_left_hand_cap_mesh_layer_1_vtx_1
                0x00000000040444a0                mario_005_switch_option_left_hand_cap_mesh_layer_1_tri_0
                0x0000000004044588                mario_005_switch_option_left_hand_cap_mesh_layer_1_vtx_0
                0x0000000004044878                mario_004_switch_option_left_hand_peace_mesh_layer_1_tri_0
                0x00000000040449b8                mario_004_switch_option_left_hand_peace_mesh_layer_1_vtx_0
                0x0000000004044d88                mario_002_switch_option_left_hand_open_mesh_layer_1_tri_0
                0x0000000004044ea0                mario_002_switch_option_left_hand_open_mesh_layer_1_vtx_0
                0x0000000004045140                mario_000_displaylist_004_mesh_layer_1_tri_0
                0x0000000004045208                mario_000_displaylist_004_mesh_layer_1_vtx_0
                0x00000000040453e8                mario_000_offset_007_mesh_layer_1_tri_1
                0x0000000004045418                mario_000_offset_007_mesh_layer_1_vtx_1
                0x0000000004045498                mario_000_offset_007_mesh_layer_1_tri_0
                0x00000000040454d8                mario_000_offset_007_mesh_layer_1_vtx_0
                0x0000000004045538                mario_000_offset_007_skinned_mesh_layer_1_tri_0
                0x0000000004045548                mario_000_offset_007_skinned_mesh_layer_1_vtx_0
                0x00000000040455a8                mario_000_offset_006_mesh_layer_1_tri_1
                0x00000000040455e0                mario_000_offset_006_mesh_layer_1_vtx_1
                0x0000000004045690                mario_000_offset_006_mesh_layer_1_tri_0
                0x00000000040456d0                mario_000_offset_006_mesh_layer_1_vtx_0
                0x0000000004045730                mario_000_offset_006_skinned_mesh_layer_1_tri_0
                0x0000000004045740                mario_000_offset_006_skinned_mesh_layer_1_vtx_0
                0x00000000040457a0                mario_002_switch_option_right_hand_open_mesh_layer_1_tri_0
                0x00000000040458b8                mario_002_switch_option_right_hand_open_mesh_layer_1_vtx_0
                0x0000000004045b58                mario_000_displaylist_003_mesh_layer_1_tri_0
                0x0000000004045c20                mario_000_displaylist_003_mesh_layer_1_vtx_0
                0x0000000004045e00                mario_000_offset_004_mesh_layer_1_tri_1
                0x0000000004045e30                mario_000_offset_004_mesh_layer_1_vtx_1
                0x0000000004045eb0                mario_000_offset_004_mesh_layer_1_tri_0
                0x0000000004045ef8                mario_000_offset_004_mesh_layer_1_vtx_0
                0x0000000004045f58                mario_000_offset_004_skinned_mesh_layer_1_tri_0
                0x0000000004045f68                mario_000_offset_004_skinned_mesh_layer_1_vtx_0
                0x0000000004045fd8                mario_000_offset_003_mesh_layer_1_tri_1
                0x0000000004046010                mario_000_offset_003_mesh_layer_1_vtx_1
                0x00000000040460b0                mario_000_offset_003_mesh_layer_1_tri_0
                0x00000000040460f0                mario_000_offset_003_mesh_layer_1_vtx_0
                0x0000000004046150                mario_000_offset_003_skinned_mesh_layer_1_tri_0
                0x0000000004046160                mario_000_offset_003_skinned_mesh_layer_1_vtx_0
                0x00000000040461c0                mario_000_displaylist_002_mesh_layer_4_tri_0
                0x00000000040461d8                mario_000_displaylist_002_mesh_layer_4_vtx_0
                0x0000000004046218                mario_000_displaylist_001_mesh_layer_4_tri_0
                0x0000000004046230                mario_000_displaylist_001_mesh_layer_4_vtx_0
                0x0000000004046270                mario_002_switch_option_head__no_cap__mesh_layer_1_tri_3
                0x00000000040462a0                mario_002_switch_option_head__no_cap__mesh_layer_1_vtx_3
                0x0000000004046360                mario_002_switch_option_head__no_cap__mesh_layer_1_tri_2
                0x00000000040463b0                mario_002_switch_option_head__no_cap__mesh_layer_1_vtx_2
                0x00000000040464d0                mario_002_switch_option_head__no_cap__mesh_layer_1_tri_1
                0x0000000004046660                mario_002_switch_option_head__no_cap__mesh_layer_1_vtx_1
                0x0000000004046bd0                mario_002_switch_option_head__no_cap__mesh_layer_1_tri_0
                0x0000000004046d40                mario_002_switch_option_head__no_cap__mesh_layer_1_vtx_0
                0x00000000040472a0                mario_000_displaylist_mesh_layer_1_tri_4
                0x00000000040472d0                mario_000_displaylist_mesh_layer_1_vtx_4
                0x0000000004047390                mario_000_displaylist_mesh_layer_1_tri_3
                0x0000000004047400                mario_000_displaylist_mesh_layer_1_vtx_3
                0x0000000004047540                mario_000_displaylist_mesh_layer_1_tri_2
                0x0000000004047590                mario_000_displaylist_mesh_layer_1_vtx_2
                0x00000000040476b0                mario_000_displaylist_mesh_layer_1_tri_1
                0x0000000004047788                mario_000_displaylist_mesh_layer_1_vtx_1
                0x0000000004047a98                mario_000_displaylist_mesh_layer_1_tri_0
                0x0000000004047c28                mario_000_displaylist_mesh_layer_1_vtx_0
                0x00000000040481b8                mario_000_offset_001_mesh_layer_1_tri_3
                0x00000000040481e8                mario_000_offset_001_mesh_layer_1_vtx_3
                0x00000000040482a8                mario_000_offset_001_mesh_layer_1_tri_2
                0x00000000040482f0                mario_000_offset_001_mesh_layer_1_vtx_2
                0x0000000004048420                mario_000_offset_001_mesh_layer_1_tri_1
                0x00000000040484c0                mario_000_offset_001_mesh_layer_1_vtx_1
                0x0000000004048760                mario_000_offset_001_mesh_layer_1_tri_0
                0x00000000040487c8                mario_000_offset_001_mesh_layer_1_vtx_0
                0x0000000004048878                mario_000_offset_001_skinned_mesh_layer_1_tri_0
                0x0000000004048888                mario_000_offset_001_skinned_mesh_layer_1_vtx_0
                0x0000000004048938                mario_000_offset_mesh_layer_1_tri_0
                0x0000000004048998                mario_000_offset_mesh_layer_1_vtx_0
                0x0000000004048ad8                mario_mario_shoe_ci4_pal_rgba16
                0x0000000004048ae0                mario_mario_shoe_ci4_pal_rgba16_aligner
                0x0000000004048ae8                mario_mario_shoe_ci4
                0x0000000004048b28                mario_mario_shoe_ci4_aligner
                0x0000000004048b30                mario_wing_2_rgba16
                0x0000000004049b30                mario_wing_2_rgba16_aligner
                0x0000000004049b38                mario_wing_raymarch_alpha_test_v0_ia8
                0x000000000404ab38                mario_wing_raymarch_alpha_test_v0_ia8_aligner
                0x000000000404ab40                mario_mario_eye3_ia8
                0x000000000404b340                mario_mario_eye3_ia8_aligner
                0x000000000404b348                mario_raymarch_eye_attempt5_close_ci8_pal_rgba16
                0x000000000404b448                mario_raymarch_eye_attempt5_close_ci8_pal_rgba16_aligner
                0x000000000404b450                mario_raymarch_eye_attempt5_close_ci8
                0x000000000404bc50                mario_raymarch_eye_attempt5_close_ci8_aligner
                0x000000000404bc58                mario_raymarch_eye_attempt5_halfclose_ci8_pal_rgba16
                0x000000000404be08                mario_raymarch_eye_attempt5_halfclose_ci8_pal_rgba16_aligner
                0x000000000404be10                mario_raymarch_eye_attempt5_halfclose_ci8
                0x000000000404c610                mario_raymarch_eye_attempt5_halfclose_ci8_aligner
                0x000000000404c618                mario_mario_sideburn_raymarch_aa_v1_rgba16
                0x000000000404d618                mario_mario_sideburn_raymarch_aa_v1_rgba16_aligner
                0x000000000404d620                mario_mustach_ult_raymarch_aa_v0_ia8
                0x000000000404de20                mario_mustach_ult_raymarch_aa_v0_ia8_aligner
                0x000000000404de28                mario_mario_logo_rgba16_ci4_pal_rgba16
                0x000000000404de48                mario_mario_logo_rgba16_ci4_pal_rgba16_aligner
                0x000000000404de50                mario_mario_logo_rgba16_ci4
                0x000000000404e650                mario_mario_logo_rgba16_ci4_aligner
                0x000000000404e658                mario_raymarch_eye_attempt5_ci8_pal_rgba16
                0x000000000404e7d8                mario_raymarch_eye_attempt5_ci8_pal_rgba16_aligner
                0x000000000404e7e0                mario_raymarch_eye_attempt5_ci8
                0x000000000404efe0                mario_raymarch_eye_attempt5_ci8_aligner
                0x000000000404efe8                mario_mario_button_ci4_ci4_pal_rgba16
                0x000000000404f008                mario_mario_button_ci4_ci4_pal_rgba16_aligner
                0x000000000404f010                mario_mario_button_ci4_ci4
                0x000000000404f810                mario_mario_button_ci4_ci4_aligner
                0x000000000404f818                mario_fortn_ice_mario_2_ci8_pal_rgba16
                0x000000000404f8c8                mario_fortn_ice_mario_2_ci8_pal_rgba16_aligner
                0x000000000404f8d0                mario_fortn_ice_mario_2_ci8
                0x000000000404fcd0                mario_fortn_ice_mario_2_ci8_aligner
                0x000000000404fcd8                mario_shoes_lights
                0x000000000404fcf0                mario_gloves_lights
                0x000000000404fd08                mario_face_7___eye_X_lights
                0x000000000404fd20                mario_face_2___eye_closed_lights
                0x000000000404fd38                mario_face_1___eye_half_lights
                0x000000000404fd50                mario_sideburns_lights
                0x000000000404fd68                mario_hair_lights
                0x000000000404fd80                mario_mustache_lights
                0x000000000404fd98                mario_cap_lights
                0x000000000404fdb0                mario_face_0___eye_open_lights
                0x000000000404fdc8                mario_body_lights
                0x000000000404fde0                mario_red_lights
                0x000000000404fdf8                mario_blue_lights

.data1
 *(.data1)

.got.plt
 *(.got.plt)
                0x000000000404fe10                . = .
                0x0000000004057e00                _gp = (ALIGN (0x10) + 0x7ff0)

.got
 *(.got)

.sdata
 *(.sdata .sdata.* .gnu.linkonce.s.*)

.lit8
 *(.lit8)

.lit4
 *(.lit4)
                0x000000000404fe10                _edata = .
                [!provide]                        PROVIDE (edata = .)
                0x000000000404fe10                . = .
                0x000000000404fe10                __bss_start = .
                0x000000000404fe10                _fbss = .

.sbss
 *(.dynsbss)
 *(.sbss .sbss.* .gnu.linkonce.sb.*)
 *(.scommon)

.bss            0x000000000404fe10        0x0
 *(.dynbss)
 *(.bss .bss.* .gnu.linkonce.b.*)
 .bss           0x000000000404fe10        0x0 build/us/actors/group0.o
 *(COMMON)
                0x000000000404fe10                . = ALIGN ((. != 0x0)?0x4:0x1)
                0x000000000404fe10                . = ALIGN (0x4)
                0x000000000404fe10                . = SEGMENT_START ("ldata-segment", .)
                0x000000000404fe10                . = ALIGN (0x4)
                0x000000000404fe10                _end = .
                [!provide]                        PROVIDE (end = .)
                0x000000000404fe10                . = DATA_SEGMENT_END (.)

.stab
 *(.stab)

.stabstr
 *(.stabstr)

.stab.excl
 *(.stab.excl)

.stab.exclstr
 *(.stab.exclstr)

.stab.index
 *(.stab.index)

.stab.indexstr
 *(.stab.indexstr)

.comment        0x0000000000000000       0x12
 *(.comment)
 .comment       0x0000000000000000       0x12 build/us/actors/group0.o
                                         0x13 (size before relaxing)

.pdr            0x0000000000000000        0x0
 .pdr           0x0000000000000000        0x0 build/us/actors/group0.o

.gnu.build.attributes
 *(.gnu.build.attributes .gnu.build.attributes.*)

.debug
 *(.debug)

.line
 *(.line)

.debug_srcinfo
 *(.debug_srcinfo)

.debug_sfnames
 *(.debug_sfnames)

.debug_aranges
 *(.debug_aranges)

.debug_pubnames
 *(.debug_pubnames)

.debug_info
 *(.debug_info .gnu.linkonce.wi.*)

.debug_abbrev
 *(.debug_abbrev)

.debug_line
 *(.debug_line .debug_line.* .debug_line_end)

.debug_frame
 *(.debug_frame)

.debug_str
 *(.debug_str)

.debug_loc
 *(.debug_loc)

.debug_macinfo
 *(.debug_macinfo)

.debug_weaknames
 *(.debug_weaknames)

.debug_funcnames
 *(.debug_funcnames)

.debug_typenames
 *(.debug_typenames)

.debug_varnames
 *(.debug_varnames)

.debug_pubtypes
 *(.debug_pubtypes)

.debug_ranges
 *(.debug_ranges)

.debug_addr
 *(.debug_addr)

.debug_line_str
 *(.debug_line_str)

.debug_loclists
 *(.debug_loclists)

.debug_macro
 *(.debug_macro)

.debug_names
 *(.debug_names)

.debug_rnglists
 *(.debug_rnglists)

.debug_str_offsets
 *(.debug_str_offsets)

.debug_sup
 *(.debug_sup)

.gnu.attributes
                0x0000000000000000       0x10
 *(.gnu.attributes)
 .gnu.attributes
                0x0000000000000000       0x10 build/us/actors/group0.o

.gptab.sdata
 *(.gptab.data)
 *(.gptab.sdata)

.gptab.sbss
 *(.gptab.bss)
 *(.gptab.sbss)

.mdebug.abi32   0x0000000000000000        0x0
 *(.mdebug.abi32)
 .mdebug.abi32  0x0000000000000000        0x0 build/us/actors/group0.o

.mdebug.abiN32
 *(.mdebug.abiN32)

.mdebug.abi64
 *(.mdebug.abi64)

.mdebug.abiO64
 *(.mdebug.abiO64)

.mdebug.eabi32
 *(.mdebug.eabi32)

.mdebug.eabi64
 *(.mdebug.eabi64)

.gcc_compiled_long32
 *(.gcc_compiled_long32)

.gcc_compiled_long64
 *(.gcc_compiled_long64)

/DISCARD/
 *(.note.GNU-stack)
 *(.gnu_debuglink)
 *(.gnu.lto_*)
OUTPUT(build/us/actors/group0.elf elf32-bigmips)
