
Memory Configuration

Name             Origin             Length             Attributes
*default*        0x0000000000000000 0xffffffffffffffff

Linker script and memory map

Address of section .text set to 0x5000000
LOAD build/us/actors/group10.o
                [!provide]                        PROVIDE (__executable_start = SEGMENT_START ("text-segment", 0x400000))
                0x0000000000400000                . = SEGMENT_START ("text-segment", 0x400000)

.interp
 *(.interp)

.MIPS.abiflags  0x0000000000400000       0x18
 *(.MIPS.abiflags)
 .MIPS.abiflags
                0x0000000000400000       0x18 build/us/actors/group10.o

.reginfo        0x0000000000400018       0x18
 *(.reginfo)
 .reginfo       0x0000000000400018       0x18 build/us/actors/group10.o

.MIPS.xhash
 *(.MIPS.xhash)

.note.gnu.build-id
 *(.note.gnu.build-id)

.dynamic
 *(.dynamic)

.hash
 *(.hash)

.gnu.hash
 *(.gnu.hash)

.dynsym
 *(.dynsym)

.dynstr
 *(.dynstr)

.gnu.version
 *(.gnu.version)

.gnu.version_d
 *(.gnu.version_d)

.gnu.version_r
 *(.gnu.version_r)

.rel.dyn        0x0000000000400018        0x0
 *(.rel.init)
 *(.rel.text .rel.text.* .rel.gnu.linkonce.t.*)
 *(.rel.fini)
 *(.rel.rodata .rel.rodata.* .rel.gnu.linkonce.r.*)
 *(.rel.data.rel.ro .rel.data.rel.ro.* .rel.gnu.linkonce.d.rel.ro.*)
 *(.rel.data .rel.data.* .rel.gnu.linkonce.d.*)
 *(.rel.tdata .rel.tdata.* .rel.gnu.linkonce.td.*)
 *(.rel.tbss .rel.tbss.* .rel.gnu.linkonce.tb.*)
 *(.rel.ctors)
 *(.rel.dtors)
 *(.rel.got)
 *(.rel.dyn)
 .rel.dyn       0x0000000000400018        0x0 build/us/actors/group10.o
 *(.rel.sdata .rel.sdata.* .rel.gnu.linkonce.s.*)
 *(.rel.sbss .rel.sbss.* .rel.gnu.linkonce.sb.*)
 *(.rel.sdata2 .rel.sdata2.* .rel.gnu.linkonce.s2.*)
 *(.rel.sbss2 .rel.sbss2.* .rel.gnu.linkonce.sb2.*)
 *(.rel.bss .rel.bss.* .rel.gnu.linkonce.b.*)
                [!provide]                        PROVIDE (__rel_iplt_start = .)
 *(.rel.iplt)
                [!provide]                        PROVIDE (__rel_iplt_end = .)

.rela.dyn       0x0000000000400018        0x0
 *(.rela.init)
 *(.rela.text .rela.text.* .rela.gnu.linkonce.t.*)
 *(.rela.fini)
 *(.rela.rodata .rela.rodata.* .rela.gnu.linkonce.r.*)
 *(.rela.data .rela.data.* .rela.gnu.linkonce.d.*)
 *(.rela.tdata .rela.tdata.* .rela.gnu.linkonce.td.*)
 *(.rela.tbss .rela.tbss.* .rela.gnu.linkonce.tb.*)
 *(.rela.ctors)
 *(.rela.dtors)
 *(.rela.got)
 *(.rela.sdata .rela.sdata.* .rela.gnu.linkonce.s.*)
 *(.rela.sbss .rela.sbss.* .rela.gnu.linkonce.sb.*)
 *(.rela.sdata2 .rela.sdata2.* .rela.gnu.linkonce.s2.*)
 *(.rela.sbss2 .rela.sbss2.* .rela.gnu.linkonce.sb2.*)
 *(.rela.bss .rela.bss.* .rela.gnu.linkonce.b.*)
                [!provide]                        PROVIDE (__rela_iplt_start = .)
 *(.rela.iplt)
                [!provide]                        PROVIDE (__rela_iplt_end = .)

.rel.plt
 *(.rel.plt)

.rela.plt
 *(.rela.plt)

.init
 *(SORT_NONE(.init))

.plt
 *(.plt)

.iplt
 *(.iplt)

.text           0x0000000005000000        0x0
                0x0000000005000000                _ftext = .
 *(.text.unlikely .text.*_unlikely .text.unlikely.*)
 *(.text.exit .text.exit.*)
 *(.text.startup .text.startup.*)
 *(.text.hot .text.hot.*)
 *(SORT_BY_NAME(.text.sorted.*))
 *(.text .stub .text.* .gnu.linkonce.t.*)
 .text          0x0000000005000000        0x0 build/us/actors/group10.o
 *(.gnu.warning)
 *(.mips16.fn.*)
 *(.mips16.call.*)

.fini
 *(SORT_NONE(.fini))
                [!provide]                        PROVIDE (__etext = .)
                [!provide]                        PROVIDE (_etext = .)
                [!provide]                        PROVIDE (etext = .)

.rodata
 *(.rodata .rodata.* .gnu.linkonce.r.*)

.rodata1
 *(.rodata1)

.sdata2
 *(.sdata2 .sdata2.* .gnu.linkonce.s2.*)

.sbss2
 *(.sbss2 .sbss2.* .gnu.linkonce.sb2.*)

.eh_frame_hdr
 *(.eh_frame_hdr)
 *(.eh_frame_entry .eh_frame_entry.*)

.eh_frame
 *(.eh_frame)
 *(.eh_frame.*)

.gcc_except_table
 *(.gcc_except_table .gcc_except_table.*)

.gnu_extab
 *(.gnu_extab*)

.exception_ranges
 *(.exception_ranges*)
                0x0000000005000000                . = DATA_SEGMENT_ALIGN (CONSTANT (MAXPAGESIZE), CONSTANT (COMMONPAGESIZE))

.eh_frame
 *(.eh_frame)
 *(.eh_frame.*)

.gnu_extab
 *(.gnu_extab)

.gcc_except_table
 *(.gcc_except_table .gcc_except_table.*)

.exception_ranges
 *(.exception_ranges*)

.tdata          0x0000000005000000        0x0
                [!provide]                        PROVIDE (__tdata_start = .)
 *(.tdata .tdata.* .gnu.linkonce.td.*)

.tbss
 *(.tbss .tbss.* .gnu.linkonce.tb.*)
 *(.tcommon)

.preinit_array  0x0000000005000000        0x0
                [!provide]                        PROVIDE (__preinit_array_start = .)
 *(.preinit_array)
                [!provide]                        PROVIDE (__preinit_array_end = .)

.init_array     0x0000000005000000        0x0
                [!provide]                        PROVIDE (__init_array_start = .)
 *(SORT_BY_INIT_PRIORITY(.init_array.*) SORT_BY_INIT_PRIORITY(.ctors.*))
 *(.init_array EXCLUDE_FILE(*crtend?.o *crtend.o *crtbegin?.o *crtbegin.o) .ctors)
                [!provide]                        PROVIDE (__init_array_end = .)

.fini_array     0x0000000005000000        0x0
                [!provide]                        PROVIDE (__fini_array_start = .)
 *(SORT_BY_INIT_PRIORITY(.fini_array.*) SORT_BY_INIT_PRIORITY(.dtors.*))
 *(.fini_array EXCLUDE_FILE(*crtend?.o *crtend.o *crtbegin?.o *crtbegin.o) .dtors)
                [!provide]                        PROVIDE (__fini_array_end = .)

.ctors
 *crtbegin.o(.ctors)
 *crtbegin?.o(.ctors)
 *(EXCLUDE_FILE(*crtend?.o *crtend.o) .ctors)
 *(SORT_BY_NAME(.ctors.*))
 *(.ctors)

.dtors
 *crtbegin.o(.dtors)
 *crtbegin?.o(.dtors)
 *(EXCLUDE_FILE(*crtend?.o *crtend.o) .dtors)
 *(SORT_BY_NAME(.dtors.*))
 *(.dtors)

.jcr
 *(.jcr)

.data.rel.ro
 *(.data.rel.ro.local* .gnu.linkonce.d.rel.ro.local.*)
 *(.data.rel.ro .data.rel.ro.* .gnu.linkonce.d.rel.ro.*)
                0x0000000005000000                . = DATA_SEGMENT_RELRO_END (., 0x0)

.data           0x0000000005000000    0x22238
                0x0000000005000000                _fdata = .
 *(.data .data.* .gnu.linkonce.d.*)
 .data          0x0000000005000000    0x22238 build/us/actors/group10.o
                0x0000000005000000                yoshi_seg5_anims_05024100
                0x0000000005001938                yoshi_seg5_dl_05022608
                0x0000000005001a48                yoshi_seg5_dl_05022408
                0x0000000005001b88                yoshi_seg5_dl_050222A8
                0x0000000005001c60                yoshi_seg5_dl_05022160
                0x0000000005001d28                yoshi_seg5_dl_05021F70
                0x0000000005001e58                yoshi_seg5_dl_05021E38
                0x0000000005001f18                yoshi_seg5_dl_05021CD8
                0x0000000005001ff0                yoshi_seg5_dl_05021B90
                0x00000000050020b8                yoshi_seg5_dl_050219A0
                0x00000000050021e8                yoshi_seg5_dl_05021900
                0x0000000005002248                yoshi_seg5_dl_05021860
                0x00000000050022a8                yoshi_seg5_dl_05021718
                0x0000000005002378                yoshi_seg5_dl_05021678
                0x00000000050023d8                yoshi_seg5_dl_050215D8
                0x0000000005002438                yoshi_seg5_dl_05021490
                0x0000000005002508                yoshi_seg5_dl_050212B0
                0x0000000005005f00                yoshi_seg5_dl_0501D998
                0x0000000005005f28                yoshi_seg5_dl_0501D970
                0x0000000005005f50                yoshi_seg5_dl_0501D940
                0x0000000005005f80                yoshi_seg5_dl_0501D8F8
                0x0000000005005fc8                yoshi_seg5_dl_0501D4E0
                0x0000000005006230                yoshi_seg5_dl_0501D488
                0x0000000005006270                yoshi_seg5_dl_0501D440
                0x0000000005007298                peach_seg5_anims_0501C41C
                0x00000000050195c0                peach_seg5_us_dl_0500A188
                0x0000000005019648                peach_seg5_dl_0500A0A8
                0x00000000050196c8                peach_seg5_dl_05009E20
                0x0000000005019cf8                peach_seg5_dl_05009940
                0x0000000005019d20                peach_seg5_dl_050097C0
                0x000000000501a098                peach_seg5_dl_05009500
                0x000000000501a0c0                peach_seg5_dl_05009388
                0x000000000501a3b0                peach_seg5_dl_05009148
                0x000000000501a3d8                peach_seg5_dl_05009060
                0x000000000501a578                peach_seg5_dl_05008F20
                0x000000000501a5a0                peach_seg5_dl_05008E38
                0x000000000501a740                peach_seg5_dl_05008CF8
                0x000000000501a768                peach_seg5_dl_05008C18
                0x000000000501a8e0                peach_seg5_dl_05008AB0
                0x000000000501a950                peach_seg5_dl_05008A10
                0x000000000501a9a8                peach_seg5_dl_05008978
                0x000000000501abb8                peach_seg5_dl_050087A8
                0x000000000501abe0                peach_seg5_dl_050086C8
                0x000000000501ad60                peach_seg5_dl_05008560
                0x000000000501add0                peach_seg5_dl_050084C0
                0x000000000501ae28                peach_seg5_dl_05008428
                0x000000000501b038                peach_seg5_dl_05008228
                0x000000000501b090                peach_seg5_dl_050080B8
                0x000000000501b378                peach_seg5_dl_05007E58
                0x000000000501b3d0                peach_seg5_dl_05007CE8
                0x000000000501b6b0                peach_seg5_dl_05007AB8
                0x000000000501b6d8                peach_seg5_dl_05007810
                0x000000000501bde0                peach_seg5_us_dl_05007288
                0x000000000501be40                peach_seg5_dl_05007230
                0x000000000501be98                peach_seg5_dl_05006FA8
                0x000000000501c528                peach_seg5_dl_05006A18
                0x000000000501c5a0                peach_seg5_dl_05006798
                0x000000000501c730                peach_seg5_dl_05006728
                0x000000000501cd78                peach_seg5_dl_050060E0
                0x000000000501cdd0                peach_seg5_dl_05006058
                0x000000000501cee8                peach_seg5_dl_05005F48
                0x000000000501cf40                peach_seg5_dl_05005EF0
                0x000000000501cf98                peach_seg5_dl_05005E98
                0x000000000501cff0                peach_seg5_dl_05005E40
                0x000000000501d048                peach_seg5_dl_05005DE8
                0x000000000501d0a0                peach_seg5_dl_05005D90
                0x000000000501d0f8                peach_seg5_dl_05005D38
                0x000000000501d150                peach_seg5_dl_05005CE0
                0x000000000501d1a8                peach_seg5_dl_05005CB0
                0x000000000501d1d8                peach_seg5_dl_05005C48
                0x000000000501d240                peach_seg5_dl_050058E0
                0x000000000501d430                peach_seg5_dl_050058B8
                0x000000000501d450                peach_seg5_dl_05005780
                0x000000000501d508                peach_seg5_dl_05005750
                0x000000000501d538                peach_seg5_dl_05005648

.data1
 *(.data1)

.got.plt
 *(.got.plt)
                0x0000000005022238                . = .
                0x000000000502a230                _gp = (ALIGN (0x10) + 0x7ff0)

.got
 *(.got)

.sdata
 *(.sdata .sdata.* .gnu.linkonce.s.*)

.lit8
 *(.lit8)

.lit4
 *(.lit4)
                0x0000000005022238                _edata = .
                [!provide]                        PROVIDE (edata = .)
                0x0000000005022238                . = .
                0x0000000005022238                __bss_start = .
                0x0000000005022238                _fbss = .

.sbss
 *(.dynsbss)
 *(.sbss .sbss.* .gnu.linkonce.sb.*)
 *(.scommon)

.bss            0x0000000005022238        0x0
 *(.dynbss)
 *(.bss .bss.* .gnu.linkonce.b.*)
 .bss           0x0000000005022238        0x0 build/us/actors/group10.o
 *(COMMON)
                0x0000000005022238                . = ALIGN ((. != 0x0)?0x4:0x1)
                0x0000000005022238                . = ALIGN (0x4)
                0x0000000005022238                . = SEGMENT_START ("ldata-segment", .)
                0x0000000005022238                . = ALIGN (0x4)
                0x0000000005022238                _end = .
                [!provide]                        PROVIDE (end = .)
                0x0000000005022238                . = DATA_SEGMENT_END (.)

.stab
 *(.stab)

.stabstr
 *(.stabstr)

.stab.excl
 *(.stab.excl)

.stab.exclstr
 *(.stab.exclstr)

.stab.index
 *(.stab.index)

.stab.indexstr
 *(.stab.indexstr)

.comment        0x0000000000000000       0x12
 *(.comment)
 .comment       0x0000000000000000       0x12 build/us/actors/group10.o
                                         0x13 (size before relaxing)

.pdr            0x0000000000000000        0x0
 .pdr           0x0000000000000000        0x0 build/us/actors/group10.o

.gnu.build.attributes
 *(.gnu.build.attributes .gnu.build.attributes.*)

.debug
 *(.debug)

.line
 *(.line)

.debug_srcinfo
 *(.debug_srcinfo)

.debug_sfnames
 *(.debug_sfnames)

.debug_aranges
 *(.debug_aranges)

.debug_pubnames
 *(.debug_pubnames)

.debug_info
 *(.debug_info .gnu.linkonce.wi.*)

.debug_abbrev
 *(.debug_abbrev)

.debug_line
 *(.debug_line .debug_line.* .debug_line_end)

.debug_frame
 *(.debug_frame)

.debug_str
 *(.debug_str)

.debug_loc
 *(.debug_loc)

.debug_macinfo
 *(.debug_macinfo)

.debug_weaknames
 *(.debug_weaknames)

.debug_funcnames
 *(.debug_funcnames)

.debug_typenames
 *(.debug_typenames)

.debug_varnames
 *(.debug_varnames)

.debug_pubtypes
 *(.debug_pubtypes)

.debug_ranges
 *(.debug_ranges)

.debug_addr
 *(.debug_addr)

.debug_line_str
 *(.debug_line_str)

.debug_loclists
 *(.debug_loclists)

.debug_macro
 *(.debug_macro)

.debug_names
 *(.debug_names)

.debug_rnglists
 *(.debug_rnglists)

.debug_str_offsets
 *(.debug_str_offsets)

.debug_sup
 *(.debug_sup)

.gnu.attributes
                0x0000000000000000       0x10
 *(.gnu.attributes)
 .gnu.attributes
                0x0000000000000000       0x10 build/us/actors/group10.o

.gptab.sdata
 *(.gptab.data)
 *(.gptab.sdata)

.gptab.sbss
 *(.gptab.bss)
 *(.gptab.sbss)

.mdebug.abi32   0x0000000000000000        0x0
 *(.mdebug.abi32)
 .mdebug.abi32  0x0000000000000000        0x0 build/us/actors/group10.o

.mdebug.abiN32
 *(.mdebug.abiN32)

.mdebug.abi64
 *(.mdebug.abi64)

.mdebug.abiO64
 *(.mdebug.abiO64)

.mdebug.eabi32
 *(.mdebug.eabi32)

.mdebug.eabi64
 *(.mdebug.eabi64)

.gcc_compiled_long32
 *(.gcc_compiled_long32)

.gcc_compiled_long64
 *(.gcc_compiled_long64)

/DISCARD/
 *(.note.GNU-stack)
 *(.gnu_debuglink)
 *(.gnu.lto_*)
OUTPUT(build/us/actors/group10.elf elf32-bigmips)
