
Memory Configuration

Name             Origin             Length             Attributes
*default*        0x0000000000000000 0xffffffffffffffff

Linker script and memory map

Address of section .text set to 0x7000000
LOAD build/us/bin/cave.elf
LOAD build/us/levels/hmc/leveldata.o
                [!provide]                        PROVIDE (__executable_start = SEGMENT_START ("text-segment", 0x400000))
                0x0000000000400000                . = SEGMENT_START ("text-segment", 0x400000)

.interp
 *(.interp)

.MIPS.abiflags  0x0000000000400000       0x18
 *(.MIPS.abiflags)
 .MIPS.abiflags
                0x0000000000400000       0x18 build/us/levels/hmc/leveldata.o

.reginfo        0x0000000000400018       0x18
 *(.reginfo)
 .reginfo       0x0000000000400018       0x18 build/us/levels/hmc/leveldata.o

.MIPS.xhash
 *(.MIPS.xhash)

.note.gnu.build-id
 *(.note.gnu.build-id)

.dynamic
 *(.dynamic)

.hash
 *(.hash)

.gnu.hash
 *(.gnu.hash)

.dynsym
 *(.dynsym)

.dynstr
 *(.dynstr)

.gnu.version
 *(.gnu.version)

.gnu.version_d
 *(.gnu.version_d)

.gnu.version_r
 *(.gnu.version_r)

.rel.dyn        0x0000000000400018        0x0
 *(.rel.init)
 *(.rel.text .rel.text.* .rel.gnu.linkonce.t.*)
 *(.rel.fini)
 *(.rel.rodata .rel.rodata.* .rel.gnu.linkonce.r.*)
 *(.rel.data.rel.ro .rel.data.rel.ro.* .rel.gnu.linkonce.d.rel.ro.*)
 *(.rel.data .rel.data.* .rel.gnu.linkonce.d.*)
 *(.rel.tdata .rel.tdata.* .rel.gnu.linkonce.td.*)
 *(.rel.tbss .rel.tbss.* .rel.gnu.linkonce.tb.*)
 *(.rel.ctors)
 *(.rel.dtors)
 *(.rel.got)
 *(.rel.dyn)
 .rel.dyn       0x0000000000400018        0x0 build/us/levels/hmc/leveldata.o
 *(.rel.sdata .rel.sdata.* .rel.gnu.linkonce.s.*)
 *(.rel.sbss .rel.sbss.* .rel.gnu.linkonce.sb.*)
 *(.rel.sdata2 .rel.sdata2.* .rel.gnu.linkonce.s2.*)
 *(.rel.sbss2 .rel.sbss2.* .rel.gnu.linkonce.sb2.*)
 *(.rel.bss .rel.bss.* .rel.gnu.linkonce.b.*)
                [!provide]                        PROVIDE (__rel_iplt_start = .)
 *(.rel.iplt)
                [!provide]                        PROVIDE (__rel_iplt_end = .)

.rela.dyn       0x0000000000400018        0x0
 *(.rela.init)
 *(.rela.text .rela.text.* .rela.gnu.linkonce.t.*)
 *(.rela.fini)
 *(.rela.rodata .rela.rodata.* .rela.gnu.linkonce.r.*)
 *(.rela.data .rela.data.* .rela.gnu.linkonce.d.*)
 *(.rela.tdata .rela.tdata.* .rela.gnu.linkonce.td.*)
 *(.rela.tbss .rela.tbss.* .rela.gnu.linkonce.tb.*)
 *(.rela.ctors)
 *(.rela.dtors)
 *(.rela.got)
 *(.rela.sdata .rela.sdata.* .rela.gnu.linkonce.s.*)
 *(.rela.sbss .rela.sbss.* .rela.gnu.linkonce.sb.*)
 *(.rela.sdata2 .rela.sdata2.* .rela.gnu.linkonce.s2.*)
 *(.rela.sbss2 .rela.sbss2.* .rela.gnu.linkonce.sb2.*)
 *(.rela.bss .rela.bss.* .rela.gnu.linkonce.b.*)
                [!provide]                        PROVIDE (__rela_iplt_start = .)
 *(.rela.iplt)
                [!provide]                        PROVIDE (__rela_iplt_end = .)

.rel.plt
 *(.rel.plt)

.rela.plt
 *(.rela.plt)

.init
 *(SORT_NONE(.init))

.plt
 *(.plt)

.iplt
 *(.iplt)

.text           0x0000000007000000        0x0
                0x0000000007000000                _ftext = .
 *(.text.unlikely .text.*_unlikely .text.unlikely.*)
 *(.text.exit .text.exit.*)
 *(.text.startup .text.startup.*)
 *(.text.hot .text.hot.*)
 *(SORT_BY_NAME(.text.sorted.*))
 *(.text .stub .text.* .gnu.linkonce.t.*)
 .text          0x0000000007000000        0x0 build/us/levels/hmc/leveldata.o
 *(.gnu.warning)
 *(.mips16.fn.*)
 *(.mips16.call.*)

.fini
 *(SORT_NONE(.fini))
                [!provide]                        PROVIDE (__etext = .)
                [!provide]                        PROVIDE (_etext = .)
                [!provide]                        PROVIDE (etext = .)

.rodata
 *(.rodata .rodata.* .gnu.linkonce.r.*)

.rodata1
 *(.rodata1)

.sdata2
 *(.sdata2 .sdata2.* .gnu.linkonce.s2.*)

.sbss2
 *(.sbss2 .sbss2.* .gnu.linkonce.sb2.*)

.eh_frame_hdr
 *(.eh_frame_hdr)
 *(.eh_frame_entry .eh_frame_entry.*)

.eh_frame
 *(.eh_frame)
 *(.eh_frame.*)

.gcc_except_table
 *(.gcc_except_table .gcc_except_table.*)

.gnu_extab
 *(.gnu_extab*)

.exception_ranges
 *(.exception_ranges*)
                0x0000000007000000                . = DATA_SEGMENT_ALIGN (CONSTANT (MAXPAGESIZE), CONSTANT (COMMONPAGESIZE))

.eh_frame
 *(.eh_frame)
 *(.eh_frame.*)

.gnu_extab
 *(.gnu_extab)

.gcc_except_table
 *(.gcc_except_table .gcc_except_table.*)

.exception_ranges
 *(.exception_ranges*)

.tdata          0x0000000007000000        0x0
                [!provide]                        PROVIDE (__tdata_start = .)
 *(.tdata .tdata.* .gnu.linkonce.td.*)

.tbss
 *(.tbss .tbss.* .gnu.linkonce.tb.*)
 *(.tcommon)

.preinit_array  0x0000000007000000        0x0
                [!provide]                        PROVIDE (__preinit_array_start = .)
 *(.preinit_array)
                [!provide]                        PROVIDE (__preinit_array_end = .)

.init_array     0x0000000007000000        0x0
                [!provide]                        PROVIDE (__init_array_start = .)
 *(SORT_BY_INIT_PRIORITY(.init_array.*) SORT_BY_INIT_PRIORITY(.ctors.*))
 *(.init_array EXCLUDE_FILE(*crtend?.o *crtend.o *crtbegin?.o *crtbegin.o) .ctors)
                [!provide]                        PROVIDE (__init_array_end = .)

.fini_array     0x0000000007000000        0x0
                [!provide]                        PROVIDE (__fini_array_start = .)
 *(SORT_BY_INIT_PRIORITY(.fini_array.*) SORT_BY_INIT_PRIORITY(.dtors.*))
 *(.fini_array EXCLUDE_FILE(*crtend?.o *crtend.o *crtbegin?.o *crtbegin.o) .dtors)
                [!provide]                        PROVIDE (__fini_array_end = .)

.ctors
 *crtbegin.o(.ctors)
 *crtbegin?.o(.ctors)
 *(EXCLUDE_FILE(*crtend?.o *crtend.o) .ctors)
 *(SORT_BY_NAME(.ctors.*))
 *(.ctors)

.dtors
 *crtbegin.o(.dtors)
 *crtbegin?.o(.dtors)
 *(EXCLUDE_FILE(*crtend?.o *crtend.o) .dtors)
 *(SORT_BY_NAME(.dtors.*))
 *(.dtors)

.jcr
 *(.jcr)

.data.rel.ro
 *(.data.rel.ro.local* .gnu.linkonce.d.rel.ro.local.*)
 *(.data.rel.ro .data.rel.ro.* .gnu.linkonce.d.rel.ro.*)
                0x0000000007000000                . = DATA_SEGMENT_RELRO_END (., 0x0)

.data           0x0000000007000000   0x12bee8
                0x0000000007000000                _fdata = .
 *(.data .data.* .gnu.linkonce.d.*)
 .data          0x0000000007000000   0x12bee8 build/us/levels/hmc/leveldata.o
                0x0000000007000000                peachy_anims
                0x00000000070009d8                peachy_material_revert_render_settings
                0x0000000007000a18                peachy_Bone_006_r_mesh_layer_1
                0x0000000007000a50                peachy_Bone_006_r_skinned_mesh_layer_1
                0x0000000007000a70                peachy_Bone_004_r_mesh_layer_1
                0x0000000007000a90                peachy_Bone_006_l_mesh_layer_1
                0x0000000007000ac8                peachy_Bone_006_l_skinned_mesh_layer_1
                0x0000000007000ae8                peachy_Bone_004_l_mesh_layer_1
                0x0000000007000b08                peachy_Bone_002_mesh_layer_1
                0x0000000007000b88                peachy_Bone_002_skinned_mesh_layer_1
                0x0000000007000ba8                peachy_Bone_001_mesh_layer_1
                0x0000000007000be0                peachy_Bone_mesh_layer_1
                0x0000000007000c00                mat_revert_peachy_f3d_material_007_layer1
                0x0000000007000c28                mat_peachy_f3d_material_007_layer1
                0x0000000007000cb8                mat_revert_peachy_f3d_material_009
                0x0000000007000cd8                mat_peachy_f3d_material_009
                0x0000000007000d78                mat_revert_peachy_f3d_material_010
                0x0000000007000d98                mat_peachy_f3d_material_010
                0x0000000007000e50                mat_revert_peachy_f3d_material_011
                0x0000000007000e68                mat_peachy_f3d_material_011
                0x0000000007000ee8                mat_revert_peachy_f3d_material_008
                0x0000000007000f08                mat_peachy_f3d_material_008
                0x0000000007000fc0                mat_revert_peachy_f3d_material_006
                0x0000000007000fd8                mat_peachy_f3d_material_006
                0x0000000007001018                peachy_Bone_006_r_mesh_layer_1_tri_1
                0x0000000007001128                peachy_Bone_006_r_mesh_layer_1_vtx_1
                0x0000000007001798                peachy_Bone_006_r_mesh_layer_1_tri_0
                0x00000000070017d8                peachy_Bone_006_r_mesh_layer_1_vtx_0
                0x0000000007001838                peachy_Bone_006_r_skinned_mesh_layer_1_tri_0
                0x0000000007001848                peachy_Bone_006_r_skinned_mesh_layer_1_vtx_0
                0x00000000070018a8                peachy_Bone_004_r_mesh_layer_1_tri_0
                0x0000000007001950                peachy_Bone_004_r_mesh_layer_1_vtx_0
                0x0000000007001aa0                peachy_Bone_006_l_mesh_layer_1_tri_1
                0x0000000007001bb0                peachy_Bone_006_l_mesh_layer_1_vtx_1
                0x0000000007002220                peachy_Bone_006_l_mesh_layer_1_tri_0
                0x0000000007002260                peachy_Bone_006_l_mesh_layer_1_vtx_0
                0x00000000070022c0                peachy_Bone_006_l_skinned_mesh_layer_1_tri_0
                0x00000000070022d0                peachy_Bone_006_l_skinned_mesh_layer_1_vtx_0
                0x0000000007002330                peachy_Bone_004_l_mesh_layer_1_tri_0
                0x00000000070023d8                peachy_Bone_004_l_mesh_layer_1_vtx_0
                0x0000000007002528                peachy_Bone_002_mesh_layer_1_tri_4
                0x0000000007002610                peachy_Bone_002_mesh_layer_1_vtx_4
                0x0000000007002be0                peachy_Bone_002_mesh_layer_1_tri_3
                0x0000000007002c58                peachy_Bone_002_mesh_layer_1_vtx_3
                0x0000000007002e98                peachy_Bone_002_mesh_layer_1_tri_2
                0x0000000007003160                peachy_Bone_002_mesh_layer_1_vtx_2
                0x00000000070044e0                peachy_Bone_002_mesh_layer_1_tri_1
                0x0000000007004580                peachy_Bone_002_mesh_layer_1_vtx_1
                0x0000000007004840                peachy_Bone_002_mesh_layer_1_tri_0
                0x0000000007004878                peachy_Bone_002_mesh_layer_1_vtx_0
                0x00000000070048c8                peachy_Bone_002_skinned_mesh_layer_1_tri_0
                0x00000000070048d8                peachy_Bone_002_skinned_mesh_layer_1_vtx_0
                0x0000000007004928                peachy_Bone_001_mesh_layer_1_tri_1
                0x0000000007004958                peachy_Bone_001_mesh_layer_1_vtx_1
                0x00000000070049d8                peachy_Bone_001_mesh_layer_1_tri_0
                0x0000000007004af8                peachy_Bone_001_mesh_layer_1_vtx_0
                0x0000000007004e38                peachy_Bone_mesh_layer_1_tri_0
                0x0000000007004fb8                peachy_Bone_mesh_layer_1_vtx_0
                0x00000000070054b8                peachy_asfgsfd_ia8
                0x00000000070054f8                peachy_asfgsfd_ia8_aligner
                0x0000000007005500                peachy_cs_metal06envmap_alb_ci8_pal_rgba16
                0x00000000070055e0                peachy_cs_metal06envmap_alb_ci8_pal_rgba16_aligner
                0x00000000070055e8                peachy_cs_metal06envmap_alb_ci8
                0x00000000070059e8                peachy_cs_metal06envmap_alb_ci8_aligner
                0x00000000070059f0                peachy__05002A28_ci8_pal_rgba16
                0x0000000007005a78                peachy__05002A28_ci8_pal_rgba16_aligner
                0x0000000007005a80                peachy__05002A28_ci8
                0x0000000007005b80                peachy__05002A28_ci8_aligner
                0x0000000007005b88                peachy_face2_rgba16
                0x0000000007006b88                peachy_face2_rgba16_aligner
                0x0000000007006b90                peachy__05002C28_ci8_pal_rgba16
                0x0000000007006c80                peachy__05002C28_ci8_pal_rgba16_aligner
                0x0000000007006c88                peachy__05002C28_ci8
                0x0000000007006d88                peachy__05002C28_ci8_aligner
                0x0000000007006d90                peachy_f3d_material_007_layer1_lights
                0x0000000007006da8                peachy_f3d_material_010_lights
                0x0000000007006dc0                peachy_f3d_material_011_lights
                0x0000000007006dd8                peachy_f3d_material_008_lights
                0x0000000007006df0                peachy_f3d_material_006_lights
                0x0000000007006e08                logo_Plane_mesh
                0x0000000007006e50                mat_revert_logo_f3d_material_008_layer1
                0x0000000007006e80                mat_logo_f3d_material_008_layer1
                0x0000000007006ec0                logo_Plane_mesh_tri_0
                0x0000000007007ff8                logo_Plane_mesh_vtx_0
                0x0000000007008c78                logo_Logo__1__rgba16
                0x00000000070220b8                logo_Logo__1__rgba16_aligner
                0x00000000070220c0                bowserflag_material_revert_render_settings
                0x0000000007022100                bowserflag_Bone_004_mesh_layer_1
                0x0000000007022120                bowserflag_Bone_004_skinned_mesh_layer_1
                0x0000000007022140                bowserflag_Bone_003_mesh_layer_1
                0x0000000007022160                bowserflag_Bone_003_skinned_mesh_layer_1
                0x0000000007022180                bowserflag_Bone_002_mesh_layer_1
                0x00000000070221a0                mat_revert_bowserflag_BOWSER
                0x00000000070221b8                mat_bowserflag_BOWSER
                0x0000000007022220                bowserflag_Bone_004_mesh_layer_1_tri_0
                0x0000000007022238                bowserflag_Bone_004_mesh_layer_1_vtx_0
                0x0000000007022258                bowserflag_Bone_004_skinned_mesh_layer_1_tri_0
                0x0000000007022268                bowserflag_Bone_004_skinned_mesh_layer_1_vtx_0
                0x0000000007022288                bowserflag_Bone_003_mesh_layer_1_tri_0
                0x00000000070222a0                bowserflag_Bone_003_mesh_layer_1_vtx_0
                0x00000000070222c0                bowserflag_Bone_003_skinned_mesh_layer_1_tri_0
                0x00000000070222d0                bowserflag_Bone_003_skinned_mesh_layer_1_vtx_0
                0x00000000070222f0                bowserflag_Bone_002_mesh_layer_1_tri_0
                0x0000000007022308                bowserflag_Bone_002_mesh_layer_1_vtx_0
                0x0000000007022348                bowserflag__1f63c000_fmt0431_slice0_mip00_256x256_tm04_i8
                0x0000000007023348                bowserflag__1f63c000_fmt0431_slice0_mip00_256x256_tm04_i8_aligner
                0x0000000007023350                windmill2_collision
                0x00000000070233b8                windmill2_material_revert_render_settings
                0x00000000070233f8                windmill2_Circle_001_mesh_layer_1
                0x0000000007023418                mat_revert_windmill2_f3d_material_015
                0x0000000007023430                mat_windmill2_f3d_material_015
                0x0000000007023458                windmill2_Circle_001_mesh_layer_1_tri_0
                0x00000000070234a0                windmill2_Circle_001_mesh_layer_1_vtx_0
                0x00000000070235a0                bbarrel_collision
                0x00000000070236e0                bbarrel_material_revert_render_settings
                0x0000000007023720                bbarrel_Circle_mesh_layer_1
                0x0000000007023740                mat_revert_bbarrel_f3d_material_006
                0x0000000007023758                mat_bbarrel_f3d_material_006
                0x00000000070237d8                bbarrel_Circle_mesh_layer_1_tri_0
                0x0000000007023860                bbarrel_Circle_mesh_layer_1_vtx_0
                0x0000000007023a20                bbarrel_GALE01_742ec4ab_14_i4
                0x0000000007024a20                bbarrel_GALE01_742ec4ab_14_i4_aligner
                0x0000000007024a28                bbarrel_f3d_material_006_lights
                0x0000000007024a40                shipwings_anims
                0x0000000007025308                shipwings_material_revert_render_settings
                0x0000000007025348                shipwings_Bone_002_r_mesh_layer_4
                0x0000000007025368                shipwings_Bone_002_l_mesh_layer_4
                0x0000000007025388                mat_revert_shipwings_f3d_material_006
                0x00000000070253a0                mat_shipwings_f3d_material_006
                0x0000000007025420                shipwings_Bone_002_r_mesh_layer_4_tri_0
                0x0000000007025448                shipwings_Bone_002_r_mesh_layer_4_vtx_0
                0x00000000070254e8                shipwings_Bone_002_l_mesh_layer_4_tri_0
                0x0000000007025510                shipwings_Bone_002_l_mesh_layer_4_vtx_0
                0x00000000070255b0                shipwings_SUPER_MARIO_64_17C50CF2_0_2_all_ia8
                0x00000000070265b0                shipwings_SUPER_MARIO_64_17C50CF2_0_2_all_ia8_aligner
                0x00000000070265b8                shipwings_f3d_material_006_lights
                0x00000000070265d0                rotatething_collision
                0x0000000007026798                rotatething_material_revert_render_settings
                0x00000000070267d8                rotatething_Circle_001_mesh_layer_4
                0x00000000070267f8                rotatething_Circle_001_mesh_layer_1
                0x0000000007026818                mat_revert_rotatething_f3d_material_006
                0x0000000007026830                mat_rotatething_f3d_material_006
                0x00000000070268b0                mat_revert_rotatething_f3d_material_007
                0x00000000070268d0                mat_rotatething_f3d_material_007
                0x0000000007026988                rotatething_Circle_001_mesh_layer_4_tri_0
                0x00000000070269e8                rotatething_Circle_001_mesh_layer_4_vtx_0
                0x0000000007026bc8                rotatething_Circle_001_mesh_layer_1_tri_0
                0x0000000007026c28                rotatething_Circle_001_mesh_layer_1_vtx_0
                0x0000000007026d88                rotatething_GrdRCruiseShipSaku_ia4
                0x0000000007027d88                rotatething_GrdRCruiseShipSaku_ia4_aligner
                0x0000000007027d90                rotatething_iwa_iwa_woodtif_ci8_pal_rgba16
                0x0000000007027e28                rotatething_iwa_iwa_woodtif_ci8_pal_rgba16_aligner
                0x0000000007027e30                rotatething_iwa_iwa_woodtif_ci8
                0x0000000007028630                rotatething_iwa_iwa_woodtif_ci8_aligner
                0x0000000007028638                rotatething_f3d_material_006_lights
                0x0000000007028650                rotatething_f3d_material_007_lights
                0x0000000007028668                silverstara_material_revert_render_settings
                0x00000000070286a8                silverstara_Cube_001_mesh
                0x00000000070286e8                silverstara_Cube_mesh
                0x0000000007028728                mat_revert_silverstara_sm64_material_002
                0x0000000007028740                mat_silverstara_sm64_material_002
                0x00000000070287b0                mat_revert_silverstara_sm64_material
                0x00000000070287c8                mat_silverstara_sm64_material
                0x0000000007028848                silverstara_Cube_001_mesh_tri_0
                0x0000000007028860                silverstara_Cube_001_mesh_vtx_0
                0x00000000070288a0                silverstara_Cube_001_mesh_vtx_cull
                0x0000000007028920                silverstara_Cube_mesh_tri_0
                0x0000000007028980                silverstara_Cube_mesh_vtx_0
                0x0000000007028a40                silverstara_Cube_mesh_vtx_cull
                0x0000000007028ac0                silverstara__222_png_ia16
                0x0000000007029ac0                silverstara__222_png_ia16_aligner
                0x0000000007029ac8                silverstara__0302A6F0_i8
                0x0000000007029ec8                silverstara__0302A6F0_i8_aligner
                0x0000000007029ed0                silverstara_sm64_material_lights
                0x0000000007029ee8                chuckflag_material_revert_render_settings
                0x0000000007029f28                chuckflag_Bone_004_mesh_layer_1
                0x0000000007029f48                chuckflag_Bone_004_skinned_mesh_layer_1
                0x0000000007029f68                chuckflag_Bone_003_mesh_layer_1
                0x0000000007029f88                chuckflag_Bone_003_skinned_mesh_layer_1
                0x0000000007029fa8                chuckflag_Bone_002_mesh_layer_1
                0x0000000007029fc8                mat_revert_chuckflag_BOWSER
                0x0000000007029fe0                mat_chuckflag_BOWSER
                0x000000000702a048                chuckflag_Bone_004_mesh_layer_1_tri_0
                0x000000000702a060                chuckflag_Bone_004_mesh_layer_1_vtx_0
                0x000000000702a080                chuckflag_Bone_004_skinned_mesh_layer_1_tri_0
                0x000000000702a090                chuckflag_Bone_004_skinned_mesh_layer_1_vtx_0
                0x000000000702a0b0                chuckflag_Bone_003_mesh_layer_1_tri_0
                0x000000000702a0c8                chuckflag_Bone_003_mesh_layer_1_vtx_0
                0x000000000702a0e8                chuckflag_Bone_003_skinned_mesh_layer_1_tri_0
                0x000000000702a0f8                chuckflag_Bone_003_skinned_mesh_layer_1_vtx_0
                0x000000000702a118                chuckflag_Bone_002_mesh_layer_1_tri_0
                0x000000000702a130                chuckflag_Bone_002_mesh_layer_1_vtx_0
                0x000000000702a170                chuckflag_asf_ia8
                0x000000000702b170                chuckflag_asf_ia8_aligner
                0x000000000702b178                glowspot_material_revert_render_settings
                0x000000000702b1b8                glowspot_Plane_mesh_layer_6
                0x000000000702b210                mat_revert_glowspot_f3d_material_007_layer6
                0x000000000702b238                mat_glowspot_f3d_material_007_layer6
                0x000000000702b308                mat_revert_glowspot_f3d_material_006
                0x000000000702b320                mat_glowspot_f3d_material_006
                0x000000000702b3a0                glowspot_Plane_mesh_layer_6_tri_1
                0x000000000702b3e0                glowspot_Plane_mesh_layer_6_vtx_1
                0x000000000702b4c0                glowspot_Plane_mesh_layer_6_tri_0
                0x000000000702b4e0                glowspot_Plane_mesh_layer_6_vtx_0
                0x000000000702b530                glowspot_Plane_mesh_layer_6_vtx_cull
                0x000000000702b5b0                glowspot_LightBeam2_ia16
                0x000000000702c5b0                glowspot_LightBeam2_ia16_aligner
                0x000000000702c5b8                glowspot_lmapshine_i8
                0x000000000702d5b8                glowspot_lmapshine_i8_aligner
                0x000000000702d5c0                glowspot_f3d_material_007_layer6_lights
                0x000000000702d5d8                glowspot_f3d_material_006_lights
                0x000000000702d5f0                peachflag_material_revert_render_settings
                0x000000000702d630                peachflag_Bone_004_mesh_layer_4
                0x000000000702d650                peachflag_Bone_004_skinned_mesh_layer_4
                0x000000000702d670                peachflag_Bone_003_mesh_layer_4
                0x000000000702d690                peachflag_Bone_003_skinned_mesh_layer_4
                0x000000000702d6b0                peachflag_Bone_002_mesh_layer_4
                0x000000000702d6d0                mat_revert_peachflag_BOWSER
                0x000000000702d6f0                mat_peachflag_BOWSER
                0x000000000702d7a8                peachflag_Bone_004_mesh_layer_4_tri_0
                0x000000000702d7c0                peachflag_Bone_004_mesh_layer_4_vtx_0
                0x000000000702d7e0                peachflag_Bone_004_skinned_mesh_layer_4_tri_0
                0x000000000702d7f0                peachflag_Bone_004_skinned_mesh_layer_4_vtx_0
                0x000000000702d810                peachflag_Bone_003_mesh_layer_4_tri_0
                0x000000000702d828                peachflag_Bone_003_mesh_layer_4_vtx_0
                0x000000000702d848                peachflag_Bone_003_skinned_mesh_layer_4_tri_0
                0x000000000702d858                peachflag_Bone_003_skinned_mesh_layer_4_vtx_0
                0x000000000702d878                peachflag_Bone_002_mesh_layer_4_tri_0
                0x000000000702d890                peachflag_Bone_002_mesh_layer_4_vtx_0
                0x000000000702d8d0                peachflag_cf893fdc2a48d984f3d0d8ec8d7d6df6_ci4_pal_rgba16
                0x000000000702d8f0                peachflag_cf893fdc2a48d984f3d0d8ec8d7d6df6_ci4_pal_rgba16_aligner
                0x000000000702d8f8                peachflag_cf893fdc2a48d984f3d0d8ec8d7d6df6_ci4
                0x000000000702e0f8                peachflag_cf893fdc2a48d984f3d0d8ec8d7d6df6_ci4_aligner
                0x000000000702e100                peachflag_BOWSER_lights
                0x000000000702e118                goomflagg_geo_anims
                0x000000000702e4b8                goomflagg_material_revert_render_settings
                0x000000000702e4f8                goomflagg_Bone_004_mesh_layer_4
                0x000000000702e518                goomflagg_Bone_004_skinned_mesh_layer_4
                0x000000000702e538                goomflagg_Bone_003_mesh_layer_4
                0x000000000702e558                goomflagg_Bone_003_skinned_mesh_layer_4
                0x000000000702e578                goomflagg_Bone_002_mesh_layer_4
                0x000000000702e598                mat_revert_goomflagg_BOWSER
                0x000000000702e5b8                mat_goomflagg_BOWSER
                0x000000000702e670                goomflagg_Bone_004_mesh_layer_4_tri_0
                0x000000000702e688                goomflagg_Bone_004_mesh_layer_4_vtx_0
                0x000000000702e6a8                goomflagg_Bone_004_skinned_mesh_layer_4_tri_0
                0x000000000702e6b8                goomflagg_Bone_004_skinned_mesh_layer_4_vtx_0
                0x000000000702e6d8                goomflagg_Bone_003_mesh_layer_4_tri_0
                0x000000000702e6f0                goomflagg_Bone_003_mesh_layer_4_vtx_0
                0x000000000702e710                goomflagg_Bone_003_skinned_mesh_layer_4_tri_0
                0x000000000702e720                goomflagg_Bone_003_skinned_mesh_layer_4_vtx_0
                0x000000000702e740                goomflagg_Bone_002_mesh_layer_4_tri_0
                0x000000000702e758                goomflagg_Bone_002_mesh_layer_4_vtx_0
                0x000000000702e798                goomflagg_d4qi4e8_4b9ab984_0da0_4c4b_9580_e5058b2d5628_ci4_pal_rgba16
                0x000000000702e7b8                goomflagg_d4qi4e8_4b9ab984_0da0_4c4b_9580_e5058b2d5628_ci4_pal_rgba16_aligner
                0x000000000702e7c0                goomflagg_d4qi4e8_4b9ab984_0da0_4c4b_9580_e5058b2d5628_ci4
                0x000000000702efc0                goomflagg_d4qi4e8_4b9ab984_0da0_4c4b_9580_e5058b2d5628_ci4_aligner
                0x000000000702efc8                goomflagg_BOWSER_lights
                0x000000000702efe0                trexEyes_Plane_mesh
                0x000000000702f060                mat_revert_trexEyes_EyeClosed_layer1
                0x000000000702f088                mat_trexEyes_EyeClosed_layer1
                0x000000000702f118                mat_revert_trexEyes_Eyehalf_layer1
                0x000000000702f140                mat_trexEyes_Eyehalf_layer1
                0x000000000702f1d0                trexEyes_Plane_mesh_tri_1
                0x000000000702f1e8                trexEyes_Plane_mesh_vtx_1
                0x000000000702f218                trexEyes_Plane_mesh_tri_0
                0x000000000702f230                trexEyes_Plane_mesh_vtx_0
                0x000000000702f260                trexEyes_Plane_mesh_vtx_cull
                0x000000000702f2e0                trexEyes_dinoeyeeeeeeclosed_rgba16
                0x00000000070302e0                trexEyes_dinoeyeeeeeeclosed_rgba16_aligner
                0x00000000070302e8                trexEyes_dinoeyeeeeeehalf_rgba16
                0x00000000070312e8                trexEyes_dinoeyeeeeeehalf_rgba16_aligner
                0x00000000070312f0                trexEyes_EyeClosed_layer1_lights
                0x0000000007031308                trexEyes_Eyehalf_layer1_lights
                0x0000000007031320                trex_anims
                0x00000000070371d8                trex_material_revert_render_settings
                0x0000000007037218                trex_Jaw2_mesh_layer_4
                0x0000000007037240                trex_Jaw2_skinned_mesh_layer_4
                0x0000000007037260                trex_Jaw2_mesh_layer_1
                0x00000000070372c8                trex_Jaw2_skinned_mesh_layer_1
                0x0000000007037300                trex_Head_001_mesh_layer_5
                0x0000000007037320                trex_Head_001_mesh_layer_4
                0x0000000007037370                trex_Head_001_skinned_mesh_layer_4
                0x0000000007037390                trex_Head_001_mesh_layer_1
                0x0000000007037400                trex_Head_001_skinned_mesh_layer_1
                0x0000000007037420                trex_Bone_011_r_mesh_layer_1
                0x0000000007037448                trex_Bone_011_r_skinned_mesh_layer_1
                0x0000000007037468                trex_Bone_010_r_mesh_layer_1
                0x0000000007037488                trex_Bone_010_r_skinned_mesh_layer_1
                0x00000000070374a8                trex_Bone_011_l_mesh_layer_1
                0x00000000070374d0                trex_Bone_011_l_skinned_mesh_layer_1
                0x00000000070374f0                trex_Bone_010_l_mesh_layer_1
                0x0000000007037510                trex_Bone_010_l_skinned_mesh_layer_1
                0x0000000007037530                trex_Bone_007_mesh_layer_4
                0x0000000007037550                trex_Bone_007_mesh_layer_1
                0x0000000007037578                trex_Bone_007_skinned_mesh_layer_1
                0x0000000007037598                trex_Bone_006_mesh_layer_1
                0x00000000070375b8                trex_Bone_006_skinned_mesh_layer_1
                0x00000000070375d8                trex_Bone_005_mesh_layer_1
                0x00000000070375f8                trex_Bone_005_skinned_mesh_layer_1
                0x0000000007037618                trex_Bone_004_r_mesh_layer_1
                0x0000000007037640                trex_Bone_004_r_skinned_mesh_layer_1
                0x0000000007037660                trex_Bone_003_r_mesh_layer_1
                0x0000000007037688                trex_Bone_003_r_skinned_mesh_layer_1
                0x00000000070376a8                trex_Bone_002_r_mesh_layer_1
                0x00000000070376d0                trex_Bone_002_r_skinned_mesh_layer_1
                0x00000000070376f0                trex_Bone_004_l_mesh_layer_1
                0x0000000007037718                trex_Bone_004_l_skinned_mesh_layer_1
                0x0000000007037738                trex_Bone_003_l_mesh_layer_1
                0x0000000007037760                trex_Bone_003_l_skinned_mesh_layer_1
                0x0000000007037780                trex_Bone_002_l_mesh_layer_1
                0x00000000070377a8                trex_Bone_002_l_skinned_mesh_layer_1
                0x00000000070377c8                trex_Bone_mesh_layer_4
                0x00000000070377e8                trex_Bone_mesh_layer_1
                0x0000000007037808                mat_revert_trex_f3d_material
                0x0000000007037820                mat_trex_f3d_material
                0x00000000070378a8                mat_revert_trex_f3d_material_005
                0x00000000070378c0                mat_trex_f3d_material_005
                0x0000000007037940                mat_revert_trex_f3d_material_007_layer1
                0x0000000007037968                mat_trex_f3d_material_007_layer1
                0x00000000070379f8                mat_revert_trex_f3d_material_001
                0x0000000007037a18                mat_trex_f3d_material_001
                0x0000000007037ad0                mat_revert_trex_EyeOpen_layer1
                0x0000000007037af8                mat_trex_EyeOpen_layer1
                0x0000000007037b88                mat_revert_trex_f3d_material_004
                0x0000000007037ba0                mat_trex_f3d_material_004
                0x0000000007037c20                mat_revert_trex_f3d_material_006_layer1
                0x0000000007037c48                mat_trex_f3d_material_006_layer1
                0x0000000007037ce0                trex_Jaw2_mesh_layer_4_tri_1
                0x0000000007037d10                trex_Jaw2_mesh_layer_4_vtx_1
                0x0000000007037db0                trex_Jaw2_mesh_layer_4_tri_0
                0x0000000007037dc8                trex_Jaw2_mesh_layer_4_vtx_0
                0x0000000007037e08                trex_Jaw2_skinned_mesh_layer_4_tri_0
                0x0000000007037e18                trex_Jaw2_skinned_mesh_layer_4_vtx_0
                0x0000000007037e38                trex_Jaw2_mesh_layer_1_tri_3
                0x0000000007037e58                trex_Jaw2_mesh_layer_1_vtx_3
                0x0000000007037eb8                trex_Jaw2_mesh_layer_1_tri_2
                0x0000000007037f20                trex_Jaw2_mesh_layer_1_vtx_2
                0x0000000007038020                trex_Jaw2_mesh_layer_1_tri_1
                0x0000000007038040                trex_Jaw2_mesh_layer_1_vtx_1
                0x0000000007038070                trex_Jaw2_mesh_layer_1_tri_0
                0x00000000070380b0                trex_Jaw2_mesh_layer_1_vtx_0
                0x0000000007038110                trex_Jaw2_skinned_mesh_layer_1_tri_1
                0x0000000007038120                trex_Jaw2_skinned_mesh_layer_1_vtx_1
                0x0000000007038150                trex_Jaw2_skinned_mesh_layer_1_tri_0
                0x0000000007038160                trex_Jaw2_skinned_mesh_layer_1_vtx_0
                0x00000000070381d0                trex_Head_001_mesh_layer_5_tri_0
                0x00000000070381f0                trex_Head_001_mesh_layer_5_vtx_0
                0x0000000007038270                trex_Head_001_mesh_layer_4_tri_2
                0x0000000007038338                trex_Head_001_mesh_layer_4_vtx_2
                0x0000000007038758                trex_Head_001_mesh_layer_4_tri_1
                0x0000000007038798                trex_Head_001_mesh_layer_4_vtx_1
                0x0000000007038878                trex_Head_001_mesh_layer_4_tri_0
                0x00000000070388d8                trex_Head_001_mesh_layer_4_vtx_0
                0x0000000007038918                trex_Head_001_skinned_mesh_layer_4_tri_0
                0x0000000007038928                trex_Head_001_skinned_mesh_layer_4_vtx_0
                0x0000000007038a88                trex_Head_001_mesh_layer_1_tri_4
                0x0000000007038aa8                trex_Head_001_mesh_layer_1_vtx_4
                0x0000000007038b08                trex_Head_001_mesh_layer_1_tri_3
                0x0000000007038b30                trex_Head_001_mesh_layer_1_vtx_3
                0x0000000007038bb0                trex_Head_001_mesh_layer_1_tri_2
                0x0000000007038bd0                trex_Head_001_mesh_layer_1_vtx_2
                0x0000000007038c60                trex_Head_001_mesh_layer_1_tri_1
                0x0000000007038da8                trex_Head_001_mesh_layer_1_vtx_1
                0x0000000007039378                trex_Head_001_mesh_layer_1_tri_0
                0x00000000070393b0                trex_Head_001_mesh_layer_1_vtx_0
                0x0000000007039400                trex_Head_001_skinned_mesh_layer_1_tri_0
                0x0000000007039410                trex_Head_001_skinned_mesh_layer_1_vtx_0
                0x0000000007039490                trex_Bone_011_r_mesh_layer_1_tri_1
                0x00000000070394f0                trex_Bone_011_r_mesh_layer_1_vtx_1
                0x0000000007039600                trex_Bone_011_r_mesh_layer_1_tri_0
                0x0000000007039628                trex_Bone_011_r_mesh_layer_1_vtx_0
                0x0000000007039658                trex_Bone_011_r_skinned_mesh_layer_1_tri_0
                0x0000000007039668                trex_Bone_011_r_skinned_mesh_layer_1_vtx_0
                0x0000000007039698                trex_Bone_010_r_mesh_layer_1_tri_0
                0x00000000070396c0                trex_Bone_010_r_mesh_layer_1_vtx_0
                0x00000000070396f0                trex_Bone_010_r_skinned_mesh_layer_1_tri_0
                0x0000000007039700                trex_Bone_010_r_skinned_mesh_layer_1_vtx_0
                0x0000000007039730                trex_Bone_011_l_mesh_layer_1_tri_1
                0x0000000007039790                trex_Bone_011_l_mesh_layer_1_vtx_1
                0x00000000070398a0                trex_Bone_011_l_mesh_layer_1_tri_0
                0x00000000070398c8                trex_Bone_011_l_mesh_layer_1_vtx_0
                0x00000000070398f8                trex_Bone_011_l_skinned_mesh_layer_1_tri_0
                0x0000000007039908                trex_Bone_011_l_skinned_mesh_layer_1_vtx_0
                0x0000000007039938                trex_Bone_010_l_mesh_layer_1_tri_0
                0x0000000007039960                trex_Bone_010_l_mesh_layer_1_vtx_0
                0x00000000070399a0                trex_Bone_010_l_skinned_mesh_layer_1_tri_0
                0x00000000070399b0                trex_Bone_010_l_skinned_mesh_layer_1_vtx_0
                0x0000000007039a00                trex_Bone_007_mesh_layer_4_tri_0
                0x0000000007039a30                trex_Bone_007_mesh_layer_4_vtx_0
                0x0000000007039ad0                trex_Bone_007_mesh_layer_1_tri_1
                0x0000000007039af0                trex_Bone_007_mesh_layer_1_vtx_1
                0x0000000007039b40                trex_Bone_007_mesh_layer_1_tri_0
                0x0000000007039b70                trex_Bone_007_mesh_layer_1_vtx_0
                0x0000000007039bb0                trex_Bone_007_skinned_mesh_layer_1_tri_0
                0x0000000007039bc0                trex_Bone_007_skinned_mesh_layer_1_vtx_0
                0x0000000007039c00                trex_Bone_006_mesh_layer_1_tri_0
                0x0000000007039c30                trex_Bone_006_mesh_layer_1_vtx_0
                0x0000000007039cb0                trex_Bone_006_skinned_mesh_layer_1_tri_0
                0x0000000007039cc0                trex_Bone_006_skinned_mesh_layer_1_vtx_0
                0x0000000007039d30                trex_Bone_005_mesh_layer_1_tri_0
                0x0000000007039d68                trex_Bone_005_mesh_layer_1_vtx_0
                0x0000000007039dc8                trex_Bone_005_skinned_mesh_layer_1_tri_0
                0x0000000007039dd8                trex_Bone_005_skinned_mesh_layer_1_vtx_0
                0x0000000007039e58                trex_Bone_004_r_mesh_layer_1_tri_1
                0x0000000007039e90                trex_Bone_004_r_mesh_layer_1_vtx_1
                0x0000000007039f50                trex_Bone_004_r_mesh_layer_1_tri_0
                0x0000000007039fb8                trex_Bone_004_r_mesh_layer_1_vtx_0
                0x000000000703a048                trex_Bone_004_r_skinned_mesh_layer_1_tri_0
                0x000000000703a058                trex_Bone_004_r_skinned_mesh_layer_1_vtx_0
                0x000000000703a0e8                trex_Bone_003_r_mesh_layer_1_tri_1
                0x000000000703a108                trex_Bone_003_r_mesh_layer_1_vtx_1
                0x000000000703a198                trex_Bone_003_r_mesh_layer_1_tri_0
                0x000000000703a1d0                trex_Bone_003_r_mesh_layer_1_vtx_0
                0x000000000703a260                trex_Bone_003_r_skinned_mesh_layer_1_tri_0
                0x000000000703a270                trex_Bone_003_r_skinned_mesh_layer_1_vtx_0
                0x000000000703a2e0                trex_Bone_002_r_mesh_layer_1_tri_1
                0x000000000703a330                trex_Bone_002_r_mesh_layer_1_vtx_1
                0x000000000703a430                trex_Bone_002_r_mesh_layer_1_tri_0
                0x000000000703a478                trex_Bone_002_r_mesh_layer_1_vtx_0
                0x000000000703a548                trex_Bone_002_r_skinned_mesh_layer_1_tri_0
                0x000000000703a558                trex_Bone_002_r_skinned_mesh_layer_1_vtx_0
                0x000000000703a608                trex_Bone_004_l_mesh_layer_1_tri_1
                0x000000000703a640                trex_Bone_004_l_mesh_layer_1_vtx_1
                0x000000000703a700                trex_Bone_004_l_mesh_layer_1_tri_0
                0x000000000703a768                trex_Bone_004_l_mesh_layer_1_vtx_0
                0x000000000703a7f8                trex_Bone_004_l_skinned_mesh_layer_1_tri_0
                0x000000000703a808                trex_Bone_004_l_skinned_mesh_layer_1_vtx_0
                0x000000000703a898                trex_Bone_003_l_mesh_layer_1_tri_1
                0x000000000703a8b8                trex_Bone_003_l_mesh_layer_1_vtx_1
                0x000000000703a948                trex_Bone_003_l_mesh_layer_1_tri_0
                0x000000000703a980                trex_Bone_003_l_mesh_layer_1_vtx_0
                0x000000000703aa00                trex_Bone_003_l_skinned_mesh_layer_1_tri_0
                0x000000000703aa10                trex_Bone_003_l_skinned_mesh_layer_1_vtx_0
                0x000000000703aa80                trex_Bone_002_l_mesh_layer_1_tri_1
                0x000000000703aad0                trex_Bone_002_l_mesh_layer_1_vtx_1
                0x000000000703abe0                trex_Bone_002_l_mesh_layer_1_tri_0
                0x000000000703ac28                trex_Bone_002_l_mesh_layer_1_vtx_0
                0x000000000703ace8                trex_Bone_002_l_skinned_mesh_layer_1_tri_0
                0x000000000703acf8                trex_Bone_002_l_skinned_mesh_layer_1_vtx_0
                0x000000000703ada8                trex_Bone_mesh_layer_4_tri_0
                0x000000000703ae28                trex_Bone_mesh_layer_4_vtx_0
                0x000000000703afa8                trex_Bone_mesh_layer_1_tri_0
                0x000000000703b060                trex_Bone_mesh_layer_1_vtx_0
                0x000000000703b360                trex_rrow_asset_277_i8
                0x000000000703b760                trex_rrow_asset_277_i8_aligner
                0x000000000703b768                trex_SUPER_MARIO_64_EDBBE3D1_0_2_all_ia8
                0x000000000703c768                trex_SUPER_MARIO_64_EDBBE3D1_0_2_all_ia8_aligner
                0x000000000703c770                trex_SUPER_MARIO_64_17060726_0_2_all_i8
                0x000000000703d770                trex_SUPER_MARIO_64_17060726_0_2_all_i8_aligner
                0x000000000703d778                trex_ZELDA_MAJORA_S_MASK_261E9666_0_2_all_ci8_pal_rgba16
                0x000000000703d810                trex_ZELDA_MAJORA_S_MASK_261E9666_0_2_all_ci8_pal_rgba16_aligner
                0x000000000703d818                trex_ZELDA_MAJORA_S_MASK_261E9666_0_2_all_ci8
                0x000000000703dc18                trex_ZELDA_MAJORA_S_MASK_261E9666_0_2_all_ci8_aligner
                0x000000000703dc20                trex_dinoeyeeeeee_rgba16
                0x000000000703ec20                trex_dinoeyeeeeee_rgba16_aligner
                0x000000000703ec28                trex__4tg45z64zrthm_leaf01_ia8
                0x000000000703fc28                trex__4tg45z64zrthm_leaf01_ia8_aligner
                0x000000000703fc30                trex_Dinoscales_i8
                0x0000000007040c30                trex_Dinoscales_i8_aligner
                0x0000000007040c38                trex_f3d_material_lights
                0x0000000007040c50                trex_f3d_material_005_lights
                0x0000000007040c68                trex_f3d_material_007_layer1_lights
                0x0000000007040c80                trex_f3d_material_001_lights
                0x0000000007040c98                trex_EyeOpen_layer1_lights
                0x0000000007040cb0                trex_f3d_material_004_lights
                0x0000000007040cc8                trex_f3d_material_006_layer1_lights
                0x0000000007040ce0                vulcanboulderpart_material_revert_render_settings
                0x0000000007040d20                vulcanboulderpart_Circle_mesh_layer_1
                0x0000000007040d40                mat_revert_vulcanboulderpart_f3d_material_009_layer1
                0x0000000007040d60                mat_vulcanboulderpart_f3d_material_009_layer1
                0x0000000007040e28                vulcanboulderpart_Circle_mesh_layer_1_tri_0
                0x0000000007040e90                vulcanboulderpart_Circle_mesh_layer_1_vtx_0
                0x0000000007041250                vulcanboulderpart_mim_hachinosutif_rgba16
                0x0000000007041a50                vulcanboulderpart_mim_hachinosutif_rgba16_aligner
                0x0000000007041a58                vulcanboulderpart_R_Fortress_0020_tex_i4
                0x0000000007042258                vulcanboulderpart_R_Fortress_0020_tex_i4_aligner
                0x0000000007042260                vulcanboulderpart_f3d_material_009_layer1_lights
                0x0000000007042278                vulcanboulder_material_revert_render_settings
                0x00000000070422b8                vulcanboulder_Icosphere_001_mesh_layer_1
                0x00000000070422d8                mat_revert_vulcanboulder_f3d_material_006_layer1
                0x00000000070422f8                mat_vulcanboulder_f3d_material_006_layer1
                0x00000000070423c0                vulcanboulder_Icosphere_001_mesh_layer_1_tri_0
                0x0000000007042548                vulcanboulder_Icosphere_001_mesh_layer_1_vtx_0
                0x0000000007043448                vulcanboulder_mim_hachinosutif_rgba16
                0x0000000007043c48                vulcanboulder_mim_hachinosutif_rgba16_aligner
                0x0000000007043c50                vulcanboulder_R_Fortress_0020_tex_i4
                0x0000000007044450                vulcanboulder_R_Fortress_0020_tex_i4_aligner
                0x0000000007044458                vulcanboulder_f3d_material_006_layer1_lights
                0x0000000007044470                bronchioeyes_Plane_mesh
                0x00000000070444f0                mat_revert_bronchioeyes_half
                0x0000000007044510                mat_bronchioeyes_half
                0x00000000070445c8                mat_revert_bronchioeyes_closed
                0x00000000070445e8                mat_bronchioeyes_closed
                0x00000000070446a0                bronchioeyes_Plane_mesh_tri_1
                0x00000000070446b8                bronchioeyes_Plane_mesh_vtx_1
                0x00000000070446e8                bronchioeyes_Plane_mesh_tri_0
                0x0000000007044700                bronchioeyes_Plane_mesh_vtx_0
                0x0000000007044730                bronchioeyes_Plane_mesh_vtx_cull
                0x00000000070447b0                bronchioeyes__37a78000_fmt0431_slice0_mip00_128x128_tm04_ci4_pal_rgba16
                0x00000000070447d0                bronchioeyes__37a78000_fmt0431_slice0_mip00_128x128_tm04_ci4_pal_rgba16_aligner
                0x00000000070447d8                bronchioeyes__37a78000_fmt0431_slice0_mip00_128x128_tm04_ci4
                0x0000000007044fd8                bronchioeyes__37a78000_fmt0431_slice0_mip00_128x128_tm04_ci4_aligner
                0x0000000007044fe0                bronchioeyes__37a70000_fmt0431_slice0_mip00_128x128_tm04_ci4_pal_rgba16
                0x0000000007045000                bronchioeyes__37a70000_fmt0431_slice0_mip00_128x128_tm04_ci4_pal_rgba16_aligner
                0x0000000007045008                bronchioeyes__37a70000_fmt0431_slice0_mip00_128x128_tm04_ci4
                0x0000000007045808                bronchioeyes__37a70000_fmt0431_slice0_mip00_128x128_tm04_ci4_aligner
                0x0000000007045810                bronchioeyes_half_lights
                0x0000000007045828                bronchioeyes_closed_lights
                0x0000000007045840                bronchiosaurus_collision
                0x0000000007045a10                bronchiosaurus_anims
                0x0000000007046650                bronchiosaurus_material_revert_render_settings
                0x0000000007046690                bronchiosaurus_Bone_004_mesh_layer_4
                0x00000000070466b0                bronchiosaurus_Bone_004_mesh_layer_1
                0x0000000007046730                bronchiosaurus_Bone_004_skinned_mesh_layer_1
                0x0000000007046768                mat_revert_bronchiosaurus_f3d_material_009
                0x0000000007046780                mat_bronchiosaurus_f3d_material_009
                0x0000000007046800                mat_revert_bronchiosaurus_f3d_material_013_layer1
                0x0000000007046828                mat_bronchiosaurus_f3d_material_013_layer1
                0x00000000070468b8                mat_revert_bronchiosaurus_f3d_material_012_layer1
                0x00000000070468e8                mat_bronchiosaurus_f3d_material_012_layer1
                0x00000000070469b0                mat_revert_bronchiosaurus_f3d_material_010
                0x00000000070469d0                mat_bronchiosaurus_f3d_material_010
                0x0000000007046a88                mat_revert_bronchiosaurus_f3d_material_011_layer1
                0x0000000007046ab8                mat_bronchiosaurus_f3d_material_011_layer1
                0x0000000007046b80                bronchiosaurus_Bone_004_mesh_layer_4_tri_0
                0x0000000007046c38                bronchiosaurus_Bone_004_mesh_layer_4_vtx_0
                0x0000000007046ff8                bronchiosaurus_Bone_004_mesh_layer_1_tri_4
                0x0000000007047020                bronchiosaurus_Bone_004_mesh_layer_1_vtx_4
                0x00000000070470a0                bronchiosaurus_Bone_004_mesh_layer_1_tri_3
                0x00000000070470c0                bronchiosaurus_Bone_004_mesh_layer_1_vtx_3
                0x0000000007047140                bronchiosaurus_Bone_004_mesh_layer_1_tri_2
                0x00000000070471a8                bronchiosaurus_Bone_004_mesh_layer_1_vtx_2
                0x0000000007047348                bronchiosaurus_Bone_004_mesh_layer_1_tri_1
                0x0000000007047368                bronchiosaurus_Bone_004_mesh_layer_1_vtx_1
                0x0000000007047388                bronchiosaurus_Bone_004_mesh_layer_1_tri_0
                0x00000000070473b8                bronchiosaurus_Bone_004_mesh_layer_1_vtx_0
                0x0000000007047428                bronchiosaurus_Bone_004_skinned_mesh_layer_1_tri_1
                0x0000000007047438                bronchiosaurus_Bone_004_skinned_mesh_layer_1_vtx_1
                0x0000000007047468                bronchiosaurus_Bone_004_skinned_mesh_layer_1_tri_0
                0x0000000007047478                bronchiosaurus_Bone_004_skinned_mesh_layer_1_vtx_0
                0x00000000070474d8                bronchiosaurus__713_ia4
                0x00000000070484d8                bronchiosaurus__713_ia4_aligner
                0x00000000070484e0                bronchiosaurus_MammaEyeV3CloseHappy_ia8
                0x00000000070494e0                bronchiosaurus_MammaEyeV3CloseHappy_ia8_aligner
                0x00000000070494e8                bronchiosaurus__37a6c000_fmt0431_slice0_mip00_128x128_tm04_ci4_pal_rgba16
                0x0000000007049508                bronchiosaurus__37a6c000_fmt0431_slice0_mip00_128x128_tm04_ci4_pal_rgba16_aligner
                0x0000000007049510                bronchiosaurus__37a6c000_fmt0431_slice0_mip00_128x128_tm04_ci4
                0x0000000007049d10                bronchiosaurus__37a6c000_fmt0431_slice0_mip00_128x128_tm04_ci4_aligner
                0x0000000007049d18                bronchiosaurus_Belly_ci4_pal_rgba16
                0x0000000007049d38                bronchiosaurus_Belly_ci4_pal_rgba16_aligner
                0x0000000007049d40                bronchiosaurus_Belly_ci4
                0x000000000704a540                bronchiosaurus_Belly_ci4_aligner
                0x000000000704a548                bronchiosaurus_spots_ci4_pal_rgba16
                0x000000000704a568                bronchiosaurus_spots_ci4_pal_rgba16_aligner
                0x000000000704a570                bronchiosaurus_spots_ci4
                0x000000000704ad70                bronchiosaurus_spots_ci4_aligner
                0x000000000704ad78                bronchiosaurus_f3d_material_009_lights
                0x000000000704ad90                bronchiosaurus_f3d_material_013_layer1_lights
                0x000000000704ada8                bronchiosaurus_f3d_material_012_layer1_lights
                0x000000000704adc0                bronchiosaurus_f3d_material_010_lights
                0x000000000704add8                bronchiosaurus_f3d_material_011_layer1_lights
                0x000000000704adf0                crackedEgg_material_revert_render_settings
                0x000000000704ae30                crackedEgg_Icosphere_mesh_layer_4
                0x000000000704ae50                mat_revert_crackedEgg_f3d_material_006_layer4
                0x000000000704ae78                mat_crackedEgg_f3d_material_006_layer4
                0x000000000704af08                crackedEgg_Icosphere_mesh_layer_4_tri_0
                0x000000000704af80                crackedEgg_Icosphere_mesh_layer_4_vtx_0
                0x000000000704b0b0                crackedEgg_Eggy_ia8
                0x000000000704c0b0                crackedEgg_Eggy_ia8_aligner
                0x000000000704c0b8                crackedEgg_f3d_material_006_layer4_lights
                0x000000000704c0d0                dipshit3_anims
                0x0000000007052560                dipshit3_material_revert_render_settings
                0x00000000070525a0                dipshit3_foot_r_mesh_layer_1
                0x00000000070525e0                dipshit3_foot_r_skinned_mesh_layer_1
                0x0000000007052600                dipshit3_knee_r_mesh_layer_1
                0x0000000007052620                dipshit3_knee_r_skinned_mesh_layer_1
                0x0000000007052640                dipshit3_thigh_r_mesh_layer_1
                0x0000000007052678                dipshit3_thigh_r_skinned_mesh_layer_1
                0x00000000070526b0                dipshit3_foot_l_mesh_layer_1
                0x00000000070526f0                dipshit3_foot_l_skinned_mesh_layer_1
                0x0000000007052710                dipshit3_knee_l_mesh_layer_1
                0x0000000007052730                dipshit3_knee_l_skinned_mesh_layer_1
                0x0000000007052750                dipshit3_thigh_l_mesh_layer_1
                0x0000000007052788                dipshit3_thigh_l_skinned_mesh_layer_1
                0x00000000070527c0                dipshit3_arm_r_mesh_layer_1
                0x00000000070527f8                dipshit3_arm_r_skinned_mesh_layer_1
                0x0000000007052818                dipshit3_shoulder_r_mesh_layer_1
                0x0000000007052838                dipshit3_shoulder_r_skinned_mesh_layer_1
                0x0000000007052858                dipshit3_arm_l_mesh_layer_1
                0x0000000007052890                dipshit3_arm_l_skinned_mesh_layer_1
                0x00000000070528b0                dipshit3_shoulder_l_mesh_layer_1
                0x00000000070528d0                dipshit3_shoulder_l_skinned_mesh_layer_1
                0x00000000070528f0                dipshit3_Bone_005_mesh_layer_1
                0x0000000007052960                dipshit3_Bone_005_skinned_mesh_layer_1
                0x0000000007052980                dipshit3_Bone_003_mesh_layer_1
                0x00000000070529d0                dipshit3_Bone_003_skinned_mesh_layer_1
                0x0000000007052a08                dipshit3_Bone_002_mesh_layer_1
                0x0000000007052a48                dipshit3_Bone_002_skinned_mesh_layer_1
                0x0000000007052a80                dipshit3_Bone_mesh_layer_1
                0x0000000007052ab8                mat_revert_dipshit3_f3d_material_006
                0x0000000007052ad8                mat_dipshit3_f3d_material_006
                0x0000000007052b90                mat_revert_dipshit3_f3d_material_008
                0x0000000007052ba8                mat_dipshit3_f3d_material_008
                0x0000000007052c28                mat_revert_dipshit3_f3d_material
                0x0000000007052c40                mat_dipshit3_f3d_material
                0x0000000007052cc0                mat_revert_dipshit3_f3d_material_007_layer1
                0x0000000007052ce8                mat_dipshit3_f3d_material_007_layer1
                0x0000000007052d78                mat_revert_dipshit3_f3d_material_002
                0x0000000007052d90                mat_dipshit3_f3d_material_002
                0x0000000007052e10                dipshit3_foot_r_mesh_layer_1_tri_2
                0x0000000007052e40                dipshit3_foot_r_mesh_layer_1_vtx_2
                0x0000000007052ec0                dipshit3_foot_r_mesh_layer_1_tri_1
                0x0000000007052ef0                dipshit3_foot_r_mesh_layer_1_vtx_1
                0x0000000007052f80                dipshit3_foot_r_mesh_layer_1_tri_0
                0x0000000007052fc0                dipshit3_foot_r_mesh_layer_1_vtx_0
                0x0000000007053040                dipshit3_foot_r_skinned_mesh_layer_1_tri_0
                0x0000000007053050                dipshit3_foot_r_skinned_mesh_layer_1_vtx_0
                0x00000000070530a0                dipshit3_knee_r_mesh_layer_1_tri_0
                0x00000000070530d0                dipshit3_knee_r_mesh_layer_1_vtx_0
                0x0000000007053120                dipshit3_knee_r_skinned_mesh_layer_1_tri_0
                0x0000000007053130                dipshit3_knee_r_skinned_mesh_layer_1_vtx_0
                0x0000000007053180                dipshit3_thigh_r_mesh_layer_1_tri_1
                0x00000000070531b0                dipshit3_thigh_r_mesh_layer_1_vtx_1
                0x00000000070531e0                dipshit3_thigh_r_mesh_layer_1_tri_0
                0x0000000007053208                dipshit3_thigh_r_mesh_layer_1_vtx_0
                0x0000000007053238                dipshit3_thigh_r_skinned_mesh_layer_1_tri_1
                0x0000000007053248                dipshit3_thigh_r_skinned_mesh_layer_1_vtx_1
                0x00000000070532a8                dipshit3_thigh_r_skinned_mesh_layer_1_tri_0
                0x00000000070532b8                dipshit3_thigh_r_skinned_mesh_layer_1_vtx_0
                0x0000000007053308                dipshit3_foot_l_mesh_layer_1_tri_2
                0x0000000007053338                dipshit3_foot_l_mesh_layer_1_vtx_2
                0x00000000070533b8                dipshit3_foot_l_mesh_layer_1_tri_1
                0x00000000070533e8                dipshit3_foot_l_mesh_layer_1_vtx_1
                0x0000000007053478                dipshit3_foot_l_mesh_layer_1_tri_0
                0x00000000070534b8                dipshit3_foot_l_mesh_layer_1_vtx_0
                0x0000000007053538                dipshit3_foot_l_skinned_mesh_layer_1_tri_0
                0x0000000007053548                dipshit3_foot_l_skinned_mesh_layer_1_vtx_0
                0x0000000007053598                dipshit3_knee_l_mesh_layer_1_tri_0
                0x00000000070535c8                dipshit3_knee_l_mesh_layer_1_vtx_0
                0x0000000007053618                dipshit3_knee_l_skinned_mesh_layer_1_tri_0
                0x0000000007053628                dipshit3_knee_l_skinned_mesh_layer_1_vtx_0
                0x0000000007053678                dipshit3_thigh_l_mesh_layer_1_tri_1
                0x00000000070536a8                dipshit3_thigh_l_mesh_layer_1_vtx_1
                0x00000000070536d8                dipshit3_thigh_l_mesh_layer_1_tri_0
                0x0000000007053700                dipshit3_thigh_l_mesh_layer_1_vtx_0
                0x0000000007053730                dipshit3_thigh_l_skinned_mesh_layer_1_tri_1
                0x0000000007053740                dipshit3_thigh_l_skinned_mesh_layer_1_vtx_1
                0x00000000070537a0                dipshit3_thigh_l_skinned_mesh_layer_1_tri_0
                0x00000000070537b0                dipshit3_thigh_l_skinned_mesh_layer_1_vtx_0
                0x0000000007053800                dipshit3_arm_r_mesh_layer_1_tri_1
                0x0000000007053830                dipshit3_arm_r_mesh_layer_1_vtx_1
                0x00000000070538b0                dipshit3_arm_r_mesh_layer_1_tri_0
                0x00000000070538e8                dipshit3_arm_r_mesh_layer_1_vtx_0
                0x0000000007053958                dipshit3_arm_r_skinned_mesh_layer_1_tri_0
                0x0000000007053968                dipshit3_arm_r_skinned_mesh_layer_1_vtx_0
                0x00000000070539b8                dipshit3_shoulder_r_mesh_layer_1_tri_0
                0x00000000070539f0                dipshit3_shoulder_r_mesh_layer_1_vtx_0
                0x0000000007053a30                dipshit3_shoulder_r_skinned_mesh_layer_1_tri_0
                0x0000000007053a40                dipshit3_shoulder_r_skinned_mesh_layer_1_vtx_0
                0x0000000007053aa0                dipshit3_arm_l_mesh_layer_1_tri_1
                0x0000000007053ad0                dipshit3_arm_l_mesh_layer_1_vtx_1
                0x0000000007053b50                dipshit3_arm_l_mesh_layer_1_tri_0
                0x0000000007053b88                dipshit3_arm_l_mesh_layer_1_vtx_0
                0x0000000007053bf8                dipshit3_arm_l_skinned_mesh_layer_1_tri_0
                0x0000000007053c08                dipshit3_arm_l_skinned_mesh_layer_1_vtx_0
                0x0000000007053c58                dipshit3_shoulder_l_mesh_layer_1_tri_0
                0x0000000007053c90                dipshit3_shoulder_l_mesh_layer_1_vtx_0
                0x0000000007053cd0                dipshit3_shoulder_l_skinned_mesh_layer_1_tri_0
                0x0000000007053ce0                dipshit3_shoulder_l_skinned_mesh_layer_1_vtx_0
                0x0000000007053d40                dipshit3_Bone_005_mesh_layer_1_tri_4
                0x0000000007053d68                dipshit3_Bone_005_mesh_layer_1_vtx_4
                0x0000000007053de8                dipshit3_Bone_005_mesh_layer_1_tri_3
                0x0000000007053e00                dipshit3_Bone_005_mesh_layer_1_vtx_3
                0x0000000007053e30                dipshit3_Bone_005_mesh_layer_1_tri_2
                0x0000000007053f18                dipshit3_Bone_005_mesh_layer_1_vtx_2
                0x0000000007054228                dipshit3_Bone_005_mesh_layer_1_tri_1
                0x00000000070542e0                dipshit3_Bone_005_mesh_layer_1_vtx_1
                0x0000000007054520                dipshit3_Bone_005_mesh_layer_1_tri_0
                0x0000000007054560                dipshit3_Bone_005_mesh_layer_1_vtx_0
                0x00000000070545a0                dipshit3_Bone_005_skinned_mesh_layer_1_tri_0
                0x00000000070545b0                dipshit3_Bone_005_skinned_mesh_layer_1_vtx_0
                0x0000000007054630                dipshit3_Bone_003_mesh_layer_1_tri_2
                0x0000000007054660                dipshit3_Bone_003_mesh_layer_1_vtx_2
                0x0000000007054700                dipshit3_Bone_003_mesh_layer_1_tri_1
                0x0000000007054718                dipshit3_Bone_003_mesh_layer_1_vtx_1
                0x0000000007054728                dipshit3_Bone_003_mesh_layer_1_tri_0
                0x0000000007054748                dipshit3_Bone_003_mesh_layer_1_vtx_0
                0x0000000007054758                dipshit3_Bone_003_skinned_mesh_layer_1_tri_1
                0x0000000007054768                dipshit3_Bone_003_skinned_mesh_layer_1_vtx_1
                0x0000000007054798                dipshit3_Bone_003_skinned_mesh_layer_1_tri_0
                0x00000000070547a8                dipshit3_Bone_003_skinned_mesh_layer_1_vtx_0
                0x00000000070547f8                dipshit3_Bone_002_mesh_layer_1_tri_2
                0x0000000007054818                dipshit3_Bone_002_mesh_layer_1_vtx_2
                0x0000000007054868                dipshit3_Bone_002_mesh_layer_1_tri_1
                0x0000000007054890                dipshit3_Bone_002_mesh_layer_1_vtx_1
                0x00000000070548e0                dipshit3_Bone_002_mesh_layer_1_tri_0
                0x0000000007054908                dipshit3_Bone_002_mesh_layer_1_vtx_0
                0x0000000007054938                dipshit3_Bone_002_skinned_mesh_layer_1_tri_1
                0x0000000007054948                dipshit3_Bone_002_skinned_mesh_layer_1_vtx_1
                0x0000000007054978                dipshit3_Bone_002_skinned_mesh_layer_1_tri_0
                0x0000000007054988                dipshit3_Bone_002_skinned_mesh_layer_1_vtx_0
                0x00000000070549d8                dipshit3_Bone_mesh_layer_1_tri_1
                0x0000000007054a28                dipshit3_Bone_mesh_layer_1_vtx_1
                0x0000000007054b28                dipshit3_Bone_mesh_layer_1_tri_0
                0x0000000007054b90                dipshit3_Bone_mesh_layer_1_vtx_0
                0x0000000007054d60                dipshit3__00015038_32x32_rgba16_ci4_pal_rgba16
                0x0000000007054d78                dipshit3__00015038_32x32_rgba16_ci4_pal_rgba16_aligner
                0x0000000007054d80                dipshit3__00015038_32x32_rgba16_ci4
                0x0000000007054f80                dipshit3__00015038_32x32_rgba16_ci4_aligner
                0x0000000007054f88                dipshit3_eyeneedhelp_ia8
                0x0000000007055f88                dipshit3_eyeneedhelp_ia8_aligner
                0x0000000007055f90                dipshit3_nostril_i8
                0x0000000007056f90                dipshit3_nostril_i8_aligner
                0x0000000007056f98                dipshit3_yoshibody_ia8
                0x0000000007057018                dipshit3_yoshibody_ia8_aligner
                0x0000000007057020                dipshit3_Unbenannt_1_ia8
                0x0000000007057420                dipshit3_Unbenannt_1_ia8_aligner
                0x0000000007057428                dipshit3_f3d_material_006_lights
                0x0000000007057440                dipshit3_f3d_material_008_lights
                0x0000000007057458                dipshit3_f3d_material_lights
                0x0000000007057470                dipshit3_f3d_material_007_layer1_lights
                0x0000000007057488                dipshit3_f3d_material_002_lights
                0x00000000070574a0                dipshit2_anims
                0x000000000705ab20                dipshit2_material_revert_render_settings
                0x000000000705ab60                dipshit2_shoulder2_l_mesh_layer_1
                0x000000000705ab98                dipshit2_shoulder2_l_skinned_mesh_layer_1
                0x000000000705abb8                dipshit2_shoulder_r_mesh_layer_1
                0x000000000705abd8                dipshit2_shoulder_r_skinned_mesh_layer_1
                0x000000000705abf8                dipshit2_shoulder2_r_mesh_layer_1
                0x000000000705ac30                dipshit2_shoulder2_r_skinned_mesh_layer_1
                0x000000000705ac50                dipshit2_shoulder_l_mesh_layer_1
                0x000000000705ac70                dipshit2_shoulder_l_skinned_mesh_layer_1
                0x000000000705ac90                dipshit2_foot_r_mesh_layer_1
                0x000000000705acd0                dipshit2_foot_r_skinned_mesh_layer_1
                0x000000000705acf0                dipshit2_chin_r_mesh_layer_1
                0x000000000705ad10                dipshit2_chin_r_skinned_mesh_layer_1
                0x000000000705ad30                dipshit2_leg_r_mesh_layer_1
                0x000000000705ad70                dipshit2_leg_r_skinned_mesh_layer_1
                0x000000000705ada8                dipshit2_foot_l_mesh_layer_1
                0x000000000705ade8                dipshit2_foot_l_skinned_mesh_layer_1
                0x000000000705ae08                dipshit2_chin_l_mesh_layer_1
                0x000000000705ae28                dipshit2_chin_l_skinned_mesh_layer_1
                0x000000000705ae48                dipshit2_leg_l_mesh_layer_1
                0x000000000705ae88                dipshit2_leg_l_skinned_mesh_layer_1
                0x000000000705aec0                dipshit2_Bone_005_mesh_layer_4
                0x000000000705aee0                dipshit2_Bone_005_mesh_layer_1
                0x000000000705af48                dipshit2_Bone_005_skinned_mesh_layer_1
                0x000000000705af68                dipshit2_Bone_003_mesh_layer_1
                0x000000000705afa8                dipshit2_Bone_003_skinned_mesh_layer_1
                0x000000000705afe0                dipshit2_Bone_002_mesh_layer_1
                0x000000000705b018                dipshit2_Bone_002_skinned_mesh_layer_1
                0x000000000705b050                dipshit2_Bone_mesh_layer_1
                0x000000000705b0a0                mat_revert_dipshit2_f3d_material_004
                0x000000000705b0c0                mat_dipshit2_f3d_material_004
                0x000000000705b178                mat_revert_dipshit2_f3d_material_003
                0x000000000705b198                mat_dipshit2_f3d_material_003
                0x000000000705b250                mat_revert_dipshit2_f3d_material_005
                0x000000000705b270                mat_dipshit2_f3d_material_005
                0x000000000705b2e0                mat_revert_dipshit2_f3d_material_007_layer1
                0x000000000705b308                mat_dipshit2_f3d_material_007_layer1
                0x000000000705b398                mat_revert_dipshit2_f3d_material_001
                0x000000000705b3b0                mat_dipshit2_f3d_material_001
                0x000000000705b3f0                mat_revert_dipshit2_f3d_material_002
                0x000000000705b408                mat_dipshit2_f3d_material_002
                0x000000000705b488                dipshit2_shoulder2_l_mesh_layer_1_tri_1
                0x000000000705b4b8                dipshit2_shoulder2_l_mesh_layer_1_vtx_1
                0x000000000705b538                dipshit2_shoulder2_l_mesh_layer_1_tri_0
                0x000000000705b570                dipshit2_shoulder2_l_mesh_layer_1_vtx_0
                0x000000000705b5e0                dipshit2_shoulder2_l_skinned_mesh_layer_1_tri_0
                0x000000000705b5f0                dipshit2_shoulder2_l_skinned_mesh_layer_1_vtx_0
                0x000000000705b640                dipshit2_shoulder_r_mesh_layer_1_tri_0
                0x000000000705b670                dipshit2_shoulder_r_mesh_layer_1_vtx_0
                0x000000000705b6d0                dipshit2_shoulder_r_skinned_mesh_layer_1_tri_0
                0x000000000705b6e0                dipshit2_shoulder_r_skinned_mesh_layer_1_vtx_0
                0x000000000705b740                dipshit2_shoulder2_r_mesh_layer_1_tri_1
                0x000000000705b770                dipshit2_shoulder2_r_mesh_layer_1_vtx_1
                0x000000000705b7f0                dipshit2_shoulder2_r_mesh_layer_1_tri_0
                0x000000000705b828                dipshit2_shoulder2_r_mesh_layer_1_vtx_0
                0x000000000705b898                dipshit2_shoulder2_r_skinned_mesh_layer_1_tri_0
                0x000000000705b8a8                dipshit2_shoulder2_r_skinned_mesh_layer_1_vtx_0
                0x000000000705b8f8                dipshit2_shoulder_l_mesh_layer_1_tri_0
                0x000000000705b928                dipshit2_shoulder_l_mesh_layer_1_vtx_0
                0x000000000705b988                dipshit2_shoulder_l_skinned_mesh_layer_1_tri_0
                0x000000000705b998                dipshit2_shoulder_l_skinned_mesh_layer_1_vtx_0
                0x000000000705b9f8                dipshit2_foot_r_mesh_layer_1_tri_2
                0x000000000705ba28                dipshit2_foot_r_mesh_layer_1_vtx_2
                0x000000000705baa8                dipshit2_foot_r_mesh_layer_1_tri_1
                0x000000000705bad8                dipshit2_foot_r_mesh_layer_1_vtx_1
                0x000000000705bb68                dipshit2_foot_r_mesh_layer_1_tri_0
                0x000000000705bba8                dipshit2_foot_r_mesh_layer_1_vtx_0
                0x000000000705bc28                dipshit2_foot_r_skinned_mesh_layer_1_tri_0
                0x000000000705bc38                dipshit2_foot_r_skinned_mesh_layer_1_vtx_0
                0x000000000705bc88                dipshit2_chin_r_mesh_layer_1_tri_0
                0x000000000705bcb8                dipshit2_chin_r_mesh_layer_1_vtx_0
                0x000000000705bd08                dipshit2_chin_r_skinned_mesh_layer_1_tri_0
                0x000000000705bd18                dipshit2_chin_r_skinned_mesh_layer_1_vtx_0
                0x000000000705bd68                dipshit2_leg_r_mesh_layer_1_tri_2
                0x000000000705bd80                dipshit2_leg_r_mesh_layer_1_vtx_2
                0x000000000705bdc0                dipshit2_leg_r_mesh_layer_1_tri_1
                0x000000000705bde8                dipshit2_leg_r_mesh_layer_1_vtx_1
                0x000000000705be28                dipshit2_leg_r_mesh_layer_1_tri_0
                0x000000000705be50                dipshit2_leg_r_mesh_layer_1_vtx_0
                0x000000000705be90                dipshit2_leg_r_skinned_mesh_layer_1_tri_1
                0x000000000705bea0                dipshit2_leg_r_skinned_mesh_layer_1_vtx_1
                0x000000000705bee0                dipshit2_leg_r_skinned_mesh_layer_1_tri_0
                0x000000000705bef0                dipshit2_leg_r_skinned_mesh_layer_1_vtx_0
                0x000000000705bf30                dipshit2_foot_l_mesh_layer_1_tri_2
                0x000000000705bf60                dipshit2_foot_l_mesh_layer_1_vtx_2
                0x000000000705bfe0                dipshit2_foot_l_mesh_layer_1_tri_1
                0x000000000705c010                dipshit2_foot_l_mesh_layer_1_vtx_1
                0x000000000705c0a0                dipshit2_foot_l_mesh_layer_1_tri_0
                0x000000000705c0e0                dipshit2_foot_l_mesh_layer_1_vtx_0
                0x000000000705c160                dipshit2_foot_l_skinned_mesh_layer_1_tri_0
                0x000000000705c170                dipshit2_foot_l_skinned_mesh_layer_1_vtx_0
                0x000000000705c1c0                dipshit2_chin_l_mesh_layer_1_tri_0
                0x000000000705c1f0                dipshit2_chin_l_mesh_layer_1_vtx_0
                0x000000000705c240                dipshit2_chin_l_skinned_mesh_layer_1_tri_0
                0x000000000705c250                dipshit2_chin_l_skinned_mesh_layer_1_vtx_0
                0x000000000705c2a0                dipshit2_leg_l_mesh_layer_1_tri_2
                0x000000000705c2b8                dipshit2_leg_l_mesh_layer_1_vtx_2
                0x000000000705c2f8                dipshit2_leg_l_mesh_layer_1_tri_1
                0x000000000705c320                dipshit2_leg_l_mesh_layer_1_vtx_1
                0x000000000705c360                dipshit2_leg_l_mesh_layer_1_tri_0
                0x000000000705c388                dipshit2_leg_l_mesh_layer_1_vtx_0
                0x000000000705c3c8                dipshit2_leg_l_skinned_mesh_layer_1_tri_1
                0x000000000705c3d8                dipshit2_leg_l_skinned_mesh_layer_1_vtx_1
                0x000000000705c418                dipshit2_leg_l_skinned_mesh_layer_1_tri_0
                0x000000000705c428                dipshit2_leg_l_skinned_mesh_layer_1_vtx_0
                0x000000000705c468                dipshit2_Bone_005_mesh_layer_4_tri_0
                0x000000000705c480                dipshit2_Bone_005_mesh_layer_4_vtx_0
                0x000000000705c4c0                dipshit2_Bone_005_mesh_layer_1_tri_3
                0x000000000705c500                dipshit2_Bone_005_mesh_layer_1_vtx_3
                0x000000000705c620                dipshit2_Bone_005_mesh_layer_1_tri_2
                0x000000000705c660                dipshit2_Bone_005_mesh_layer_1_vtx_2
                0x000000000705c770                dipshit2_Bone_005_mesh_layer_1_tri_1
                0x000000000705c890                dipshit2_Bone_005_mesh_layer_1_vtx_1
                0x000000000705ccd0                dipshit2_Bone_005_mesh_layer_1_tri_0
                0x000000000705cd10                dipshit2_Bone_005_mesh_layer_1_vtx_0
                0x000000000705cd90                dipshit2_Bone_005_skinned_mesh_layer_1_tri_0
                0x000000000705cda0                dipshit2_Bone_005_skinned_mesh_layer_1_vtx_0
                0x000000000705cde0                dipshit2_Bone_003_mesh_layer_1_tri_2
                0x000000000705ce00                dipshit2_Bone_003_mesh_layer_1_vtx_2
                0x000000000705ce60                dipshit2_Bone_003_mesh_layer_1_tri_1
                0x000000000705ce78                dipshit2_Bone_003_mesh_layer_1_vtx_1
                0x000000000705ce88                dipshit2_Bone_003_mesh_layer_1_tri_0
                0x000000000705cea8                dipshit2_Bone_003_mesh_layer_1_vtx_0
                0x000000000705ceb8                dipshit2_Bone_003_skinned_mesh_layer_1_tri_1
                0x000000000705cec8                dipshit2_Bone_003_skinned_mesh_layer_1_vtx_1
                0x000000000705cef8                dipshit2_Bone_003_skinned_mesh_layer_1_tri_0
                0x000000000705cf08                dipshit2_Bone_003_skinned_mesh_layer_1_vtx_0
                0x000000000705cf58                dipshit2_Bone_002_mesh_layer_1_tri_1
                0x000000000705cf88                dipshit2_Bone_002_mesh_layer_1_vtx_1
                0x000000000705cfd8                dipshit2_Bone_002_mesh_layer_1_tri_0
                0x000000000705d000                dipshit2_Bone_002_mesh_layer_1_vtx_0
                0x000000000705d030                dipshit2_Bone_002_skinned_mesh_layer_1_tri_1
                0x000000000705d040                dipshit2_Bone_002_skinned_mesh_layer_1_vtx_1
                0x000000000705d0c0                dipshit2_Bone_002_skinned_mesh_layer_1_tri_0
                0x000000000705d0d0                dipshit2_Bone_002_skinned_mesh_layer_1_vtx_0
                0x000000000705d120                dipshit2_Bone_mesh_layer_1_tri_2
                0x000000000705d180                dipshit2_Bone_mesh_layer_1_vtx_2
                0x000000000705d2b0                dipshit2_Bone_mesh_layer_1_tri_1
                0x000000000705d2f8                dipshit2_Bone_mesh_layer_1_vtx_1
                0x000000000705d408                dipshit2_Bone_mesh_layer_1_tri_0
                0x000000000705d440                dipshit2_Bone_mesh_layer_1_vtx_0
                0x000000000705d4e0                dipshit2__00015038_32x32_rgba16_ci8_pal_rgba16
                0x000000000705d538                dipshit2__00015038_32x32_rgba16_ci8_pal_rgba16_aligner
                0x000000000705d540                dipshit2__00015038_32x32_rgba16_ci8
                0x000000000705d940                dipshit2__00015038_32x32_rgba16_ci8_aligner
                0x000000000705d948                dipshit2_watercolor_bone_illustration_clipart_watercolor_bone_illustration_clipart_high_quality_illustration_halloween_scary_night_196513553_ci8_pal_rgba16
                0x000000000705daa0                dipshit2_watercolor_bone_illustration_clipart_watercolor_bone_illustration_clipart_high_quality_illustration_halloween_scary_night_196513553_ci8_pal_rgba16_aligner
                0x000000000705daa8                dipshit2_watercolor_bone_illustration_clipart_watercolor_bone_illustration_clipart_high_quality_illustration_halloween_scary_night_196513553_ci8
                0x000000000705e2a8                dipshit2_watercolor_bone_illustration_clipart_watercolor_bone_illustration_clipart_high_quality_illustration_halloween_scary_night_196513553_ci8_aligner
                0x000000000705e2b0                dipshit2_KKIIDDZZ_DAT_1475__p00__2__i8
                0x000000000705f2b0                dipshit2_KKIIDDZZ_DAT_1475__p00__2__i8_aligner
                0x000000000705f2b8                dipshit2_yoshibody_ia8
                0x000000000705f338                dipshit2_yoshibody_ia8_aligner
                0x000000000705f340                dipshit2_Unbenannt_1_ia8
                0x000000000705f740                dipshit2_Unbenannt_1_ia8_aligner
                0x000000000705f748                dipshit2_f3d_material_004_lights
                0x000000000705f760                dipshit2_f3d_material_003_lights
                0x000000000705f778                dipshit2_f3d_material_007_layer1_lights
                0x000000000705f790                dipshit2_f3d_material_001_lights
                0x000000000705f7a8                dipshit2_f3d_material_002_lights
                0x000000000705f7c0                yoshiDipshit1_anims
                0x0000000007061f48                yoshiDipshit1_material_revert_render_settings
                0x0000000007061f88                yoshiDipshit1_foot_r_mesh_layer_1
                0x0000000007061fb0                yoshiDipshit1_foot_r_skinned_mesh_layer_1
                0x0000000007061fd0                yoshiDipshit1_leg_r_mesh_layer_1
                0x0000000007061ff0                yoshiDipshit1_leg_r_skinned_mesh_layer_1
                0x0000000007062010                yoshiDipshit1_thigh_r_mesh_layer_1
                0x0000000007062030                yoshiDipshit1_thigh_r_skinned_mesh_layer_1
                0x0000000007062050                yoshiDipshit1_foot_l_mesh_layer_1
                0x0000000007062078                yoshiDipshit1_foot_l_skinned_mesh_layer_1
                0x0000000007062098                yoshiDipshit1_leg_l_mesh_layer_1
                0x00000000070620b8                yoshiDipshit1_leg_l_skinned_mesh_layer_1
                0x00000000070620d8                yoshiDipshit1_thigh_l_mesh_layer_1
                0x00000000070620f8                yoshiDipshit1_thigh_l_skinned_mesh_layer_1
                0x0000000007062118                yoshiDipshit1_arm_r_mesh_layer_1
                0x0000000007062150                yoshiDipshit1_arm_r_skinned_mesh_layer_1
                0x0000000007062170                yoshiDipshit1_shoulder_r_mesh_layer_1
                0x0000000007062190                yoshiDipshit1_shoulder_r_skinned_mesh_layer_1
                0x00000000070621b0                yoshiDipshit1_arm_l_mesh_layer_1
                0x00000000070621e8                yoshiDipshit1_arm_l_skinned_mesh_layer_1
                0x0000000007062208                yoshiDipshit1_shoulder_l_mesh_layer_1
                0x0000000007062228                yoshiDipshit1_shoulder_l_skinned_mesh_layer_1
                0x0000000007062248                yoshiDipshit1_Bone_008_mesh_layer_6
                0x0000000007062268                yoshiDipshit1_Bone_008_mesh_layer_4
                0x0000000007062288                yoshiDipshit1_Bone_008_mesh_layer_1
                0x00000000070622f0                yoshiDipshit1_Bone_008_skinned_mesh_layer_1
                0x0000000007062310                yoshiDipshit1_Bone_002_mesh_layer_1
                0x0000000007062338                yoshiDipshit1_Bone_002_skinned_mesh_layer_1
                0x0000000007062358                yoshiDipshit1_Bone_001_mesh_layer_1
                0x0000000007062378                yoshiDipshit1_Bone_001_skinned_mesh_layer_1
                0x0000000007062398                yoshiDipshit1_Bone_mesh_layer_1
                0x00000000070623b8                mat_revert_yoshiDipshit1_f3d_material
                0x00000000070623d0                mat_yoshiDipshit1_f3d_material
                0x0000000007062450                mat_revert_yoshiDipshit1_f3d_material_003
                0x0000000007062470                mat_yoshiDipshit1_f3d_material_003
                0x0000000007062528                mat_revert_yoshiDipshit1_f3d_material_005
                0x0000000007062540                mat_yoshiDipshit1_f3d_material_005
                0x00000000070625c0                mat_revert_yoshiDipshit1_f3d_material_006
                0x00000000070625e0                mat_yoshiDipshit1_f3d_material_006
                0x0000000007062698                mat_revert_yoshiDipshit1_f3d_material_002
                0x00000000070626b8                mat_yoshiDipshit1_f3d_material_002
                0x0000000007062770                mat_revert_yoshiDipshit1_f3d_material_001
                0x0000000007062788                mat_yoshiDipshit1_f3d_material_001
                0x0000000007062808                yoshiDipshit1_foot_r_mesh_layer_1_tri_1
                0x0000000007062858                yoshiDipshit1_foot_r_mesh_layer_1_vtx_1
                0x0000000007062988                yoshiDipshit1_foot_r_mesh_layer_1_tri_0
                0x00000000070629c8                yoshiDipshit1_foot_r_mesh_layer_1_vtx_0
                0x0000000007062a38                yoshiDipshit1_foot_r_skinned_mesh_layer_1_tri_0
                0x0000000007062a48                yoshiDipshit1_foot_r_skinned_mesh_layer_1_vtx_0
                0x0000000007062a88                yoshiDipshit1_leg_r_mesh_layer_1_tri_0
                0x0000000007062ab8                yoshiDipshit1_leg_r_mesh_layer_1_vtx_0
                0x0000000007062af8                yoshiDipshit1_leg_r_skinned_mesh_layer_1_tri_0
                0x0000000007062b08                yoshiDipshit1_leg_r_skinned_mesh_layer_1_vtx_0
                0x0000000007062b38                yoshiDipshit1_thigh_r_mesh_layer_1_tri_0
                0x0000000007062b68                yoshiDipshit1_thigh_r_mesh_layer_1_vtx_0
                0x0000000007062b98                yoshiDipshit1_thigh_r_skinned_mesh_layer_1_tri_0
                0x0000000007062ba8                yoshiDipshit1_thigh_r_skinned_mesh_layer_1_vtx_0
                0x0000000007062be8                yoshiDipshit1_foot_l_mesh_layer_1_tri_1
                0x0000000007062c38                yoshiDipshit1_foot_l_mesh_layer_1_vtx_1
                0x0000000007062d68                yoshiDipshit1_foot_l_mesh_layer_1_tri_0
                0x0000000007062da8                yoshiDipshit1_foot_l_mesh_layer_1_vtx_0
                0x0000000007062e18                yoshiDipshit1_foot_l_skinned_mesh_layer_1_tri_0
                0x0000000007062e28                yoshiDipshit1_foot_l_skinned_mesh_layer_1_vtx_0
                0x0000000007062e68                yoshiDipshit1_leg_l_mesh_layer_1_tri_0
                0x0000000007062e98                yoshiDipshit1_leg_l_mesh_layer_1_vtx_0
                0x0000000007062ed8                yoshiDipshit1_leg_l_skinned_mesh_layer_1_tri_0
                0x0000000007062ee8                yoshiDipshit1_leg_l_skinned_mesh_layer_1_vtx_0
                0x0000000007062f18                yoshiDipshit1_thigh_l_mesh_layer_1_tri_0
                0x0000000007062f48                yoshiDipshit1_thigh_l_mesh_layer_1_vtx_0
                0x0000000007062f78                yoshiDipshit1_thigh_l_skinned_mesh_layer_1_tri_0
                0x0000000007062f88                yoshiDipshit1_thigh_l_skinned_mesh_layer_1_vtx_0
                0x0000000007062fc8                yoshiDipshit1_arm_r_mesh_layer_1_tri_1
                0x0000000007062ff0                yoshiDipshit1_arm_r_mesh_layer_1_vtx_1
                0x0000000007063050                yoshiDipshit1_arm_r_mesh_layer_1_tri_0
                0x0000000007063080                yoshiDipshit1_arm_r_mesh_layer_1_vtx_0
                0x00000000070630d0                yoshiDipshit1_arm_r_skinned_mesh_layer_1_tri_0
                0x00000000070630e0                yoshiDipshit1_arm_r_skinned_mesh_layer_1_vtx_0
                0x0000000007063120                yoshiDipshit1_shoulder_r_mesh_layer_1_tri_0
                0x0000000007063148                yoshiDipshit1_shoulder_r_mesh_layer_1_vtx_0
                0x0000000007063178                yoshiDipshit1_shoulder_r_skinned_mesh_layer_1_tri_0
                0x0000000007063188                yoshiDipshit1_shoulder_r_skinned_mesh_layer_1_vtx_0
                0x00000000070631b8                yoshiDipshit1_arm_l_mesh_layer_1_tri_1
                0x00000000070631e0                yoshiDipshit1_arm_l_mesh_layer_1_vtx_1
                0x0000000007063240                yoshiDipshit1_arm_l_mesh_layer_1_tri_0
                0x0000000007063270                yoshiDipshit1_arm_l_mesh_layer_1_vtx_0
                0x00000000070632c0                yoshiDipshit1_arm_l_skinned_mesh_layer_1_tri_0
                0x00000000070632d0                yoshiDipshit1_arm_l_skinned_mesh_layer_1_vtx_0
                0x0000000007063310                yoshiDipshit1_shoulder_l_mesh_layer_1_tri_0
                0x0000000007063338                yoshiDipshit1_shoulder_l_mesh_layer_1_vtx_0
                0x0000000007063368                yoshiDipshit1_shoulder_l_skinned_mesh_layer_1_tri_0
                0x0000000007063378                yoshiDipshit1_shoulder_l_skinned_mesh_layer_1_vtx_0
                0x00000000070633a8                yoshiDipshit1_Bone_008_mesh_layer_6_tri_0
                0x00000000070633e8                yoshiDipshit1_Bone_008_mesh_layer_6_vtx_0
                0x00000000070634b8                yoshiDipshit1_Bone_008_mesh_layer_4_tri_0
                0x00000000070634d8                yoshiDipshit1_Bone_008_mesh_layer_4_vtx_0
                0x0000000007063558                yoshiDipshit1_Bone_008_mesh_layer_1_tri_3
                0x0000000007063570                yoshiDipshit1_Bone_008_mesh_layer_1_vtx_3
                0x00000000070635b0                yoshiDipshit1_Bone_008_mesh_layer_1_tri_2
                0x00000000070635d8                yoshiDipshit1_Bone_008_mesh_layer_1_vtx_2
                0x0000000007063658                yoshiDipshit1_Bone_008_mesh_layer_1_tri_1
                0x00000000070637e0                yoshiDipshit1_Bone_008_mesh_layer_1_vtx_1
                0x0000000007063e20                yoshiDipshit1_Bone_008_mesh_layer_1_tri_0
                0x0000000007063e48                yoshiDipshit1_Bone_008_mesh_layer_1_vtx_0
                0x0000000007063e68                yoshiDipshit1_Bone_008_skinned_mesh_layer_1_tri_0
                0x0000000007063e78                yoshiDipshit1_Bone_008_skinned_mesh_layer_1_vtx_0
                0x0000000007063ef8                yoshiDipshit1_Bone_002_mesh_layer_1_tri_1
                0x0000000007063f28                yoshiDipshit1_Bone_002_mesh_layer_1_vtx_1
                0x0000000007063fb8                yoshiDipshit1_Bone_002_mesh_layer_1_tri_0
                0x0000000007063fe0                yoshiDipshit1_Bone_002_mesh_layer_1_vtx_0
                0x0000000007064000                yoshiDipshit1_Bone_002_skinned_mesh_layer_1_tri_0
                0x0000000007064010                yoshiDipshit1_Bone_002_skinned_mesh_layer_1_vtx_0
                0x0000000007064090                yoshiDipshit1_Bone_001_mesh_layer_1_tri_0
                0x00000000070640d0                yoshiDipshit1_Bone_001_mesh_layer_1_vtx_0
                0x0000000007064150                yoshiDipshit1_Bone_001_skinned_mesh_layer_1_tri_0
                0x0000000007064160                yoshiDipshit1_Bone_001_skinned_mesh_layer_1_vtx_0
                0x00000000070641e0                yoshiDipshit1_Bone_mesh_layer_1_tri_0
                0x0000000007064278                yoshiDipshit1_Bone_mesh_layer_1_vtx_0
                0x00000000070644c8                yoshiDipshit1_DIpshitmouth_ia8
                0x00000000070654c8                yoshiDipshit1_DIpshitmouth_ia8_aligner
                0x00000000070654d0                yoshiDipshit1_Unbenannt_2_ci8_pal_rgba16
                0x0000000007065530                yoshiDipshit1_Unbenannt_2_ci8_pal_rgba16_aligner
                0x0000000007065538                yoshiDipshit1_Unbenannt_2_ci8
                0x0000000007065938                yoshiDipshit1_Unbenannt_2_ci8_aligner
                0x0000000007065940                yoshiDipshit1_nostril_i8
                0x0000000007066940                yoshiDipshit1_nostril_i8_aligner
                0x0000000007066948                yoshiDipshit1_shit_ass_eye_cock_ci4_pal_rgba16
                0x0000000007066968                yoshiDipshit1_shit_ass_eye_cock_ci4_pal_rgba16_aligner
                0x0000000007066970                yoshiDipshit1_shit_ass_eye_cock_ci4
                0x0000000007067170                yoshiDipshit1_shit_ass_eye_cock_ci4_aligner
                0x0000000007067178                yoshiDipshit1_Unbenannt_1_ci8_pal_rgba16
                0x00000000070671a8                yoshiDipshit1_Unbenannt_1_ci8_pal_rgba16_aligner
                0x00000000070671b0                yoshiDipshit1_Unbenannt_1_ci8
                0x00000000070675b0                yoshiDipshit1_Unbenannt_1_ci8_aligner
                0x00000000070675b8                yoshiDipshit1_yoshibody_ia8
                0x0000000007067638                yoshiDipshit1_yoshibody_ia8_aligner
                0x0000000007067640                yoshiDipshit1_f3d_material_lights
                0x0000000007067658                yoshiDipshit1_f3d_material_003_lights
                0x0000000007067670                yoshiDipshit1_f3d_material_005_lights
                0x0000000007067688                yoshiDipshit1_f3d_material_006_lights
                0x00000000070676a0                yoshiDipshit1_f3d_material_002_lights
                0x00000000070676b8                yoshiDipshit1_f3d_material_001_lights
                0x00000000070676d0                fakebush_collision
                0x0000000007067870                fakebush_material_revert_render_settings
                0x00000000070678b0                fakebush_Plane_mesh_layer_4
                0x00000000070678d0                mat_revert_fakebush_f3d_material_006
                0x00000000070678f0                mat_fakebush_f3d_material_006
                0x00000000070679a8                fakebush_Plane_mesh_layer_4_tri_0
                0x0000000007067a48                fakebush_Plane_mesh_layer_4_vtx_0
                0x0000000007067ce8                fakebush_btl_hei_4_01_3F600_hei_a_grass__ci4_pal_rgba16
                0x0000000007067d08                fakebush_btl_hei_4_01_3F600_hei_a_grass__ci4_pal_rgba16_aligner
                0x0000000007067d10                fakebush_btl_hei_4_01_3F600_hei_a_grass__ci4
                0x0000000007068510                fakebush_btl_hei_4_01_3F600_hei_a_grass__ci4_aligner
                0x0000000007068518                fakebush_f3d_material_006_lights
                0x0000000007068530                mamaeyes_Plane_mesh
                0x00000000070685c8                mat_revert_mamaeyes_EyesHakf
                0x00000000070685e0                mat_mamaeyes_EyesHakf
                0x0000000007068660                mat_revert_mamaeyes_eYEShAPPY
                0x0000000007068678                mat_mamaeyes_eYEShAPPY
                0x00000000070686f8                mat_revert_mamaeyes_EyeClosed
                0x0000000007068710                mat_mamaeyes_EyeClosed
                0x0000000007068790                mamaeyes_Plane_mesh_tri_2
                0x00000000070687a8                mamaeyes_Plane_mesh_vtx_2
                0x00000000070687d8                mamaeyes_Plane_mesh_tri_1
                0x00000000070687f0                mamaeyes_Plane_mesh_vtx_1
                0x0000000007068820                mamaeyes_Plane_mesh_tri_0
                0x0000000007068838                mamaeyes_Plane_mesh_vtx_0
                0x0000000007068868                mamaeyes_Plane_mesh_vtx_cull
                0x00000000070688e8                mamaeyes_MammaEyeV4Half_ia8
                0x00000000070698e8                mamaeyes_MammaEyeV4Half_ia8_aligner
                0x00000000070698f0                mamaeyes_MammaEyeV3CloseHappy_ia8
                0x000000000706a8f0                mamaeyes_MammaEyeV3CloseHappy_ia8_aligner
                0x000000000706a8f8                mamaeyes_MammaEyeV3Close_ia8
                0x000000000706b8f8                mamaeyes_MammaEyeV3Close_ia8_aligner
                0x000000000706b900                mamaeyes_EyesHakf_lights
                0x000000000706b918                mamaeyes_eYEShAPPY_lights
                0x000000000706b930                mamaeyes_EyeClosed_lights
                0x000000000706b948                babyegg_material_revert_render_settings
                0x000000000706b988                babyegg_ZZZMain_005_mesh_layer_1
                0x000000000706b9a8                mat_revert_babyegg_VMtl091_f3d
                0x000000000706b9c8                mat_babyegg_VMtl091_f3d
                0x000000000706ba80                babyegg_ZZZMain_005_mesh_layer_1_tri_0
                0x000000000706bbf0                babyegg_ZZZMain_005_mesh_layer_1_vtx_0
                0x000000000706c320                babyegg__4DE6FF52_c_ci4_pal_rgba16
                0x000000000706c340                babyegg__4DE6FF52_c_ci4_pal_rgba16_aligner
                0x000000000706c348                babyegg__4DE6FF52_c_ci4
                0x000000000706c548                babyegg__4DE6FF52_c_ci4_aligner
                0x000000000706c550                babyegg_VMtl091_f3d_lights
                0x000000000706c568                yoshimama_anims
                0x000000000706d530                yoshimama_material_revert_render_settings
                0x000000000706d570                yoshimama_arm_r_mesh_layer_1
                0x000000000706d598                yoshimama_arm_r_skinned_mesh_layer_1
                0x000000000706d5b8                yoshimama_shoulder_r_mesh_layer_1
                0x000000000706d5d8                yoshimama_shoulder_r_skinned_mesh_layer_1
                0x000000000706d5f8                yoshimama_arm_l_mesh_layer_1
                0x000000000706d620                yoshimama_arm_l_skinned_mesh_layer_1
                0x000000000706d640                yoshimama_shoulder_l_mesh_layer_1
                0x000000000706d660                yoshimama_shoulder_l_skinned_mesh_layer_1
                0x000000000706d680                yoshimama_leg_r_mesh_layer_1
                0x000000000706d6c0                yoshimama_leg_r_skinned_mesh_layer_1
                0x000000000706d6e0                yoshimama_leg_l_mesh_layer_1
                0x000000000706d720                yoshimama_leg_l_skinned_mesh_layer_1
                0x000000000706d740                yoshimama_Bone_007_mesh_layer_1
                0x000000000706d7b0                yoshimama_Bone_007_skinned_mesh_layer_1
                0x000000000706d7d0                yoshimama_Bone_006_mesh_layer_1
                0x000000000706d7f8                yoshimama_Bone_006_skinned_mesh_layer_1
                0x000000000706d818                yoshimama_Bone_005_mesh_layer_1
                0x000000000706d838                yoshimama_Bone_005_skinned_mesh_layer_1
                0x000000000706d858                yoshimama_Bone_mesh_layer_1
                0x000000000706d878                mat_revert_yoshimama_f3d_material_008
                0x000000000706d890                mat_yoshimama_f3d_material_008
                0x000000000706d910                mat_revert_yoshimama_f3d_material_009
                0x000000000706d928                mat_yoshimama_f3d_material_009
                0x000000000706d9a8                mat_revert_yoshimama_f3d_material_010
                0x000000000706d9c0                mat_yoshimama_f3d_material_010
                0x000000000706da40                mat_revert_yoshimama_EyesOpen
                0x000000000706da58                mat_yoshimama_EyesOpen
                0x000000000706dad8                mat_revert_yoshimama_f3d_material_007_layer1
                0x000000000706db00                mat_yoshimama_f3d_material_007_layer1
                0x000000000706db90                yoshimama_arm_r_mesh_layer_1_tri_1
                0x000000000706dbd0                yoshimama_arm_r_mesh_layer_1_vtx_1
                0x000000000706dcb0                yoshimama_arm_r_mesh_layer_1_tri_0
                0x000000000706dce0                yoshimama_arm_r_mesh_layer_1_vtx_0
                0x000000000706dd20                yoshimama_arm_r_skinned_mesh_layer_1_tri_0
                0x000000000706dd30                yoshimama_arm_r_skinned_mesh_layer_1_vtx_0
                0x000000000706dd70                yoshimama_shoulder_r_mesh_layer_1_tri_0
                0x000000000706dda0                yoshimama_shoulder_r_mesh_layer_1_vtx_0
                0x000000000706dde0                yoshimama_shoulder_r_skinned_mesh_layer_1_tri_0
                0x000000000706ddf0                yoshimama_shoulder_r_skinned_mesh_layer_1_vtx_0
                0x000000000706de30                yoshimama_arm_l_mesh_layer_1_tri_1
                0x000000000706de70                yoshimama_arm_l_mesh_layer_1_vtx_1
                0x000000000706df50                yoshimama_arm_l_mesh_layer_1_tri_0
                0x000000000706df80                yoshimama_arm_l_mesh_layer_1_vtx_0
                0x000000000706dfc0                yoshimama_arm_l_skinned_mesh_layer_1_tri_0
                0x000000000706dfd0                yoshimama_arm_l_skinned_mesh_layer_1_vtx_0
                0x000000000706e010                yoshimama_shoulder_l_mesh_layer_1_tri_0
                0x000000000706e040                yoshimama_shoulder_l_mesh_layer_1_vtx_0
                0x000000000706e080                yoshimama_shoulder_l_skinned_mesh_layer_1_tri_0
                0x000000000706e090                yoshimama_shoulder_l_skinned_mesh_layer_1_vtx_0
                0x000000000706e0d0                yoshimama_leg_r_mesh_layer_1_tri_2
                0x000000000706e0f0                yoshimama_leg_r_mesh_layer_1_vtx_2
                0x000000000706e140                yoshimama_leg_r_mesh_layer_1_tri_1
                0x000000000706e1b0                yoshimama_leg_r_mesh_layer_1_vtx_1
                0x000000000706e330                yoshimama_leg_r_mesh_layer_1_tri_0
                0x000000000706e368                yoshimama_leg_r_mesh_layer_1_vtx_0
                0x000000000706e3c8                yoshimama_leg_r_skinned_mesh_layer_1_tri_0
                0x000000000706e3d8                yoshimama_leg_r_skinned_mesh_layer_1_vtx_0
                0x000000000706e428                yoshimama_leg_l_mesh_layer_1_tri_2
                0x000000000706e448                yoshimama_leg_l_mesh_layer_1_vtx_2
                0x000000000706e498                yoshimama_leg_l_mesh_layer_1_tri_1
                0x000000000706e508                yoshimama_leg_l_mesh_layer_1_vtx_1
                0x000000000706e688                yoshimama_leg_l_mesh_layer_1_tri_0
                0x000000000706e6c0                yoshimama_leg_l_mesh_layer_1_vtx_0
                0x000000000706e720                yoshimama_leg_l_skinned_mesh_layer_1_tri_0
                0x000000000706e730                yoshimama_leg_l_skinned_mesh_layer_1_vtx_0
                0x000000000706e780                yoshimama_Bone_007_mesh_layer_1_tri_4
                0x000000000706e820                yoshimama_Bone_007_mesh_layer_1_vtx_4
                0x000000000706e9a0                yoshimama_Bone_007_mesh_layer_1_tri_3
                0x000000000706e9c0                yoshimama_Bone_007_mesh_layer_1_vtx_3
                0x000000000706ea20                yoshimama_Bone_007_mesh_layer_1_tri_2
                0x000000000706ea48                yoshimama_Bone_007_mesh_layer_1_vtx_2
                0x000000000706eac8                yoshimama_Bone_007_mesh_layer_1_tri_1
                0x000000000706ec50                yoshimama_Bone_007_mesh_layer_1_vtx_1
                0x000000000706f250                yoshimama_Bone_007_mesh_layer_1_tri_0
                0x000000000706f288                yoshimama_Bone_007_mesh_layer_1_vtx_0
                0x000000000706f308                yoshimama_Bone_007_skinned_mesh_layer_1_tri_0
                0x000000000706f318                yoshimama_Bone_007_skinned_mesh_layer_1_vtx_0
                0x000000000706f378                yoshimama_Bone_006_mesh_layer_1_tri_1
                0x000000000706f3a8                yoshimama_Bone_006_mesh_layer_1_vtx_1
                0x000000000706f448                yoshimama_Bone_006_mesh_layer_1_tri_0
                0x000000000706f468                yoshimama_Bone_006_mesh_layer_1_vtx_0
                0x000000000706f488                yoshimama_Bone_006_skinned_mesh_layer_1_tri_0
                0x000000000706f498                yoshimama_Bone_006_skinned_mesh_layer_1_vtx_0
                0x000000000706f4f8                yoshimama_Bone_005_mesh_layer_1_tri_0
                0x000000000706f528                yoshimama_Bone_005_mesh_layer_1_vtx_0
                0x000000000706f588                yoshimama_Bone_005_skinned_mesh_layer_1_tri_0
                0x000000000706f598                yoshimama_Bone_005_skinned_mesh_layer_1_vtx_0
                0x000000000706f5f8                yoshimama_Bone_mesh_layer_1_tri_0
                0x000000000706f6f0                yoshimama_Bone_mesh_layer_1_vtx_0
                0x000000000706fa10                yoshimama_Unbenannt_2_i8
                0x000000000706fe10                yoshimama_Unbenannt_2_i8_aligner
                0x000000000706fe18                yoshimama_CarrotTexture_Details_i8
                0x0000000007070e18                yoshimama_CarrotTexture_Details_i8_aligner
                0x0000000007070e20                yoshimama_nostril_i8
                0x0000000007071e20                yoshimama_nostril_i8_aligner
                0x0000000007071e28                yoshimama_MammaEyeV4_ia8
                0x0000000007072e28                yoshimama_MammaEyeV4_ia8_aligner
                0x0000000007072e30                yoshimama_yoshibody_ia8
                0x0000000007072eb0                yoshimama_yoshibody_ia8_aligner
                0x0000000007072eb8                yoshimama_f3d_material_008_lights
                0x0000000007072ed0                yoshimama_f3d_material_009_lights
                0x0000000007072ee8                yoshimama_f3d_material_010_lights
                0x0000000007072f00                yoshimama_EyesOpen_lights
                0x0000000007072f18                yoshimama_f3d_material_007_layer1_lights
                0x0000000007072f30                reznor_anims
                0x00000000070751d0                reznor_material_revert_render_settings
                0x0000000007075210                reznor_Fleg_r_mesh_layer_1
                0x0000000007075278                reznor_Fleg_r_skinned_mesh_layer_1
                0x00000000070752b0                reznor_Fleg_l_mesh_layer_1
                0x0000000007075318                reznor_Fleg_l_skinned_mesh_layer_1
                0x0000000007075350                reznor_Bone_004_mesh_layer_1
                0x0000000007075370                reznor_Bone_004_skinned_mesh_layer_1
                0x0000000007075390                reznor_Bone_002_mesh_layer_1
                0x00000000070753e0                reznor_bfoot1_r_mesh_layer_1
                0x0000000007075430                reznor_bfoot1_r_skinned_mesh_layer_1
                0x0000000007075468                reznor_Bleg1_r_mesh_layer_1
                0x0000000007075488                reznor_Bleg1_r_skinned_mesh_layer_1
                0x00000000070754a8                reznor_bfoot1_l_mesh_layer_1
                0x00000000070754f8                reznor_bfoot1_l_skinned_mesh_layer_1
                0x0000000007075530                reznor_Bleg1_l_mesh_layer_1
                0x0000000007075550                reznor_Bleg1_l_skinned_mesh_layer_1
                0x0000000007075570                reznor_Bone_mesh_layer_1
                0x0000000007075590                mat_revert_reznor_f3d_material_003
                0x00000000070755a8                mat_reznor_f3d_material_003
                0x0000000007075628                mat_revert_reznor_f3d_material_002
                0x0000000007075648                mat_reznor_f3d_material_002
                0x0000000007075700                mat_revert_reznor_f3d_material_001
                0x0000000007075718                mat_reznor_f3d_material_001
                0x0000000007075798                mat_revert_reznor_f3d_material
                0x00000000070757b0                mat_reznor_f3d_material
                0x00000000070757f0                reznor_Fleg_r_mesh_layer_1_tri_3
                0x0000000007075808                reznor_Fleg_r_mesh_layer_1_vtx_3
                0x0000000007075838                reznor_Fleg_r_mesh_layer_1_tri_2
                0x0000000007075858                reznor_Fleg_r_mesh_layer_1_vtx_2
                0x00000000070758a8                reznor_Fleg_r_mesh_layer_1_tri_1
                0x00000000070758c0                reznor_Fleg_r_mesh_layer_1_vtx_1
                0x00000000070758e0                reznor_Fleg_r_mesh_layer_1_tri_0
                0x0000000007075910                reznor_Fleg_r_mesh_layer_1_vtx_0
                0x0000000007075960                reznor_Fleg_r_skinned_mesh_layer_1_tri_1
                0x0000000007075970                reznor_Fleg_r_skinned_mesh_layer_1_vtx_1
                0x0000000007075980                reznor_Fleg_r_skinned_mesh_layer_1_tri_0
                0x0000000007075990                reznor_Fleg_r_skinned_mesh_layer_1_vtx_0
                0x00000000070759e0                reznor_Fleg_l_mesh_layer_1_tri_3
                0x00000000070759f8                reznor_Fleg_l_mesh_layer_1_vtx_3
                0x0000000007075a28                reznor_Fleg_l_mesh_layer_1_tri_2
                0x0000000007075a48                reznor_Fleg_l_mesh_layer_1_vtx_2
                0x0000000007075aa8                reznor_Fleg_l_mesh_layer_1_tri_1
                0x0000000007075ac0                reznor_Fleg_l_mesh_layer_1_vtx_1
                0x0000000007075ae0                reznor_Fleg_l_mesh_layer_1_tri_0
                0x0000000007075b10                reznor_Fleg_l_mesh_layer_1_vtx_0
                0x0000000007075b70                reznor_Fleg_l_skinned_mesh_layer_1_tri_1
                0x0000000007075b80                reznor_Fleg_l_skinned_mesh_layer_1_vtx_1
                0x0000000007075b90                reznor_Fleg_l_skinned_mesh_layer_1_tri_0
                0x0000000007075ba0                reznor_Fleg_l_skinned_mesh_layer_1_vtx_0
                0x0000000007075c00                reznor_Bone_004_mesh_layer_1_tri_0
                0x0000000007075c28                reznor_Bone_004_mesh_layer_1_vtx_0
                0x0000000007075c48                reznor_Bone_004_skinned_mesh_layer_1_tri_0
                0x0000000007075c58                reznor_Bone_004_skinned_mesh_layer_1_vtx_0
                0x0000000007075ca8                reznor_Bone_002_mesh_layer_1_tri_2
                0x0000000007075cd0                reznor_Bone_002_mesh_layer_1_vtx_2
                0x0000000007075d40                reznor_Bone_002_mesh_layer_1_tri_1
                0x0000000007075da0                reznor_Bone_002_mesh_layer_1_vtx_1
                0x0000000007075f90                reznor_Bone_002_mesh_layer_1_tri_0
                0x0000000007075fb8                reznor_Bone_002_mesh_layer_1_vtx_0
                0x0000000007076038                reznor_bfoot1_r_mesh_layer_1_tri_2
                0x0000000007076050                reznor_bfoot1_r_mesh_layer_1_vtx_2
                0x0000000007076090                reznor_bfoot1_r_mesh_layer_1_tri_1
                0x00000000070760a8                reznor_bfoot1_r_mesh_layer_1_vtx_1
                0x00000000070760c8                reznor_bfoot1_r_mesh_layer_1_tri_0
                0x00000000070760f0                reznor_bfoot1_r_mesh_layer_1_vtx_0
                0x0000000007076130                reznor_bfoot1_r_skinned_mesh_layer_1_tri_1
                0x0000000007076140                reznor_bfoot1_r_skinned_mesh_layer_1_vtx_1
                0x0000000007076160                reznor_bfoot1_r_skinned_mesh_layer_1_tri_0
                0x0000000007076170                reznor_bfoot1_r_skinned_mesh_layer_1_vtx_0
                0x00000000070761b0                reznor_Bleg1_r_mesh_layer_1_tri_0
                0x00000000070761e0                reznor_Bleg1_r_mesh_layer_1_vtx_0
                0x0000000007076220                reznor_Bleg1_r_skinned_mesh_layer_1_tri_0
                0x0000000007076230                reznor_Bleg1_r_skinned_mesh_layer_1_vtx_0
                0x0000000007076280                reznor_bfoot1_l_mesh_layer_1_tri_2
                0x0000000007076298                reznor_bfoot1_l_mesh_layer_1_vtx_2
                0x00000000070762d8                reznor_bfoot1_l_mesh_layer_1_tri_1
                0x00000000070762f0                reznor_bfoot1_l_mesh_layer_1_vtx_1
                0x0000000007076310                reznor_bfoot1_l_mesh_layer_1_tri_0
                0x0000000007076338                reznor_bfoot1_l_mesh_layer_1_vtx_0
                0x0000000007076388                reznor_bfoot1_l_skinned_mesh_layer_1_tri_1
                0x0000000007076398                reznor_bfoot1_l_skinned_mesh_layer_1_vtx_1
                0x00000000070763b8                reznor_bfoot1_l_skinned_mesh_layer_1_tri_0
                0x00000000070763c8                reznor_bfoot1_l_skinned_mesh_layer_1_vtx_0
                0x0000000007076418                reznor_Bleg1_l_mesh_layer_1_tri_0
                0x0000000007076448                reznor_Bleg1_l_mesh_layer_1_vtx_0
                0x00000000070764a8                reznor_Bleg1_l_skinned_mesh_layer_1_tri_0
                0x00000000070764b8                reznor_Bleg1_l_skinned_mesh_layer_1_vtx_0
                0x0000000007076518                reznor_Bone_mesh_layer_1_tri_0
                0x0000000007076580                reznor_Bone_mesh_layer_1_vtx_0
                0x00000000070766f0                reznor_Reznor_SMW_ia8
                0x00000000070776f0                reznor_Reznor_SMW_ia8_aligner
                0x00000000070776f8                reznor_ab67616d0000b273d397e44d72f7cd53e3b9067e_ci8_pal_rgba16
                0x0000000007077760                reznor_ab67616d0000b273d397e44d72f7cd53e3b9067e_ci8_pal_rgba16_aligner
                0x0000000007077768                reznor_ab67616d0000b273d397e44d72f7cd53e3b9067e_ci8
                0x0000000007077f68                reznor_ab67616d0000b273d397e44d72f7cd53e3b9067e_ci8_aligner
                0x0000000007077f70                reznor_reznorclaw_ia8
                0x0000000007078770                reznor_reznorclaw_ia8_aligner
                0x0000000007078778                reznor_f3d_material_003_lights
                0x0000000007078790                reznor_f3d_material_002_lights
                0x00000000070787a8                reznor_f3d_material_001_lights
                0x00000000070787c0                reznor_f3d_material_lights
                0x00000000070787d8                swingVine_anims
                0x0000000007078a00                swingvine_material_revert_render_settings
                0x0000000007078a40                swingvine_Bone_004_mesh_layer_1
                0x0000000007078a68                swingvine_Bone_004_skinned_mesh_layer_1
                0x0000000007078a88                swingvine_Bone_003_mesh_layer_1
                0x0000000007078aa8                swingvine_Bone_003_skinned_mesh_layer_1
                0x0000000007078ac8                swingvine_Bone_002_mesh_layer_1
                0x0000000007078ae8                swingvine_Bone_002_skinned_mesh_layer_1
                0x0000000007078b08                swingvine_Bone_001_mesh_layer_1
                0x0000000007078b28                swingvine_Bone_001_skinned_mesh_layer_1
                0x0000000007078b48                swingvine_Bone_005_mesh_layer_1
                0x0000000007078b68                swingvine_Bone_005_skinned_mesh_layer_1
                0x0000000007078b88                swingvine_Bone_mesh_layer_1
                0x0000000007078ba8                mat_revert_swingvine_f3d_material_022
                0x0000000007078bc8                mat_swingvine_f3d_material_022
                0x0000000007078c80                swingvine_Bone_004_mesh_layer_1_tri_1
                0x0000000007078ca0                swingvine_Bone_004_mesh_layer_1_vtx_1
                0x0000000007078d00                swingvine_Bone_004_mesh_layer_1_tri_0
                0x0000000007078d30                swingvine_Bone_004_mesh_layer_1_vtx_0
                0x0000000007078d80                swingvine_Bone_004_skinned_mesh_layer_1_tri_0
                0x0000000007078d90                swingvine_Bone_004_skinned_mesh_layer_1_vtx_0
                0x0000000007078de0                swingvine_Bone_003_mesh_layer_1_tri_0
                0x0000000007078e10                swingvine_Bone_003_mesh_layer_1_vtx_0
                0x0000000007078e60                swingvine_Bone_003_skinned_mesh_layer_1_tri_0
                0x0000000007078e70                swingvine_Bone_003_skinned_mesh_layer_1_vtx_0
                0x0000000007078ec0                swingvine_Bone_002_mesh_layer_1_tri_0
                0x0000000007078ef0                swingvine_Bone_002_mesh_layer_1_vtx_0
                0x0000000007078f40                swingvine_Bone_002_skinned_mesh_layer_1_tri_0
                0x0000000007078f50                swingvine_Bone_002_skinned_mesh_layer_1_vtx_0
                0x0000000007078fa0                swingvine_Bone_001_mesh_layer_1_tri_0
                0x0000000007078fd0                swingvine_Bone_001_mesh_layer_1_vtx_0
                0x0000000007079020                swingvine_Bone_001_skinned_mesh_layer_1_tri_0
                0x0000000007079030                swingvine_Bone_001_skinned_mesh_layer_1_vtx_0
                0x0000000007079080                swingvine_Bone_005_mesh_layer_1_tri_0
                0x00000000070790b0                swingvine_Bone_005_mesh_layer_1_vtx_0
                0x0000000007079100                swingvine_Bone_005_skinned_mesh_layer_1_tri_0
                0x0000000007079110                swingvine_Bone_005_skinned_mesh_layer_1_vtx_0
                0x0000000007079160                swingvine_Bone_mesh_layer_1_tri_0
                0x0000000007079180                swingvine_Bone_mesh_layer_1_vtx_0
                0x00000000070791d0                swingvine_VineLight_ci4_pal_rgba16
                0x00000000070791f0                swingvine_VineLight_ci4_pal_rgba16_aligner
                0x00000000070791f8                swingvine_VineLight_ci4
                0x00000000070799f8                swingvine_VineLight_ci4_aligner
                0x0000000007079a00                swingvine_f3d_material_022_lights
                0x0000000007079a18                bendleaf_collision
                0x0000000007079a68                bendleaf_material_revert_render_settings
                0x0000000007079aa8                bendleaf_Plane_mesh_layer_4
                0x0000000007079ac8                mat_revert_bendleaf_f3d_material
                0x0000000007079ae0                mat_bendleaf_f3d_material
                0x0000000007079b60                bendleaf_Plane_mesh_layer_4_tri_0
                0x0000000007079b80                bendleaf_Plane_mesh_layer_4_vtx_0
                0x0000000007079be0                bendleaf_plant_my03_PalmLeaf01_difgreyscale_ia8
                0x000000000707abe0                bendleaf_plant_my03_PalmLeaf01_difgreyscale_ia8_aligner
                0x000000000707abe8                bendleaf_f3d_material_lights
                0x000000000707ac00                bounceShroom2_material_revert_render_settings
                0x000000000707ac40                bounceShroom2_GamemodelShape_001_mesh_layer_1
                0x000000000707ac90                mat_revert_bounceShroom2_f3d_material_002
                0x000000000707aca8                mat_bounceShroom2_f3d_material_002
                0x000000000707ad28                mat_revert_bounceShroom2_f3d_material
                0x000000000707ad40                mat_bounceShroom2_f3d_material
                0x000000000707adc0                mat_revert_bounceShroom2_f3d_material_003_layer1
                0x000000000707ade8                mat_bounceShroom2_f3d_material_003_layer1
                0x000000000707ae80                bounceShroom2_GamemodelShape_001_mesh_layer_1_tri_2
                0x000000000707aeb8                bounceShroom2_GamemodelShape_001_mesh_layer_1_vtx_2
                0x000000000707af78                bounceShroom2_GamemodelShape_001_mesh_layer_1_tri_1
                0x000000000707afb0                bounceShroom2_GamemodelShape_001_mesh_layer_1_vtx_1
                0x000000000707b060                bounceShroom2_GamemodelShape_001_mesh_layer_1_tri_0
                0x000000000707b168                bounceShroom2_GamemodelShape_001_mesh_layer_1_vtx_0
                0x000000000707b538                bounceShroom2_pirates_mas01txy_i8
                0x000000000707c538                bounceShroom2_pirates_mas01txy_i8_aligner
                0x000000000707c540                bounceShroom2_KKIIDDZZ_DAT_624__p00__2__i8
                0x000000000707d540                bounceShroom2_KKIIDDZZ_DAT_624__p00__2__i8_aligner
                0x000000000707d548                bounceShroom2_GALE01_bd08f82b_9_i8
                0x000000000707e548                bounceShroom2_GALE01_bd08f82b_9_i8_aligner
                0x000000000707e550                bounceShroom2_f3d_material_002_lights
                0x000000000707e568                bounceShroom2_f3d_material_lights
                0x000000000707e580                bounceShroom2_f3d_material_003_layer1_lights
                0x000000000707e598                bounceShroom2_collision
                0x000000000707e89c                bounceShroom_collision
                0x000000000707eba0                bounceShroom_material_revert_render_settings
                0x000000000707ebe0                bounceShroom_GamemodelShape_mesh_layer_1
                0x000000000707ec30                mat_revert_bounceShroom_f3d_material_002
                0x000000000707ec48                mat_bounceShroom_f3d_material_002
                0x000000000707ecc8                mat_revert_bounceShroom_f3d_material
                0x000000000707ece0                mat_bounceShroom_f3d_material
                0x000000000707ed60                mat_revert_bounceShroom_f3d_material_001_layer1
                0x000000000707ed88                mat_bounceShroom_f3d_material_001_layer1
                0x000000000707ee20                bounceShroom_GamemodelShape_mesh_layer_1_tri_2
                0x000000000707ee58                bounceShroom_GamemodelShape_mesh_layer_1_vtx_2
                0x000000000707ef18                bounceShroom_GamemodelShape_mesh_layer_1_tri_1
                0x000000000707ef50                bounceShroom_GamemodelShape_mesh_layer_1_vtx_1
                0x000000000707f000                bounceShroom_GamemodelShape_mesh_layer_1_tri_0
                0x000000000707f108                bounceShroom_GamemodelShape_mesh_layer_1_vtx_0
                0x000000000707f4d8                bounceShroom_pirates_mas01txy_i8
                0x00000000070804d8                bounceShroom_pirates_mas01txy_i8_aligner
                0x00000000070804e0                bounceShroom_KKIIDDZZ_DAT_624__p00__2__i8
                0x00000000070814e0                bounceShroom_KKIIDDZZ_DAT_624__p00__2__i8_aligner
                0x00000000070814e8                bounceShroom_GALE01_bd08f82b_9_i8
                0x00000000070824e8                bounceShroom_GALE01_bd08f82b_9_i8_aligner
                0x00000000070824f0                bounceShroom_f3d_material_002_lights
                0x0000000007082508                bounceShroom_f3d_material_lights
                0x0000000007082520                bounceShroom_f3d_material_001_layer1_lights
                0x0000000007082538                dorrieeyes_Plane_mesh
                0x00000000070825b8                mat_revert_dorrieeyes_eyehalf
                0x00000000070825d8                mat_dorrieeyes_eyehalf
                0x0000000007082690                mat_revert_dorrieeyes_eyeclosed
                0x00000000070826b0                mat_dorrieeyes_eyeclosed
                0x0000000007082768                dorrieeyes_Plane_mesh_tri_1
                0x0000000007082780                dorrieeyes_Plane_mesh_vtx_1
                0x00000000070827b0                dorrieeyes_Plane_mesh_tri_0
                0x00000000070827c8                dorrieeyes_Plane_mesh_vtx_0
                0x00000000070827f8                dorrieeyes_Plane_mesh_vtx_cull
                0x0000000007082878                dorrieeyes_unkno2wn_ci4_pal_rgba16
                0x0000000007082898                dorrieeyes_unkno2wn_ci4_pal_rgba16_aligner
                0x00000000070828a0                dorrieeyes_unkno2wn_ci4
                0x00000000070830a0                dorrieeyes_unkno2wn_ci4_aligner
                0x00000000070830a8                dorrieeyes_eyeframenessie2_ci4_pal_rgba16
                0x00000000070830c8                dorrieeyes_eyeframenessie2_ci4_pal_rgba16_aligner
                0x00000000070830d0                dorrieeyes_eyeframenessie2_ci4
                0x00000000070838d0                dorrieeyes_eyeframenessie2_ci4_aligner
                0x00000000070838d8                dorrieeyes_eyehalf_lights
                0x00000000070838f0                dorrieeyes_eyeclosed_lights
                0x0000000007083908                nessie_collision
                0x0000000007083af0                nessie_anims
                0x0000000007084058                nessie_material_revert_render_settings
                0x0000000007084098                nessie_Bone_002_mesh_layer_1
                0x00000000070840c0                nessie_Bone_002_skinned_mesh_layer_1
                0x00000000070840e0                nessie_Bone_001_mesh_layer_1
                0x0000000007084130                nessie_Bone_mesh_layer_1
                0x0000000007084150                mat_revert_nessie_f3d_material_003
                0x0000000007084170                mat_nessie_f3d_material_003
                0x0000000007084228                mat_revert_nessie_material_3_f3d
                0x0000000007084240                mat_nessie_material_3_f3d
                0x00000000070842a8                mat_revert_nessie_f3d_material_002
                0x00000000070842c0                mat_nessie_f3d_material_002
                0x0000000007084300                nessie_Bone_002_mesh_layer_1_tri_1
                0x0000000007084318                nessie_Bone_002_mesh_layer_1_vtx_1
                0x0000000007084348                nessie_Bone_002_mesh_layer_1_tri_0
                0x0000000007084378                nessie_Bone_002_mesh_layer_1_vtx_0
                0x00000000070843c8                nessie_Bone_002_skinned_mesh_layer_1_tri_0
                0x00000000070843d8                nessie_Bone_002_skinned_mesh_layer_1_vtx_0
                0x0000000007084448                nessie_Bone_001_mesh_layer_1_tri_2
                0x0000000007084468                nessie_Bone_001_mesh_layer_1_vtx_2
                0x00000000070844c8                nessie_Bone_001_mesh_layer_1_tri_1
                0x00000000070845c8                nessie_Bone_001_mesh_layer_1_vtx_1
                0x00000000070849f8                nessie_Bone_001_mesh_layer_1_tri_0
                0x0000000007084a18                nessie_Bone_001_mesh_layer_1_vtx_0
                0x0000000007084a78                nessie_Bone_mesh_layer_1_tri_0
                0x0000000007084ad0                nessie_Bone_mesh_layer_1_vtx_0
                0x0000000007084bf0                nessie_RaidonEye_alb_ci4_pal_rgba16
                0x0000000007084c10                nessie_RaidonEye_alb_ci4_pal_rgba16_aligner
                0x0000000007084c18                nessie_RaidonEye_alb_ci4
                0x0000000007085418                nessie_RaidonEye_alb_ci4_aligner
                0x0000000007085420                nessie_nostril_i8
                0x0000000007086420                nessie_nostril_i8_aligner
                0x0000000007086428                nessie_f3d_material_003_lights
                0x0000000007086440                nessie_f3d_material_002_lights
                0x0000000007086458                diplosaurus_anims
                0x00000000070878d0                diplosaurus_material_revert_render_settings
                0x0000000007087910                diplosaurus_leg_r_mesh_layer_1
                0x0000000007087978                diplosaurus_leg_r_skinned_mesh_layer_1
                0x00000000070879b0                diplosaurus_thigh_r_mesh_layer_1
                0x00000000070879d8                diplosaurus_thigh_r_skinned_mesh_layer_1
                0x00000000070879f8                diplosaurus_leg_l_mesh_layer_1
                0x0000000007087a60                diplosaurus_leg_l_skinned_mesh_layer_1
                0x0000000007087a98                diplosaurus_thigh_l_mesh_layer_1
                0x0000000007087ac0                diplosaurus_thigh_l_skinned_mesh_layer_1
                0x0000000007087ae0                diplosaurus_arm2_r_mesh_layer_1
                0x0000000007087b20                diplosaurus_arm2_r_skinned_mesh_layer_1
                0x0000000007087b40                diplosaurus_arm_r_mesh_layer_1
                0x0000000007087b60                diplosaurus_arm2_l_mesh_layer_1
                0x0000000007087ba0                diplosaurus_arm2_l_skinned_mesh_layer_1
                0x0000000007087bc0                diplosaurus_arm_l_mesh_layer_1
                0x0000000007087be0                diplosaurus_Bone_020_mesh_layer_1
                0x0000000007087c60                diplosaurus_Bone_020_skinned_mesh_layer_1
                0x0000000007087c80                diplosaurus_Bone_015_mesh_layer_1
                0x0000000007087cd8                diplosaurus_Bone_015_skinned_mesh_layer_1
                0x0000000007087d10                diplosaurus_Bone_011_mesh_layer_1
                0x0000000007087d48                mat_revert_diplosaurus_f3d_material_004
                0x0000000007087d68                mat_diplosaurus_f3d_material_004
                0x0000000007087e20                mat_revert_diplosaurus_f3d_material_002
                0x0000000007087e40                mat_diplosaurus_f3d_material_002
                0x0000000007087ef8                mat_revert_diplosaurus_f3d_material_003
                0x0000000007087f18                mat_diplosaurus_f3d_material_003
                0x0000000007087fd0                mat_revert_diplosaurus_f3d_material
                0x0000000007087fe8                mat_diplosaurus_f3d_material
                0x0000000007088070                mat_revert_diplosaurus_f3d_material_001
                0x0000000007088088                mat_diplosaurus_f3d_material_001
                0x00000000070880c8                diplosaurus_leg_r_mesh_layer_1_tri_3
                0x00000000070880e0                diplosaurus_leg_r_mesh_layer_1_vtx_3
                0x0000000007088120                diplosaurus_leg_r_mesh_layer_1_tri_2
                0x0000000007088138                diplosaurus_leg_r_mesh_layer_1_vtx_2
                0x0000000007088178                diplosaurus_leg_r_mesh_layer_1_tri_1
                0x0000000007088198                diplosaurus_leg_r_mesh_layer_1_vtx_1
                0x00000000070881d8                diplosaurus_leg_r_mesh_layer_1_tri_0
                0x0000000007088200                diplosaurus_leg_r_mesh_layer_1_vtx_0
                0x0000000007088260                diplosaurus_leg_r_skinned_mesh_layer_1_tri_1
                0x0000000007088270                diplosaurus_leg_r_skinned_mesh_layer_1_vtx_1
                0x0000000007088290                diplosaurus_leg_r_skinned_mesh_layer_1_tri_0
                0x00000000070882a0                diplosaurus_leg_r_skinned_mesh_layer_1_vtx_0
                0x0000000007088300                diplosaurus_thigh_r_mesh_layer_1_tri_1
                0x0000000007088338                diplosaurus_thigh_r_mesh_layer_1_vtx_1
                0x0000000007088418                diplosaurus_thigh_r_mesh_layer_1_tri_0
                0x0000000007088460                diplosaurus_thigh_r_mesh_layer_1_vtx_0
                0x00000000070884f0                diplosaurus_thigh_r_skinned_mesh_layer_1_tri_0
                0x0000000007088500                diplosaurus_thigh_r_skinned_mesh_layer_1_vtx_0
                0x00000000070885a0                diplosaurus_leg_l_mesh_layer_1_tri_3
                0x00000000070885b8                diplosaurus_leg_l_mesh_layer_1_vtx_3
                0x00000000070885f8                diplosaurus_leg_l_mesh_layer_1_tri_2
                0x0000000007088610                diplosaurus_leg_l_mesh_layer_1_vtx_2
                0x0000000007088650                diplosaurus_leg_l_mesh_layer_1_tri_1
                0x0000000007088670                diplosaurus_leg_l_mesh_layer_1_vtx_1
                0x00000000070886b0                diplosaurus_leg_l_mesh_layer_1_tri_0
                0x00000000070886d8                diplosaurus_leg_l_mesh_layer_1_vtx_0
                0x0000000007088738                diplosaurus_leg_l_skinned_mesh_layer_1_tri_1
                0x0000000007088748                diplosaurus_leg_l_skinned_mesh_layer_1_vtx_1
                0x0000000007088768                diplosaurus_leg_l_skinned_mesh_layer_1_tri_0
                0x0000000007088778                diplosaurus_leg_l_skinned_mesh_layer_1_vtx_0
                0x00000000070887d8                diplosaurus_thigh_l_mesh_layer_1_tri_1
                0x0000000007088810                diplosaurus_thigh_l_mesh_layer_1_vtx_1
                0x00000000070888f0                diplosaurus_thigh_l_mesh_layer_1_tri_0
                0x0000000007088938                diplosaurus_thigh_l_mesh_layer_1_vtx_0
                0x00000000070889c8                diplosaurus_thigh_l_skinned_mesh_layer_1_tri_0
                0x00000000070889d8                diplosaurus_thigh_l_skinned_mesh_layer_1_vtx_0
                0x0000000007088a78                diplosaurus_arm2_r_mesh_layer_1_tri_2
                0x0000000007088a98                diplosaurus_arm2_r_mesh_layer_1_vtx_2
                0x0000000007088ae8                diplosaurus_arm2_r_mesh_layer_1_tri_1
                0x0000000007088b28                diplosaurus_arm2_r_mesh_layer_1_vtx_1
                0x0000000007088c48                diplosaurus_arm2_r_mesh_layer_1_tri_0
                0x0000000007088c80                diplosaurus_arm2_r_mesh_layer_1_vtx_0
                0x0000000007088cf0                diplosaurus_arm2_r_skinned_mesh_layer_1_tri_0
                0x0000000007088d00                diplosaurus_arm2_r_skinned_mesh_layer_1_vtx_0
                0x0000000007088d60                diplosaurus_arm_r_mesh_layer_1_tri_0
                0x0000000007088d90                diplosaurus_arm_r_mesh_layer_1_vtx_0
                0x0000000007088e10                diplosaurus_arm2_l_mesh_layer_1_tri_2
                0x0000000007088e30                diplosaurus_arm2_l_mesh_layer_1_vtx_2
                0x0000000007088e80                diplosaurus_arm2_l_mesh_layer_1_tri_1
                0x0000000007088ec0                diplosaurus_arm2_l_mesh_layer_1_vtx_1
                0x0000000007088fe0                diplosaurus_arm2_l_mesh_layer_1_tri_0
                0x0000000007089018                diplosaurus_arm2_l_mesh_layer_1_vtx_0
                0x0000000007089088                diplosaurus_arm2_l_skinned_mesh_layer_1_tri_0
                0x0000000007089098                diplosaurus_arm2_l_skinned_mesh_layer_1_vtx_0
                0x00000000070890f8                diplosaurus_arm_l_mesh_layer_1_tri_0
                0x0000000007089128                diplosaurus_arm_l_mesh_layer_1_vtx_0
                0x00000000070891a8                diplosaurus_Bone_020_mesh_layer_1_tri_4
                0x00000000070891c8                diplosaurus_Bone_020_mesh_layer_1_vtx_4
                0x0000000007089228                diplosaurus_Bone_020_mesh_layer_1_tri_3
                0x0000000007089300                diplosaurus_Bone_020_mesh_layer_1_vtx_3
                0x00000000070896b0                diplosaurus_Bone_020_mesh_layer_1_tri_2
                0x00000000070896d0                diplosaurus_Bone_020_mesh_layer_1_vtx_2
                0x0000000007089750                diplosaurus_Bone_020_mesh_layer_1_tri_1
                0x00000000070897c0                diplosaurus_Bone_020_mesh_layer_1_vtx_1
                0x0000000007089950                diplosaurus_Bone_020_mesh_layer_1_tri_0
                0x0000000007089990                diplosaurus_Bone_020_mesh_layer_1_vtx_0
                0x0000000007089a30                diplosaurus_Bone_020_skinned_mesh_layer_1_tri_0
                0x0000000007089a40                diplosaurus_Bone_020_skinned_mesh_layer_1_vtx_0
                0x0000000007089a90                diplosaurus_Bone_015_mesh_layer_1_tri_3
                0x0000000007089ab0                diplosaurus_Bone_015_mesh_layer_1_vtx_3
                0x0000000007089b10                diplosaurus_Bone_015_mesh_layer_1_tri_2
                0x0000000007089b38                diplosaurus_Bone_015_mesh_layer_1_vtx_2
                0x0000000007089bb8                diplosaurus_Bone_015_mesh_layer_1_tri_1
                0x0000000007089be0                diplosaurus_Bone_015_mesh_layer_1_vtx_1
                0x0000000007089c40                diplosaurus_Bone_015_mesh_layer_1_tri_0
                0x0000000007089c70                diplosaurus_Bone_015_mesh_layer_1_vtx_0
                0x0000000007089cc0                diplosaurus_Bone_015_skinned_mesh_layer_1_tri_1
                0x0000000007089cd0                diplosaurus_Bone_015_skinned_mesh_layer_1_vtx_1
                0x0000000007089d10                diplosaurus_Bone_015_skinned_mesh_layer_1_tri_0
                0x0000000007089d20                diplosaurus_Bone_015_skinned_mesh_layer_1_vtx_0
                0x0000000007089d70                diplosaurus_Bone_011_mesh_layer_1_tri_1
                0x0000000007089dc8                diplosaurus_Bone_011_mesh_layer_1_vtx_1
                0x0000000007089ef8                diplosaurus_Bone_011_mesh_layer_1_tri_0
                0x0000000007089f60                diplosaurus_Bone_011_mesh_layer_1_vtx_0
                0x000000000708a080                diplosaurus_Paraclaws_ci8_pal_rgba16
                0x000000000708a140                diplosaurus_Paraclaws_ci8_pal_rgba16_aligner
                0x000000000708a148                diplosaurus_Paraclaws_ci8
                0x000000000708a948                diplosaurus_Paraclaws_ci8_aligner
                0x000000000708a950                diplosaurus_Paramouth__1__ci4_pal_rgba16
                0x000000000708a970                diplosaurus_Paramouth__1__ci4_pal_rgba16_aligner
                0x000000000708a978                diplosaurus_Paramouth__1__ci4
                0x000000000708b178                diplosaurus_Paramouth__1__ci4_aligner
                0x000000000708b180                diplosaurus_Paraeyes_ci4_pal_rgba16
                0x000000000708b1a0                diplosaurus_Paraeyes_ci4_pal_rgba16_aligner
                0x000000000708b1a8                diplosaurus_Paraeyes_ci4
                0x000000000708b9a8                diplosaurus_Paraeyes_ci4_aligner
                0x000000000708b9b0                diplosaurus_Unbenannt_1_i8
                0x000000000708c9b0                diplosaurus_Unbenannt_1_i8_aligner
                0x000000000708c9b8                diplosaurus_f3d_material_004_lights
                0x000000000708c9d0                diplosaurus_f3d_material_002_lights
                0x000000000708c9e8                diplosaurus_f3d_material_003_lights
                0x000000000708ca00                diplosaurus_f3d_material_lights
                0x000000000708ca18                diplosaurus_f3d_material_001_lights
                0x000000000708ca30                seesawrock_collision
                0x000000000708cab0                seesawplatform_collision
                0x000000000708cb40                seesawplatform_material_revert_render_settings
                0x000000000708cb80                seesawplatform_Plane_mesh_layer_1
                0x000000000708cba0                mat_revert_seesawplatform_f3d_material_001_layer1
                0x000000000708cbc8                mat_seesawplatform_f3d_material_001_layer1
                0x000000000708cc98                seesawplatform_Plane_mesh_layer_1_tri_0
                0x000000000708ccd8                seesawplatform_Plane_mesh_layer_1_vtx_0
                0x000000000708cdd8                seesawplatform_Testmetooplz_i4
                0x000000000708d5d8                seesawplatform_Testmetooplz_i4_aligner
                0x000000000708d5e0                seesawplatform__1e9be000_fmt0431_slice0_mip00_64x64_tm04_i4
                0x000000000708dde0                seesawplatform__1e9be000_fmt0431_slice0_mip00_64x64_tm04_i4_aligner
                0x000000000708dde8                seesawplatform_f3d_material_001_layer1_lights
                0x000000000708de00                seesawrock_material_revert_render_settings
                0x000000000708de40                seesawrock_Icosphere_mesh_layer_1
                0x000000000708de60                mat_revert_seesawrock_f3d_material
                0x000000000708de78                mat_seesawrock_f3d_material
                0x000000000708def8                seesawrock_Icosphere_mesh_layer_1_tri_0
                0x000000000708df58                seesawrock_Icosphere_mesh_layer_1_vtx_0
                0x000000000708e108                seesawrock_P_Com_Boulder_tex_i8
                0x000000000708f108                seesawrock_P_Com_Boulder_tex_i8_aligner
                0x000000000708f110                seesawrock_f3d_material_lights
                0x000000000708f128                lavarock4_collision
                0x000000000708f1a8                lavarock4_material_revert_render_settings
                0x000000000708f1e8                lavarock4_Plane_002_mesh_layer_1
                0x000000000708f228                mat_revert_lavarock4_f3d_material
                0x000000000708f240                mat_lavarock4_f3d_material
                0x000000000708f2c0                lavarock4_Plane_002_mesh_layer_1_tri_0
                0x000000000708f2f8                lavarock4_Plane_002_mesh_layer_1_vtx_0
                0x000000000708f3d8                lavarock4_Plane_002_mesh_layer_1_vtx_cull
                0x000000000708f458                lavarock4_i8rzerztitziTxe_Ekaze2_rock_1_i8
                0x0000000007090458                lavarock4_i8rzerztitziTxe_Ekaze2_rock_1_i8_aligner
                0x0000000007090460                lavarock4_f3d_material_lights
                0x0000000007090478                lavarock3_material_revert_render_settings
                0x00000000070904b8                lavarock3_Plane_003_mesh_layer_1
                0x00000000070904f8                mat_revert_lavarock3_f3d_material
                0x0000000007090510                mat_lavarock3_f3d_material
                0x0000000007090590                lavarock3_Plane_003_mesh_layer_1_tri_0
                0x00000000070905e0                lavarock3_Plane_003_mesh_layer_1_vtx_0
                0x0000000007090760                lavarock3_Plane_003_mesh_layer_1_vtx_cull
                0x00000000070907e0                lavarock3_i8rzerztitziTxe_Ekaze2_rock_1_i8
                0x00000000070917e0                lavarock3_i8rzerztitziTxe_Ekaze2_rock_1_i8_aligner
                0x00000000070917e8                lavarock3_f3d_material_lights
                0x0000000007091800                lavarock3_collision
                0x00000000070918bc                lavarock2_collision
                0x0000000007091940                lavarock2_material_revert_render_settings
                0x0000000007091980                lavarock2_Plane_001_mesh_layer_1
                0x00000000070919c0                mat_revert_lavarock2_f3d_material
                0x00000000070919d8                mat_lavarock2_f3d_material
                0x0000000007091a58                lavarock2_Plane_001_mesh_layer_1_tri_0
                0x0000000007091a90                lavarock2_Plane_001_mesh_layer_1_vtx_0
                0x0000000007091b70                lavarock2_Plane_001_mesh_layer_1_vtx_cull
                0x0000000007091bf0                lavarock2_i8rzerztitziTxe_Ekaze2_rock_1_i8
                0x0000000007092bf0                lavarock2_i8rzerztitziTxe_Ekaze2_rock_1_i8_aligner
                0x0000000007092bf8                lavarock2_f3d_material_lights
                0x0000000007092c10                lavarock1_collision
                0x0000000007092cb0                lavarock1_material_revert_render_settings
                0x0000000007092cf0                lavarock1_Plane_mesh_layer_1
                0x0000000007092d30                mat_revert_lavarock1_f3d_material
                0x0000000007092d48                mat_lavarock1_f3d_material
                0x0000000007092dc8                lavarock1_Plane_mesh_layer_1_tri_0
                0x0000000007092e10                lavarock1_Plane_mesh_layer_1_vtx_0
                0x0000000007092f20                lavarock1_Plane_mesh_layer_1_vtx_cull
                0x0000000007092fa0                lavarock1_i8rzerztitziTxe_Ekaze2_rock_1_i8
                0x0000000007093fa0                lavarock1_i8rzerztitziTxe_Ekaze2_rock_1_i8_aligner
                0x0000000007093fa8                lavarock1_f3d_material_lights
                0x0000000007093fc0                boss3_material_revert_render_settings
                0x0000000007094000                boss3_Cylinder_005_mesh_layer_1
                0x00000000070940d0                mat_revert_boss3_darkWoodTongue_v4
                0x00000000070940f0                mat_boss3_darkWoodTongue_v4
                0x00000000070941a8                mat_revert_boss3_eyes3_v4
                0x00000000070941c8                mat_boss3_eyes3_v4
                0x0000000007094280                mat_revert_boss3_Teeth_v4
                0x00000000070942a0                mat_boss3_Teeth_v4
                0x0000000007094358                mat_revert_boss3_lightWood_v4
                0x0000000007094378                mat_boss3_lightWood_v4
                0x0000000007094430                mat_revert_boss3_lightWoodShadows_v4
                0x0000000007094450                mat_boss3_lightWoodShadows_v4
                0x0000000007094508                mat_revert_boss3_darkWood_v4
                0x0000000007094528                mat_boss3_darkWood_v4
                0x00000000070945e0                mat_revert_boss3_darkWoodShadow_v4
                0x0000000007094600                mat_boss3_darkWoodShadow_v4
                0x00000000070946b8                boss3_Cylinder_005_mesh_layer_1_tri_6
                0x00000000070946d8                boss3_Cylinder_005_mesh_layer_1_vtx_6
                0x0000000007094738                boss3_Cylinder_005_mesh_layer_1_tri_5
                0x0000000007094768                boss3_Cylinder_005_mesh_layer_1_vtx_5
                0x00000000070947f8                boss3_Cylinder_005_mesh_layer_1_tri_4
                0x0000000007094888                boss3_Cylinder_005_mesh_layer_1_vtx_4
                0x0000000007094b48                boss3_Cylinder_005_mesh_layer_1_tri_3
                0x0000000007094c18                boss3_Cylinder_005_mesh_layer_1_vtx_3
                0x0000000007094f58                boss3_Cylinder_005_mesh_layer_1_tri_2
                0x0000000007095038                boss3_Cylinder_005_mesh_layer_1_vtx_2
                0x0000000007095548                boss3_Cylinder_005_mesh_layer_1_tri_1
                0x00000000070956e0                boss3_Cylinder_005_mesh_layer_1_vtx_1
                0x0000000007095e90                boss3_Cylinder_005_mesh_layer_1_tri_0
                0x0000000007095fa0                boss3_Cylinder_005_mesh_layer_1_vtx_0
                0x0000000007096450                boss3_Cylinder_005_mesh_layer_1_vtx_cull
                0x00000000070964d0                boss3_Darkwood_Tongue_ci4_pal_rgba16
                0x00000000070964e8                boss3_Darkwood_Tongue_ci4_pal_rgba16_aligner
                0x00000000070964f0                boss3_Darkwood_Tongue_ci4
                0x00000000070968f0                boss3_Darkwood_Tongue_ci4_aligner
                0x00000000070968f8                boss3_eyes3_ci4_pal_rgba16
                0x0000000007096918                boss3_eyes3_ci4_pal_rgba16_aligner
                0x0000000007096920                boss3_eyes3_ci4
                0x0000000007097120                boss3_eyes3_ci4_aligner
                0x0000000007097128                boss3_lightWood_teeth_ci8_pal_rgba16
                0x00000000070971c8                boss3_lightWood_teeth_ci8_pal_rgba16_aligner
                0x00000000070971d0                boss3_lightWood_teeth_ci8
                0x00000000070975d0                boss3_lightWood_teeth_ci8_aligner
                0x00000000070975d8                boss3_lightWood_ci4_pal_rgba16
                0x00000000070975f0                boss3_lightWood_ci4_pal_rgba16_aligner
                0x00000000070975f8                boss3_lightWood_ci4
                0x00000000070979f8                boss3_lightWood_ci4_aligner
                0x0000000007097a00                boss3_lightWoodShadow_ci4_pal_rgba16
                0x0000000007097a10                boss3_lightWoodShadow_ci4_pal_rgba16_aligner
                0x0000000007097a18                boss3_lightWoodShadow_ci4
                0x0000000007097e18                boss3_lightWoodShadow_ci4_aligner
                0x0000000007097e20                boss3_Darkwoods_ci4_pal_rgba16
                0x0000000007097e38                boss3_Darkwoods_ci4_pal_rgba16_aligner
                0x0000000007097e40                boss3_Darkwoods_ci4
                0x0000000007098240                boss3_Darkwoods_ci4_aligner
                0x0000000007098248                boss3_darkwoodShadow_ci4_pal_rgba16
                0x0000000007098258                boss3_darkwoodShadow_ci4_pal_rgba16_aligner
                0x0000000007098260                boss3_darkwoodShadow_ci4
                0x0000000007098660                boss3_darkwoodShadow_ci4_aligner
                0x0000000007098668                boss3_darkWoodTongue_v4_lights
                0x0000000007098680                boss3_eyes3_v4_lights
                0x0000000007098698                boss3_Teeth_v4_lights
                0x00000000070986b0                boss3_lightWood_v4_lights
                0x00000000070986c8                boss3_lightWoodShadows_v4_lights
                0x00000000070986e0                boss3_darkWood_v4_lights
                0x00000000070986f8                boss3_darkWoodShadow_v4_lights
                0x0000000007098710                boss2_material_revert_render_settings
                0x0000000007098750                boss2_Cylinder_001_mesh_layer_1
                0x0000000007098850                mat_revert_boss2_eyes_001_v4
                0x0000000007098870                mat_boss2_eyes_001_v4
                0x0000000007098928                mat_revert_boss2_darkWoodStripes_v4
                0x0000000007098948                mat_boss2_darkWoodStripes_v4
                0x0000000007098a00                mat_revert_boss2_darkWoodTongue_v4
                0x0000000007098a20                mat_boss2_darkWoodTongue_v4
                0x0000000007098ad8                mat_revert_boss2_Teeth_v4
                0x0000000007098af8                mat_boss2_Teeth_v4
                0x0000000007098bb0                mat_revert_boss2_nose_v4
                0x0000000007098bd0                mat_boss2_nose_v4
                0x0000000007098c88                mat_revert_boss2_lightWood_v4
                0x0000000007098ca8                mat_boss2_lightWood_v4
                0x0000000007098d60                mat_revert_boss2_lightWoodShadows_v4
                0x0000000007098d80                mat_boss2_lightWoodShadows_v4
                0x0000000007098e38                mat_revert_boss2_darkWoodShadow_v4
                0x0000000007098e58                mat_boss2_darkWoodShadow_v4
                0x0000000007098f10                mat_revert_boss2_darkWood_v4
                0x0000000007098f30                mat_boss2_darkWood_v4
                0x0000000007098fe8                boss2_Cylinder_001_mesh_layer_1_tri_8
                0x0000000007099008                boss2_Cylinder_001_mesh_layer_1_vtx_8
                0x0000000007099088                boss2_Cylinder_001_mesh_layer_1_tri_7
                0x0000000007099128                boss2_Cylinder_001_mesh_layer_1_vtx_7
                0x0000000007099408                boss2_Cylinder_001_mesh_layer_1_tri_6
                0x0000000007099430                boss2_Cylinder_001_mesh_layer_1_vtx_6
                0x00000000070994d0                boss2_Cylinder_001_mesh_layer_1_tri_5
                0x00000000070994f8                boss2_Cylinder_001_mesh_layer_1_vtx_5
                0x00000000070995b8                boss2_Cylinder_001_mesh_layer_1_tri_4
                0x00000000070995d8                boss2_Cylinder_001_mesh_layer_1_vtx_4
                0x0000000007099638                boss2_Cylinder_001_mesh_layer_1_tri_3
                0x00000000070996a0                boss2_Cylinder_001_mesh_layer_1_vtx_3
                0x0000000007099800                boss2_Cylinder_001_mesh_layer_1_tri_2
                0x0000000007099878                boss2_Cylinder_001_mesh_layer_1_vtx_2
                0x0000000007099a48                boss2_Cylinder_001_mesh_layer_1_tri_1
                0x0000000007099b20                boss2_Cylinder_001_mesh_layer_1_vtx_1
                0x0000000007099ef0                boss2_Cylinder_001_mesh_layer_1_tri_0
                0x000000000709a088                boss2_Cylinder_001_mesh_layer_1_vtx_0
                0x000000000709a728                boss2_Cylinder_001_mesh_layer_1_vtx_cull
                0x000000000709a7a8                boss2_eyes1_ci4_pal_rgba16
                0x000000000709a7c8                boss2_eyes1_ci4_pal_rgba16_aligner
                0x000000000709a7d0                boss2_eyes1_ci4
                0x000000000709abd0                boss2_eyes1_ci4_aligner
                0x000000000709abd8                boss2_Darkwood_Stripes_ci4_pal_rgba16
                0x000000000709abf0                boss2_Darkwood_Stripes_ci4_pal_rgba16_aligner
                0x000000000709abf8                boss2_Darkwood_Stripes_ci4
                0x000000000709aff8                boss2_Darkwood_Stripes_ci4_aligner
                0x000000000709b000                boss2_Darkwood_Tongue_ci4_pal_rgba16
                0x000000000709b018                boss2_Darkwood_Tongue_ci4_pal_rgba16_aligner
                0x000000000709b020                boss2_Darkwood_Tongue_ci4
                0x000000000709b420                boss2_Darkwood_Tongue_ci4_aligner
                0x000000000709b428                boss2_lightWood_teeth_ci8_pal_rgba16
                0x000000000709b4c8                boss2_lightWood_teeth_ci8_pal_rgba16_aligner
                0x000000000709b4d0                boss2_lightWood_teeth_ci8
                0x000000000709b8d0                boss2_lightWood_teeth_ci8_aligner
                0x000000000709b8d8                boss2_darwoodNose_ci4_pal_rgba16
                0x000000000709b8f0                boss2_darwoodNose_ci4_pal_rgba16_aligner
                0x000000000709b8f8                boss2_darwoodNose_ci4
                0x000000000709bcf8                boss2_darwoodNose_ci4_aligner
                0x000000000709bd00                boss2_lightWood_ci4_pal_rgba16
                0x000000000709bd18                boss2_lightWood_ci4_pal_rgba16_aligner
                0x000000000709bd20                boss2_lightWood_ci4
                0x000000000709c120                boss2_lightWood_ci4_aligner
                0x000000000709c128                boss2_lightWoodShadow_ci4_pal_rgba16
                0x000000000709c138                boss2_lightWoodShadow_ci4_pal_rgba16_aligner
                0x000000000709c140                boss2_lightWoodShadow_ci4
                0x000000000709c540                boss2_lightWoodShadow_ci4_aligner
                0x000000000709c548                boss2_darkwoodShadow_ci4_pal_rgba16
                0x000000000709c558                boss2_darkwoodShadow_ci4_pal_rgba16_aligner
                0x000000000709c560                boss2_darkwoodShadow_ci4
                0x000000000709c960                boss2_darkwoodShadow_ci4_aligner
                0x000000000709c968                boss2_Darkwoods_ci4_pal_rgba16
                0x000000000709c980                boss2_Darkwoods_ci4_pal_rgba16_aligner
                0x000000000709c988                boss2_Darkwoods_ci4
                0x000000000709cd88                boss2_Darkwoods_ci4_aligner
                0x000000000709cd90                boss2_eyes_001_v4_lights
                0x000000000709cda8                boss2_darkWoodStripes_v4_lights
                0x000000000709cdc0                boss2_darkWoodTongue_v4_lights
                0x000000000709cdd8                boss2_Teeth_v4_lights
                0x000000000709cdf0                boss2_nose_v4_lights
                0x000000000709ce08                boss2_lightWood_v4_lights
                0x000000000709ce20                boss2_lightWoodShadows_v4_lights
                0x000000000709ce38                boss2_darkWoodShadow_v4_lights
                0x000000000709ce50                boss2_darkWood_v4_lights
                0x000000000709ce68                boss1_material_revert_render_settings
                0x000000000709cea8                boss1_Cylinder_002_mesh_layer_1
                0x000000000709cf90                mat_revert_boss1_eyes_001_v4
                0x000000000709cfb0                mat_boss1_eyes_001_v4
                0x000000000709d068                mat_revert_boss1_darkWoodStripes_v4
                0x000000000709d088                mat_boss1_darkWoodStripes_v4
                0x000000000709d140                mat_revert_boss1_Teeth_v4
                0x000000000709d160                mat_boss1_Teeth_v4
                0x000000000709d218                mat_revert_boss1_nose_v4
                0x000000000709d238                mat_boss1_nose_v4
                0x000000000709d2f0                mat_revert_boss1_lightWood_v4
                0x000000000709d310                mat_boss1_lightWood_v4
                0x000000000709d3c8                mat_revert_boss1_lightWoodShadows_v4
                0x000000000709d3e8                mat_boss1_lightWoodShadows_v4
                0x000000000709d4a0                mat_revert_boss1_darkWoodShadow_v4
                0x000000000709d4c0                mat_boss1_darkWoodShadow_v4
                0x000000000709d578                mat_revert_boss1_darkWood_v4
                0x000000000709d598                mat_boss1_darkWood_v4
                0x000000000709d650                boss1_Cylinder_002_mesh_layer_1_tri_7
                0x000000000709d670                boss1_Cylinder_002_mesh_layer_1_vtx_7
                0x000000000709d6f0                boss1_Cylinder_002_mesh_layer_1_tri_6
                0x000000000709d790                boss1_Cylinder_002_mesh_layer_1_vtx_6
                0x000000000709da70                boss1_Cylinder_002_mesh_layer_1_tri_5
                0x000000000709da98                boss1_Cylinder_002_mesh_layer_1_vtx_5
                0x000000000709db58                boss1_Cylinder_002_mesh_layer_1_tri_4
                0x000000000709db78                boss1_Cylinder_002_mesh_layer_1_vtx_4
                0x000000000709dbd8                boss1_Cylinder_002_mesh_layer_1_tri_3
                0x000000000709dc40                boss1_Cylinder_002_mesh_layer_1_vtx_3
                0x000000000709dda0                boss1_Cylinder_002_mesh_layer_1_tri_2
                0x000000000709de18                boss1_Cylinder_002_mesh_layer_1_vtx_2
                0x000000000709dfe8                boss1_Cylinder_002_mesh_layer_1_tri_1
                0x000000000709e098                boss1_Cylinder_002_mesh_layer_1_vtx_1
                0x000000000709e3b8                boss1_Cylinder_002_mesh_layer_1_tri_0
                0x000000000709e4f0                boss1_Cylinder_002_mesh_layer_1_vtx_0
                0x000000000709e9b0                boss1_Cylinder_002_mesh_layer_1_vtx_cull
                0x000000000709ea30                boss1_eyes1_ci4_pal_rgba16
                0x000000000709ea50                boss1_eyes1_ci4_pal_rgba16_aligner
                0x000000000709ea58                boss1_eyes1_ci4
                0x000000000709ee58                boss1_eyes1_ci4_aligner
                0x000000000709ee60                boss1_Darkwood_Stripes_ci4_pal_rgba16
                0x000000000709ee78                boss1_Darkwood_Stripes_ci4_pal_rgba16_aligner
                0x000000000709ee80                boss1_Darkwood_Stripes_ci4
                0x000000000709f280                boss1_Darkwood_Stripes_ci4_aligner
                0x000000000709f288                boss1_lightWood_teeth_ci8_pal_rgba16
                0x000000000709f328                boss1_lightWood_teeth_ci8_pal_rgba16_aligner
                0x000000000709f330                boss1_lightWood_teeth_ci8
                0x000000000709f730                boss1_lightWood_teeth_ci8_aligner
                0x000000000709f738                boss1_darwoodNose_ci4_pal_rgba16
                0x000000000709f750                boss1_darwoodNose_ci4_pal_rgba16_aligner
                0x000000000709f758                boss1_darwoodNose_ci4
                0x000000000709fb58                boss1_darwoodNose_ci4_aligner
                0x000000000709fb60                boss1_lightWood_ci4_pal_rgba16
                0x000000000709fb78                boss1_lightWood_ci4_pal_rgba16_aligner
                0x000000000709fb80                boss1_lightWood_ci4
                0x000000000709ff80                boss1_lightWood_ci4_aligner
                0x000000000709ff88                boss1_lightWoodShadow_ci4_pal_rgba16
                0x000000000709ff98                boss1_lightWoodShadow_ci4_pal_rgba16_aligner
                0x000000000709ffa0                boss1_lightWoodShadow_ci4
                0x00000000070a03a0                boss1_lightWoodShadow_ci4_aligner
                0x00000000070a03a8                boss1_darkwoodShadow_ci4_pal_rgba16
                0x00000000070a03b8                boss1_darkwoodShadow_ci4_pal_rgba16_aligner
                0x00000000070a03c0                boss1_darkwoodShadow_ci4
                0x00000000070a07c0                boss1_darkwoodShadow_ci4_aligner
                0x00000000070a07c8                boss1_Darkwoods_ci4_pal_rgba16
                0x00000000070a07e0                boss1_Darkwoods_ci4_pal_rgba16_aligner
                0x00000000070a07e8                boss1_Darkwoods_ci4
                0x00000000070a0be8                boss1_Darkwoods_ci4_aligner
                0x00000000070a0bf0                boss1_eyes_001_v4_lights
                0x00000000070a0c08                boss1_darkWoodStripes_v4_lights
                0x00000000070a0c20                boss1_Teeth_v4_lights
                0x00000000070a0c38                boss1_nose_v4_lights
                0x00000000070a0c50                boss1_lightWood_v4_lights
                0x00000000070a0c68                boss1_lightWoodShadows_v4_lights
                0x00000000070a0c80                boss1_darkWoodShadow_v4_lights
                0x00000000070a0c98                boss1_darkWood_v4_lights
                0x00000000070a0cb0                easterhead_collision
                0x00000000070a0ea8                easterhead_material_revert_render_settings
                0x00000000070a0ee8                easterhead_Cube_mesh_layer_1
                0x00000000070a0f40                mat_revert_easterhead_stone2_v4
                0x00000000070a0f58                mat_easterhead_stone2_v4
                0x00000000070a1008                mat_revert_easterhead_stone1_v4
                0x00000000070a1020                mat_easterhead_stone1_v4
                0x00000000070a10d0                easterhead_Cube_mesh_layer_1_tri_1
                0x00000000070a1238                easterhead_Cube_mesh_layer_1_vtx_1
                0x00000000070a1938                easterhead_Cube_mesh_layer_1_tri_0
                0x00000000070a1a88                easterhead_Cube_mesh_layer_1_vtx_0
                0x00000000070a1f98                easterhead_Cube_mesh_layer_1_vtx_cull
                0x00000000070a2018                easterhead_stone2_ci4_pal_rgba16
                0x00000000070a2030                easterhead_stone2_ci4_pal_rgba16_aligner
                0x00000000070a2038                easterhead_stone2_ci4
                0x00000000070a2838                easterhead_stone2_ci4_aligner
                0x00000000070a2840                easterhead_stone1_ci4_pal_rgba16
                0x00000000070a2858                easterhead_stone1_ci4_pal_rgba16_aligner
                0x00000000070a2860                easterhead_stone1_ci4
                0x00000000070a3060                easterhead_stone1_ci4_aligner
                0x00000000070a3068                easterhead_stone2_v4_lights
                0x00000000070a3080                easterhead_stone1_v4_lights
                0x00000000070a3098                hmc_dl_material_revert_render_settings
                0x00000000070a30d8                hmc_dl_Cube_004_mesh_layer_1
                0x00000000070a30f8                hmc_dl_Cube_001_mesh_layer_1
                0x00000000070a3118                hmc_dl_Cube_001_mesh_layer_4
                0x00000000070a3138                hmc_dl_Way_001_mesh_layer_1
                0x00000000070a3150                hmc_dl_Way_mesh_layer_1
                0x00000000070a31a0                hmc_dl_BGeometry_mesh
                0x00000000070a31c0                hmc_dl_BGeometry_mesh_layer_2
                0x00000000070a31f8                hmc_dl_BGeometry_mesh_layer_6
                0x00000000070a3218                hmc_dl_BGeometry_mesh_layer_4
                0x00000000070a32f8                hmc_dl_BGeometry_mesh_layer_1
                0x00000000070a3678                hmc_dl_AAGeometry_007_mesh_layer_1
                0x00000000070a36e8                hmc_dl_AAGeometry_006_mesh_layer_1
                0x00000000070a3708                hmc_dl_AAGeometry_005_mesh_layer_1
                0x00000000070a3748                hmc_dl_AAGeometry_004_mesh_layer_1
                0x00000000070a37b8                hmc_dl_AAGeometry_003_mesh_layer_1
                0x00000000070a3828                hmc_dl_AAGeometry_002_mesh_layer_1
                0x00000000070a38c8                hmc_dl_AAGeometry_001_mesh_layer_1
                0x00000000070a3920                hmc_dl_AAAABShadows_mesh_layer_5
                0x00000000070a3958                hmc_dl_AAAAAAABackGround_003_mesh_layer_0
                0x00000000070a3a38                mat_revert_hmc_dl_f3d_material_055
                0x00000000070a3a50                mat_hmc_dl_f3d_material_055
                0x00000000070a3a90                mat_revert_hmc_dl_f3d_material_053
                0x00000000070a3ab0                mat_hmc_dl_f3d_material_053
                0x00000000070a3b38                mat_revert_hmc_dl_f3d_material_052
                0x00000000070a3b58                mat_hmc_dl_f3d_material_052
                0x00000000070a3be0                mat_hmc_dl_f3d_material_060
                0x00000000070a3c00                mat_revert_hmc_dl_f3d_material_050
                0x00000000070a3c28                mat_hmc_dl_f3d_material_050
                0x00000000070a3ce8                mat_revert_hmc_dl_f3d_material_051
                0x00000000070a3d10                mat_hmc_dl_f3d_material_051
                0x00000000070a3dd0                mat_revert_hmc_dl_f3d_material_049
                0x00000000070a3df8                mat_hmc_dl_f3d_material_049
                0x00000000070a3eb8                mat_revert_hmc_dl_f3d_material_090
                0x00000000070a3ed8                mat_hmc_dl_f3d_material_090
                0x00000000070a3f90                mat_revert_hmc_dl_f3d_material_048
                0x00000000070a3fa8                mat_hmc_dl_f3d_material_048
                0x00000000070a4028                mat_revert_hmc_dl_f3d_material_047
                0x00000000070a4040                mat_hmc_dl_f3d_material_047
                0x00000000070a40c0                mat_revert_hmc_dl_B
                0x00000000070a40d8                mat_hmc_dl_B
                0x00000000070a4158                mat_revert_hmc_dl_f3d_material_041
                0x00000000070a4178                mat_hmc_dl_f3d_material_041
                0x00000000070a4230                mat_revert_hmc_dl_sm64_material_004
                0x00000000070a4248                mat_hmc_dl_sm64_material_004
                0x00000000070a42c8                mat_revert_hmc_dl_f3d_material_021
                0x00000000070a42e0                mat_hmc_dl_f3d_material_021
                0x00000000070a4360                mat_revert_hmc_dl_f3d_material_314
                0x00000000070a4378                mat_hmc_dl_f3d_material_314
                0x00000000070a43f8                mat_revert_hmc_dl_f3d_material_143
                0x00000000070a4418                mat_hmc_dl_f3d_material_143
                0x00000000070a44d0                mat_revert_hmc_dl_f3d_material_141
                0x00000000070a44f0                mat_hmc_dl_f3d_material_141
                0x00000000070a45a8                mat_revert_hmc_dl_f3d_material_142
                0x00000000070a45c8                mat_hmc_dl_f3d_material_142
                0x00000000070a4680                mat_revert_hmc_dl_f3d_material_140
                0x00000000070a46a0                mat_hmc_dl_f3d_material_140
                0x00000000070a4758                mat_revert_hmc_dl_f3d_material_138
                0x00000000070a4778                mat_hmc_dl_f3d_material_138
                0x00000000070a4818                mat_revert_hmc_dl_f3d_material_139
                0x00000000070a4838                mat_hmc_dl_f3d_material_139
                0x00000000070a48f0                mat_revert_hmc_dl_f3d_material_033
                0x00000000070a4910                mat_hmc_dl_f3d_material_033
                0x00000000070a49c8                mat_revert_hmc_dl_f3d_material_132
                0x00000000070a49e8                mat_hmc_dl_f3d_material_132
                0x00000000070a4aa0                mat_revert_hmc_dl_f3d_material_133
                0x00000000070a4ac0                mat_hmc_dl_f3d_material_133
                0x00000000070a4b78                mat_revert_hmc_dl_f3d_material_131_layer1
                0x00000000070a4ba0                mat_hmc_dl_f3d_material_131_layer1
                0x00000000070a4c70                mat_revert_hmc_dl_f3d_material_128
                0x00000000070a4c88                mat_hmc_dl_f3d_material_128
                0x00000000070a4d08                mat_revert_hmc_dl_f3d_material_130
                0x00000000070a4d20                mat_hmc_dl_f3d_material_130
                0x00000000070a4da0                mat_revert_hmc_dl_f3d_material_004_v4_001
                0x00000000070a4db8                mat_hmc_dl_f3d_material_004_v4_001
                0x00000000070a4e38                mat_revert_hmc_dl_Dwood
                0x00000000070a4e50                mat_hmc_dl_Dwood
                0x00000000070a4ed0                mat_revert_hmc_dl_f3d_material_015_v4_001
                0x00000000070a4ee8                mat_hmc_dl_f3d_material_015_v4_001
                0x00000000070a4f68                mat_revert_hmc_dl_f3d_material_v4
                0x00000000070a4f88                mat_hmc_dl_f3d_material_v4
                0x00000000070a5040                mat_revert_hmc_dl_f3d_material_127
                0x00000000070a5060                mat_hmc_dl_f3d_material_127
                0x00000000070a5118                mat_revert_hmc_dl_f3d_material_126_layer1
                0x00000000070a5140                mat_hmc_dl_f3d_material_126_layer1
                0x00000000070a5210                mat_revert_hmc_dl_f3d_material_031
                0x00000000070a5230                mat_hmc_dl_f3d_material_031
                0x00000000070a52e8                mat_revert_hmc_dl_f3d_material_125
                0x00000000070a5308                mat_hmc_dl_f3d_material_125
                0x00000000070a53c0                mat_revert_hmc_dl_f3d_material_030
                0x00000000070a53e0                mat_hmc_dl_f3d_material_030
                0x00000000070a5498                mat_revert_hmc_dl_f3d_material_002
                0x00000000070a54b0                mat_hmc_dl_f3d_material_002
                0x00000000070a5530                mat_revert_hmc_dl_C
                0x00000000070a5548                mat_hmc_dl_C
                0x00000000070a55c8                mat_revert_hmc_dl_f3d_material
                0x00000000070a55e0                mat_hmc_dl_f3d_material
                0x00000000070a5660                mat_revert_hmc_dl_f3d_material_025
                0x00000000070a5678                mat_hmc_dl_f3d_material_025
                0x00000000070a56f8                mat_revert_hmc_dl_f3d_material_018
                0x00000000070a5718                mat_hmc_dl_f3d_material_018
                0x00000000070a57d0                mat_revert_hmc_dl_f3d_material_023_layer1
                0x00000000070a57f8                mat_hmc_dl_f3d_material_023_layer1
                0x00000000070a58c8                mat_revert_hmc_dl_f3d_material_020_layer1
                0x00000000070a5900                mat_hmc_dl_f3d_material_020_layer1
                0x00000000070a5a40                mat_revert_hmc_dl_f3d_material_019_layer1
                0x00000000070a5a68                mat_hmc_dl_f3d_material_019_layer1
                0x00000000070a5b38                mat_revert_hmc_dl_f3d_material_024
                0x00000000070a5b58                mat_hmc_dl_f3d_material_024
                0x00000000070a5c10                mat_revert_hmc_dl_f3d_material_008
                0x00000000070a5c28                mat_hmc_dl_f3d_material_008
                0x00000000070a5ca8                mat_revert_hmc_dl_f3d_material_010
                0x00000000070a5cc0                mat_hmc_dl_f3d_material_010
                0x00000000070a5d40                mat_revert_hmc_dl_f3d_material_009
                0x00000000070a5d58                mat_hmc_dl_f3d_material_009
                0x00000000070a5dd8                mat_revert_hmc_dl_Zsand_layer1
                0x00000000070a5e00                mat_hmc_dl_Zsand_layer1
                0x00000000070a5ed0                mat_revert_hmc_dl_f3d_material_005
                0x00000000070a5ee8                mat_hmc_dl_f3d_material_005
                0x00000000070a5f10                mat_revert_hmc_dl_f3d_material_004
                0x00000000070a5f28                mat_hmc_dl_f3d_material_004
                0x00000000070a5fa8                mat_revert_hmc_dl_f3d_material_114
                0x00000000070a5fc8                mat_hmc_dl_f3d_material_114
                0x00000000070a6080                mat_revert_hmc_dl_f3d_material_038
                0x00000000070a6098                mat_hmc_dl_f3d_material_038
                0x00000000070a6118                mat_revert_hmc_dl_f3d_material_037
                0x00000000070a6130                mat_hmc_dl_f3d_material_037
                0x00000000070a6170                mat_revert_hmc_dl_f3d_material_036
                0x00000000070a6190                mat_hmc_dl_f3d_material_036
                0x00000000070a6248                mat_revert_hmc_dl_f3d_material_040
                0x00000000070a6260                mat_hmc_dl_f3d_material_040
                0x00000000070a62e0                mat_revert_hmc_dl_f3d_material_204
                0x00000000070a62f8                mat_hmc_dl_f3d_material_204
                0x00000000070a6378                mat_revert_hmc_dl_f3d_material_202
                0x00000000070a6390                mat_hmc_dl_f3d_material_202
                0x00000000070a6410                mat_revert_hmc_dl_f3d_material_203
                0x00000000070a6428                mat_hmc_dl_f3d_material_203
                0x00000000070a64a8                mat_revert_hmc_dl_f3d_material_268
                0x00000000070a64c0                mat_hmc_dl_f3d_material_268
                0x00000000070a6540                mat_revert_hmc_dl_f3d_material_136
                0x00000000070a6558                mat_hmc_dl_f3d_material_136
                0x00000000070a65d8                mat_revert_hmc_dl_A_layer1
                0x00000000070a6600                mat_hmc_dl_A_layer1
                0x00000000070a66d0                mat_revert_hmc_dl_f3d_material_044
                0x00000000070a66e8                mat_hmc_dl_f3d_material_044
                0x00000000070a6768                mat_revert_hmc_dl_f3d_material_042
                0x00000000070a6780                mat_hmc_dl_f3d_material_042
                0x00000000070a67c0                mat_revert_hmc_dl_f3d_material_039
                0x00000000070a67d8                mat_hmc_dl_f3d_material_039
                0x00000000070a6858                mat_revert_hmc_dl_f3d_material_043
                0x00000000070a6870                mat_hmc_dl_f3d_material_043
                0x00000000070a68f0                mat_revert_hmc_dl_f3d_material_045
                0x00000000070a6908                mat_hmc_dl_f3d_material_045
                0x00000000070a6988                mat_revert_hmc_dl_f3d_material_035
                0x00000000070a69a0                mat_hmc_dl_f3d_material_035
                0x00000000070a6a20                mat_revert_hmc_dl_f3d_material_032_layer1
                0x00000000070a6a48                mat_hmc_dl_f3d_material_032_layer1
                0x00000000070a6b18                mat_revert_hmc_dl_f3d_material_006_layer5
                0x00000000070a6b50                mat_hmc_dl_f3d_material_006_layer5
                0x00000000070a6c90                mat_revert_hmc_dl_f3d_material_034
                0x00000000070a6ca8                mat_hmc_dl_f3d_material_034
                0x00000000070a6d28                mat_revert_hmc_dl_Watermat_layer0
                0x00000000070a6d50                mat_hmc_dl_Watermat_layer0
                0x00000000070a6e28                mat_revert_hmc_dl_f3d_material_016_layer0
                0x00000000070a6e48                mat_hmc_dl_f3d_material_016_layer0
                0x00000000070a6ec0                mat_revert_hmc_dl_f3d_material_029_layer0
                0x00000000070a6ee8                mat_hmc_dl_f3d_material_029_layer0
                0x00000000070a6f90                mat_revert_hmc_dl_f3d_material_014_layer0
                0x00000000070a6fb0                mat_hmc_dl_f3d_material_014_layer0
                0x00000000070a7020                mat_revert_hmc_dl_f3d_material_022_layer0
                0x00000000070a7048                mat_hmc_dl_f3d_material_022_layer0
                0x00000000070a70f0                mat_revert_hmc_dl_f3d_material_011_layer0
                0x00000000070a7118                mat_hmc_dl_f3d_material_011_layer0
                0x00000000070a71c0                mat_revert_hmc_dl_f3d_material_015_layer0
                0x00000000070a71e0                mat_hmc_dl_f3d_material_015_layer0
                0x00000000070a7250                mat_revert_hmc_dl_f3d_material_012_layer0
                0x00000000070a7278                mat_hmc_dl_f3d_material_012_layer0
                0x00000000070a7320                mat_revert_hmc_dl_f3d_material_013_layer0
                0x00000000070a7340                mat_hmc_dl_f3d_material_013_layer0
                0x00000000070a73b0                hmc_dl_Cube_004_mesh_layer_1_tri_0
                0x00000000070a7540                hmc_dl_Cube_004_mesh_layer_1_vtx_0
                0x00000000070a7a20                hmc_dl_Cube_001_mesh_layer_1_tri_0
                0x00000000070a9078                hmc_dl_Cube_001_mesh_layer_1_vtx_0
                0x00000000070b10f8                hmc_dl_Cube_001_mesh_layer_4_tri_0
                0x00000000070b15e0                hmc_dl_Cube_001_mesh_layer_4_vtx_0
                0x00000000070b3860                hmc_dl_Way_001_mesh_layer_1_tri_0
                0x00000000070b38a0                hmc_dl_Way_001_mesh_layer_1_vtx_0
                0x00000000070b3a20                hmc_dl_Way_mesh_layer_1_tri_2
                0x00000000070b3b00                hmc_dl_Way_mesh_layer_1_vtx_2
                0x00000000070b3f00                hmc_dl_Way_mesh_layer_1_tri_1
                0x00000000070b4090                hmc_dl_Way_mesh_layer_1_vtx_1
                0x00000000070b4820                hmc_dl_Way_mesh_layer_1_tri_0
                0x00000000070b4b20                hmc_dl_Way_mesh_layer_1_vtx_0
                0x00000000070b5890                hmc_dl_BGeometry_mesh_tri_0
                0x00000000070b5938                hmc_dl_BGeometry_mesh_vtx_0
                0x00000000070b5bf8                hmc_dl_BGeometry_mesh_layer_2_tri_1
                0x00000000070b5c18                hmc_dl_BGeometry_mesh_layer_2_vtx_1
                0x00000000070b5c68                hmc_dl_BGeometry_mesh_layer_2_tri_0
                0x00000000070b5c80                hmc_dl_BGeometry_mesh_layer_2_vtx_0
                0x00000000070b5cc0                hmc_dl_BGeometry_mesh_layer_6_tri_0
                0x00000000070b5cf0                hmc_dl_BGeometry_mesh_layer_6_vtx_0
                0x00000000070b5df0                hmc_dl_BGeometry_mesh_layer_4_tri_8
                0x00000000070b5e80                hmc_dl_BGeometry_mesh_layer_4_vtx_8
                0x00000000070b6140                hmc_dl_BGeometry_mesh_layer_4_tri_7
                0x00000000070b6280                hmc_dl_BGeometry_mesh_layer_4_vtx_7
                0x00000000070b6800                hmc_dl_BGeometry_mesh_layer_4_tri_6
                0x00000000070b6830                hmc_dl_BGeometry_mesh_layer_4_vtx_6
                0x00000000070b68d0                hmc_dl_BGeometry_mesh_layer_4_tri_5
                0x00000000070b6930                hmc_dl_BGeometry_mesh_layer_4_vtx_5
                0x00000000070b6b70                hmc_dl_BGeometry_mesh_layer_4_tri_4
                0x00000000070b6bb0                hmc_dl_BGeometry_mesh_layer_4_vtx_4
                0x00000000070b6d30                hmc_dl_BGeometry_mesh_layer_4_tri_3
                0x00000000070b6d80                hmc_dl_BGeometry_mesh_layer_4_vtx_3
                0x00000000070b6f00                hmc_dl_BGeometry_mesh_layer_4_tri_2
                0x00000000070b6f20                hmc_dl_BGeometry_mesh_layer_4_vtx_2
                0x00000000070b6fa0                hmc_dl_BGeometry_mesh_layer_4_tri_1
                0x00000000070b6ff0                hmc_dl_BGeometry_mesh_layer_4_vtx_1
                0x00000000070b7130                hmc_dl_BGeometry_mesh_layer_4_tri_0
                0x00000000070b7160                hmc_dl_BGeometry_mesh_layer_4_vtx_0
                0x00000000070b71f0                hmc_dl_BGeometry_mesh_layer_1_tri_36
                0x00000000070b72d8                hmc_dl_BGeometry_mesh_layer_1_vtx_36
                0x00000000070b7798                hmc_dl_BGeometry_mesh_layer_1_tri_35
                0x00000000070b77c0                hmc_dl_BGeometry_mesh_layer_1_vtx_35
                0x00000000070b7880                hmc_dl_BGeometry_mesh_layer_1_tri_34
                0x00000000070b7978                hmc_dl_BGeometry_mesh_layer_1_vtx_34
                0x00000000070b7e08                hmc_dl_BGeometry_mesh_layer_1_tri_33
                0x00000000070b7ea8                hmc_dl_BGeometry_mesh_layer_1_vtx_33
                0x00000000070b8048                hmc_dl_BGeometry_mesh_layer_1_tri_32
                0x00000000070b8078                hmc_dl_BGeometry_mesh_layer_1_vtx_32
                0x00000000070b8138                hmc_dl_BGeometry_mesh_layer_1_tri_31
                0x00000000070b81a8                hmc_dl_BGeometry_mesh_layer_1_vtx_31
                0x00000000070b8368                hmc_dl_BGeometry_mesh_layer_1_tri_30
                0x00000000070b8420                hmc_dl_BGeometry_mesh_layer_1_vtx_30
                0x00000000070b8730                hmc_dl_BGeometry_mesh_layer_1_tri_29
                0x00000000070b8810                hmc_dl_BGeometry_mesh_layer_1_vtx_29
                0x00000000070b8b10                hmc_dl_BGeometry_mesh_layer_1_tri_28
                0x00000000070b8b90                hmc_dl_BGeometry_mesh_layer_1_vtx_28
                0x00000000070b8de0                hmc_dl_BGeometry_mesh_layer_1_tri_27
                0x00000000070b8e88                hmc_dl_BGeometry_mesh_layer_1_vtx_27
                0x00000000070b9108                hmc_dl_BGeometry_mesh_layer_1_tri_26
                0x00000000070b9438                hmc_dl_BGeometry_mesh_layer_1_vtx_26
                0x00000000070ba3d8                hmc_dl_BGeometry_mesh_layer_1_tri_25
                0x00000000070ba410                hmc_dl_BGeometry_mesh_layer_1_vtx_25
                0x00000000070ba4f0                hmc_dl_BGeometry_mesh_layer_1_tri_24
                0x00000000070ba550                hmc_dl_BGeometry_mesh_layer_1_vtx_24
                0x00000000070ba670                hmc_dl_BGeometry_mesh_layer_1_tri_23
                0x00000000070ba698                hmc_dl_BGeometry_mesh_layer_1_vtx_23
                0x00000000070ba718                hmc_dl_BGeometry_mesh_layer_1_tri_22
                0x00000000070ba768                hmc_dl_BGeometry_mesh_layer_1_vtx_22
                0x00000000070ba888                hmc_dl_BGeometry_mesh_layer_1_tri_21
                0x00000000070ba960                hmc_dl_BGeometry_mesh_layer_1_vtx_21
                0x00000000070bac70                hmc_dl_BGeometry_mesh_layer_1_tri_20
                0x00000000070bad38                hmc_dl_BGeometry_mesh_layer_1_vtx_20
                0x00000000070bb1a8                hmc_dl_BGeometry_mesh_layer_1_tri_19
                0x00000000070bb250                hmc_dl_BGeometry_mesh_layer_1_vtx_19
                0x00000000070bb440                hmc_dl_BGeometry_mesh_layer_1_tri_18
                0x00000000070bb628                hmc_dl_BGeometry_mesh_layer_1_vtx_18
                0x00000000070bbdb8                hmc_dl_BGeometry_mesh_layer_1_tri_17
                0x00000000070bbe50                hmc_dl_BGeometry_mesh_layer_1_vtx_17
                0x00000000070bc1d0                hmc_dl_BGeometry_mesh_layer_1_tri_16
                0x00000000070bc248                hmc_dl_BGeometry_mesh_layer_1_vtx_16
                0x00000000070bc4a8                hmc_dl_BGeometry_mesh_layer_1_tri_15
                0x00000000070bc5b8                hmc_dl_BGeometry_mesh_layer_1_vtx_15
                0x00000000070bcb08                hmc_dl_BGeometry_mesh_layer_1_tri_14
                0x00000000070bcbc8                hmc_dl_BGeometry_mesh_layer_1_vtx_14
                0x00000000070bcee8                hmc_dl_BGeometry_mesh_layer_1_tri_13
                0x00000000070bcf78                hmc_dl_BGeometry_mesh_layer_1_vtx_13
                0x00000000070bd338                hmc_dl_BGeometry_mesh_layer_1_tri_12
                0x00000000070bd378                hmc_dl_BGeometry_mesh_layer_1_vtx_12
                0x00000000070bd458                hmc_dl_BGeometry_mesh_layer_1_tri_11
                0x00000000070bd690                hmc_dl_BGeometry_mesh_layer_1_vtx_11
                0x00000000070be0f0                hmc_dl_BGeometry_mesh_layer_1_tri_10
                0x00000000070be118                hmc_dl_BGeometry_mesh_layer_1_vtx_10
                0x00000000070be188                hmc_dl_BGeometry_mesh_layer_1_tri_9
                0x00000000070be220                hmc_dl_BGeometry_mesh_layer_1_vtx_9
                0x00000000070be3b0                hmc_dl_BGeometry_mesh_layer_1_tri_8
                0x00000000070be490                hmc_dl_BGeometry_mesh_layer_1_vtx_8
                0x00000000070be860                hmc_dl_BGeometry_mesh_layer_1_tri_7
                0x00000000070be8b0                hmc_dl_BGeometry_mesh_layer_1_vtx_7
                0x00000000070be9f0                hmc_dl_BGeometry_mesh_layer_1_tri_6
                0x00000000070bea40                hmc_dl_BGeometry_mesh_layer_1_vtx_6
                0x00000000070beb80                hmc_dl_BGeometry_mesh_layer_1_tri_5
                0x00000000070bebb8                hmc_dl_BGeometry_mesh_layer_1_vtx_5
                0x00000000070bec38                hmc_dl_BGeometry_mesh_layer_1_tri_4
                0x00000000070beca0                hmc_dl_BGeometry_mesh_layer_1_vtx_4
                0x00000000070bedc0                hmc_dl_BGeometry_mesh_layer_1_tri_3
                0x00000000070bef80                hmc_dl_BGeometry_mesh_layer_1_vtx_3
                0x00000000070bf7b0                hmc_dl_BGeometry_mesh_layer_1_tri_2
                0x00000000070bf800                hmc_dl_BGeometry_mesh_layer_1_vtx_2
                0x00000000070bf920                hmc_dl_BGeometry_mesh_layer_1_tri_1
                0x00000000070bf9a0                hmc_dl_BGeometry_mesh_layer_1_vtx_1
                0x00000000070bfb20                hmc_dl_BGeometry_mesh_layer_1_tri_0
                0x00000000070bfb50                hmc_dl_BGeometry_mesh_layer_1_vtx_0
                0x00000000070bfc50                hmc_dl_AAGeometry_007_mesh_layer_1_tri_2
                0x00000000070bfd20                hmc_dl_AAGeometry_007_mesh_layer_1_vtx_2
                0x00000000070bff00                hmc_dl_AAGeometry_007_mesh_layer_1_tri_1
                0x00000000070c0050                hmc_dl_AAGeometry_007_mesh_layer_1_vtx_1
                0x00000000070c06d0                hmc_dl_AAGeometry_007_mesh_layer_1_tri_0
                0x00000000070c0ba8                hmc_dl_AAGeometry_007_mesh_layer_1_vtx_0
                0x00000000070c1c48                hmc_dl_AAGeometry_007_mesh_layer_1_vtx_cull
                0x00000000070c1cc8                hmc_dl_AAGeometry_006_mesh_layer_1_tri_0
                0x00000000070c1f30                hmc_dl_AAGeometry_006_mesh_layer_1_vtx_0
                0x00000000070c2730                hmc_dl_AAGeometry_005_mesh_layer_1_tri_0
                0x00000000070c2848                hmc_dl_AAGeometry_005_mesh_layer_1_vtx_0
                0x00000000070c2be8                hmc_dl_AAGeometry_005_mesh_layer_1_vtx_cull
                0x00000000070c2c68                hmc_dl_AAGeometry_004_mesh_layer_1_tri_2
                0x00000000070c2d40                hmc_dl_AAGeometry_004_mesh_layer_1_vtx_2
                0x00000000070c3140                hmc_dl_AAGeometry_004_mesh_layer_1_tri_1
                0x00000000070c3190                hmc_dl_AAGeometry_004_mesh_layer_1_vtx_1
                0x00000000070c3250                hmc_dl_AAGeometry_004_mesh_layer_1_tri_0
                0x00000000070c3348                hmc_dl_AAGeometry_004_mesh_layer_1_vtx_0
                0x00000000070c37c8                hmc_dl_AAGeometry_004_mesh_layer_1_vtx_cull
                0x00000000070c3848                hmc_dl_AAGeometry_003_mesh_layer_1_tri_2
                0x00000000070c38e8                hmc_dl_AAGeometry_003_mesh_layer_1_vtx_2
                0x00000000070c3a88                hmc_dl_AAGeometry_003_mesh_layer_1_tri_1
                0x00000000070c3b38                hmc_dl_AAGeometry_003_mesh_layer_1_vtx_1
                0x00000000070c3d18                hmc_dl_AAGeometry_003_mesh_layer_1_tri_0
                0x00000000070c3ec0                hmc_dl_AAGeometry_003_mesh_layer_1_vtx_0
                0x00000000070c4380                hmc_dl_AAGeometry_003_mesh_layer_1_vtx_cull
                0x00000000070c4400                hmc_dl_AAGeometry_002_mesh_layer_1_tri_4
                0x00000000070c4448                hmc_dl_AAGeometry_002_mesh_layer_1_vtx_4
                0x00000000070c45b8                hmc_dl_AAGeometry_002_mesh_layer_1_tri_3
                0x00000000070c4600                hmc_dl_AAGeometry_002_mesh_layer_1_vtx_3
                0x00000000070c4730                hmc_dl_AAGeometry_002_mesh_layer_1_tri_2
                0x00000000070c4760                hmc_dl_AAGeometry_002_mesh_layer_1_vtx_2
                0x00000000070c4810                hmc_dl_AAGeometry_002_mesh_layer_1_tri_1
                0x00000000070c48c0                hmc_dl_AAGeometry_002_mesh_layer_1_vtx_1
                0x00000000070c4ac0                hmc_dl_AAGeometry_002_mesh_layer_1_tri_0
                0x00000000070c4b90                hmc_dl_AAGeometry_002_mesh_layer_1_vtx_0
                0x00000000070c4d70                hmc_dl_AAGeometry_002_mesh_layer_1_vtx_cull
                0x00000000070c4df0                hmc_dl_AAGeometry_001_mesh_layer_1_tri_1
                0x00000000070c4ff0                hmc_dl_AAGeometry_001_mesh_layer_1_vtx_1
                0x00000000070c5840                hmc_dl_AAGeometry_001_mesh_layer_1_tri_0
                0x00000000070c5ab8                hmc_dl_AAGeometry_001_mesh_layer_1_vtx_0
                0x00000000070c6368                hmc_dl_AAGeometry_001_mesh_layer_1_vtx_cull
                0x00000000070c63e8                hmc_dl_AAAABShadows_mesh_layer_5_tri_1
                0x00000000070c6450                hmc_dl_AAAABShadows_mesh_layer_5_vtx_1
                0x00000000070c6560                hmc_dl_AAAABShadows_mesh_layer_5_tri_0
                0x00000000070c6580                hmc_dl_AAAABShadows_mesh_layer_5_vtx_0
                0x00000000070c6600                hmc_dl_AAAAAAABackGround_003_mesh_layer_0_tri_8
                0x00000000070c66f8                hmc_dl_AAAAAAABackGround_003_mesh_layer_0_vtx_8
                0x00000000070c6a68                hmc_dl_AAAAAAABackGround_003_mesh_layer_0_tri_7
                0x00000000070c6ac0                hmc_dl_AAAAAAABackGround_003_mesh_layer_0_vtx_7
                0x00000000070c6bf0                hmc_dl_AAAAAAABackGround_003_mesh_layer_0_tri_6
                0x00000000070c6c18                hmc_dl_AAAAAAABackGround_003_mesh_layer_0_vtx_6
                0x00000000070c6cb8                hmc_dl_AAAAAAABackGround_003_mesh_layer_0_tri_5
                0x00000000070c6cf0                hmc_dl_AAAAAAABackGround_003_mesh_layer_0_vtx_5
                0x00000000070c6e30                hmc_dl_AAAAAAABackGround_003_mesh_layer_0_tri_4
                0x00000000070c6e60                hmc_dl_AAAAAAABackGround_003_mesh_layer_0_vtx_4
                0x00000000070c6f20                hmc_dl_AAAAAAABackGround_003_mesh_layer_0_tri_3
                0x00000000070c6f50                hmc_dl_AAAAAAABackGround_003_mesh_layer_0_vtx_3
                0x00000000070c7050                hmc_dl_AAAAAAABackGround_003_mesh_layer_0_tri_2
                0x00000000070c7078                hmc_dl_AAAAAAABackGround_003_mesh_layer_0_vtx_2
                0x00000000070c7138                hmc_dl_AAAAAAABackGround_003_mesh_layer_0_tri_1
                0x00000000070c7160                hmc_dl_AAAAAAABackGround_003_mesh_layer_0_vtx_1
                0x00000000070c7220                hmc_dl_AAAAAAABackGround_003_mesh_layer_0_tri_0
                0x00000000070c72a8                hmc_dl_AAAAAAABackGround_003_mesh_layer_0_vtx_0
                0x00000000070c7628                hmc_dl_cloud2_i8
                0x00000000070c7728                hmc_dl_cloud2_i8_aligner
                0x00000000070c7730                hmc_dl_tile5_ia8
                0x00000000070c7830                hmc_dl_tile5_ia8_aligner
                0x00000000070c7838                hmc_dl_tile2_ci4_pal_rgba16
                0x00000000070c7840                hmc_dl_tile2_ci4_pal_rgba16_aligner
                0x00000000070c7848                hmc_dl_tile2_ci4
                0x00000000070c78c8                hmc_dl_tile2_ci4_aligner
                0x00000000070c78d0                hmc_dl_tile4_ci4_pal_rgba16
                0x00000000070c78d8                hmc_dl_tile4_ci4_pal_rgba16_aligner
                0x00000000070c78e0                hmc_dl_tile4_ci4
                0x00000000070c7960                hmc_dl_tile4_ci4_aligner
                0x00000000070c7968                hmc_dl_tile1_ci4_pal_rgba16
                0x00000000070c7970                hmc_dl_tile1_ci4_pal_rgba16_aligner
                0x00000000070c7978                hmc_dl_tile1_ci4
                0x00000000070c79f8                hmc_dl_tile1_ci4_aligner
                0x00000000070c7a00                hmc_dl__08B103753C16524EC9F5466267967F4E_ci4_pal_rgba16
                0x00000000070c7a20                hmc_dl__08B103753C16524EC9F5466267967F4E_ci4_pal_rgba16_aligner
                0x00000000070c7a28                hmc_dl__08B103753C16524EC9F5466267967F4E_ci4
                0x00000000070c8228                hmc_dl__08B103753C16524EC9F5466267967F4E_ci4_aligner
                0x00000000070c8230                hmc_dl_RMGP01_ea75dad0_14_i8
                0x00000000070c9230                hmc_dl_RMGP01_ea75dad0_14_i8_aligner
                0x00000000070c9238                hmc_dl__00006120_64x32_rgba16_i8
                0x00000000070c9a38                hmc_dl__00006120_64x32_rgba16_i8_aligner
                0x00000000070c9a40                hmc_dl_hb_tou_i8
                0x00000000070caa40                hmc_dl_hb_tou_i8_aligner
                0x00000000070caa48                hmc_dl_BRIDGEWALL_ci4_pal_rgba16
                0x00000000070caa68                hmc_dl_BRIDGEWALL_ci4_pal_rgba16_aligner
                0x00000000070caa70                hmc_dl_BRIDGEWALL_ci4
                0x00000000070cb270                hmc_dl_BRIDGEWALL_ci4_aligner
                0x00000000070cb278                hmc_dl_stars_rgba16
                0x00000000070cc278                hmc_dl_stars_rgba16_aligner
                0x00000000070cc280                hmc_dl_kanaami_ia8
                0x00000000070cca80                hmc_dl_kanaami_ia8_aligner
                0x00000000070cca88                hmc_dl_PalmTree_01_ia8
                0x00000000070cda88                hmc_dl_PalmTree_01_ia8_aligner
                0x00000000070cda90                hmc_dl_vine_body_ci8_pal_rgba16
                0x00000000070cdb60                hmc_dl_vine_body_ci8_pal_rgba16_aligner
                0x00000000070cdb68                hmc_dl_vine_body_ci8
                0x00000000070cdf68                hmc_dl_vine_body_ci8_aligner
                0x00000000070cdf70                hmc_dl_FlowerPatch_ci4_pal_rgba16
                0x00000000070cdf90                hmc_dl_FlowerPatch_ci4_pal_rgba16_aligner
                0x00000000070cdf98                hmc_dl_FlowerPatch_ci4
                0x00000000070ce798                hmc_dl_FlowerPatch_ci4_aligner
                0x00000000070ce7a0                hmc_dl_bottom_ci4_pal_rgba16
                0x00000000070ce7c0                hmc_dl_bottom_ci4_pal_rgba16_aligner
                0x00000000070ce7c8                hmc_dl_bottom_ci4
                0x00000000070cefc8                hmc_dl_bottom_ci4_aligner
                0x00000000070cefd0                hmc_dl__00007466_ci4_pal_rgba16
                0x00000000070ceff0                hmc_dl__00007466_ci4_pal_rgba16_aligner
                0x00000000070ceff8                hmc_dl__00007466_ci4
                0x00000000070cf7f8                hmc_dl__00007466_ci4_aligner
                0x00000000070cf800                hmc_dl_cs_metal06envmap_alb_ci8_pal_rgba16
                0x00000000070cf8e0                hmc_dl_cs_metal06envmap_alb_ci8_pal_rgba16_aligner
                0x00000000070cf8e8                hmc_dl_cs_metal06envmap_alb_ci8
                0x00000000070cfce8                hmc_dl_cs_metal06envmap_alb_ci8_aligner
                0x00000000070cfcf0                hmc_dl__1woodply_ci4_pal_rgba16
                0x00000000070cfd10                hmc_dl__1woodply_ci4_pal_rgba16_aligner
                0x00000000070cfd18                hmc_dl__1woodply_ci4
                0x00000000070d0518                hmc_dl__1woodply_ci4_aligner
                0x00000000070d0520                hmc_dl_GZLE01_8893b387_14__2__ci4_pal_rgba16
                0x00000000070d0540                hmc_dl_GZLE01_8893b387_14__2__ci4_pal_rgba16_aligner
                0x00000000070d0548                hmc_dl_GZLE01_8893b387_14__2__ci4
                0x00000000070d0d48                hmc_dl_GZLE01_8893b387_14__2__ci4_aligner
                0x00000000070d0d50                hmc_dl_KKIIDDZZ_DAT_2884__p00_ci4_pal_rgba16
                0x00000000070d0d70                hmc_dl_KKIIDDZZ_DAT_2884__p00_ci4_pal_rgba16_aligner
                0x00000000070d0d78                hmc_dl_KKIIDDZZ_DAT_2884__p00_ci4
                0x00000000070d1578                hmc_dl_KKIIDDZZ_DAT_2884__p00_ci4_aligner
                0x00000000070d1580                hmc_dl_KKIIDDZZ_DAT_587__p00_ci4_pal_rgba16
                0x00000000070d1598                hmc_dl_KKIIDDZZ_DAT_587__p00_ci4_pal_rgba16_aligner
                0x00000000070d15a0                hmc_dl_KKIIDDZZ_DAT_587__p00_ci4
                0x00000000070d1da0                hmc_dl_KKIIDDZZ_DAT_587__p00_ci4_aligner
                0x00000000070d1da8                hmc_dl_EARTHWORM_JIM_3D_B545DC3B_0_2_all_rgba16
                0x00000000070d25a8                hmc_dl_EARTHWORM_JIM_3D_B545DC3B_0_2_all_rgba16_aligner
                0x00000000070d25b0                hmc_dl__3dlbrick_i4
                0x00000000070d2db0                hmc_dl__3dlbrick_i4_aligner
                0x00000000070d2db8                hmc_dl_sail_sdf_test5_ia8
                0x00000000070d3db8                hmc_dl_sail_sdf_test5_ia8_aligner
                0x00000000070d3dc0                hmc_dl_KKIIDDZZ_DAT_826__p00_i8
                0x00000000070d4dc0                hmc_dl_KKIIDDZZ_DAT_826__p00_i8_aligner
                0x00000000070d4dc8                hmc_dl_Grain01Gray_i4
                0x00000000070d5dc8                hmc_dl_Grain01Gray_i4_aligner
                0x00000000070d5dd0                hmc_dl__00004950_64x32_rgba16_i8_copy
                0x00000000070d65d0                hmc_dl__00004950_64x32_rgba16_i8_copy_aligner
                0x00000000070d65d8                hmc_dl_pirates_plancher01txy_i4
                0x00000000070d75d8                hmc_dl_pirates_plancher01txy_i4_aligner
                0x00000000070d75e0                hmc_dl_GALE01_98203c75_14_ci8_pal_rgba16
                0x00000000070d76b8                hmc_dl_GALE01_98203c75_14_ci8_pal_rgba16_aligner
                0x00000000070d76c0                hmc_dl_GALE01_98203c75_14_ci8
                0x00000000070d7ac0                hmc_dl_GALE01_98203c75_14_ci8_aligner
                0x00000000070d7ac8                hmc_dl_Peachy_ci4_pal_rgba16
                0x00000000070d7ae8                hmc_dl_Peachy_ci4_pal_rgba16_aligner
                0x00000000070d7af0                hmc_dl_Peachy_ci4
                0x00000000070d82f0                hmc_dl_Peachy_ci4_aligner
                0x00000000070d82f8                hmc_dl_D000_iwakabe_08_rgba16
                0x00000000070d8af8                hmc_dl_D000_iwakabe_08_rgba16_aligner
                0x00000000070d8b00                hmc_dl__9F9E088CCD7A1D772F383D1128E127BA_i4
                0x00000000070d9300                hmc_dl__9F9E088CCD7A1D772F383D1128E127BA_i4_aligner
                0x00000000070d9308                hmc_dl_Quest_64_ACA6957C_0_2_all_ci8_pal_rgba16
                0x00000000070d94a0                hmc_dl_Quest_64_ACA6957C_0_2_all_ci8_pal_rgba16_aligner
                0x00000000070d94a8                hmc_dl_Quest_64_ACA6957C_0_2_all_ci8
                0x00000000070d9ca8                hmc_dl_Quest_64_ACA6957C_0_2_all_ci8_aligner
                0x00000000070d9cb0                hmc_dl_fk_mokusei00__2__ci4_pal_rgba16
                0x00000000070d9cd0                hmc_dl_fk_mokusei00__2__ci4_pal_rgba16_aligner
                0x00000000070d9cd8                hmc_dl_fk_mokusei00__2__ci4
                0x00000000070da4d8                hmc_dl_fk_mokusei00__2__ci4_aligner
                0x00000000070da4e0                hmc_dl_tex4__2__ci4_pal_rgba16
                0x00000000070da500                hmc_dl_tex4__2__ci4_pal_rgba16_aligner
                0x00000000070da508                hmc_dl_tex4__2__ci4
                0x00000000070dad08                hmc_dl_tex4__2__ci4_aligner
                0x00000000070dad10                hmc_dl_SUPER_MARIO_64_F8303731_0_2_all_i4
                0x00000000070dbd10                hmc_dl_SUPER_MARIO_64_F8303731_0_2_all_i4_aligner
                0x00000000070dbd18                hmc_dl_R_Elec_0018_tex_i8
                0x00000000070dcd18                hmc_dl_R_Elec_0018_tex_i8_aligner
                0x00000000070dcd20                hmc_dl_i8rzerztitziTxe_Ekaze2_rock_1_i8
                0x00000000070ddd20                hmc_dl_i8rzerztitziTxe_Ekaze2_rock_1_i8_aligner
                0x00000000070ddd28                hmc_dl_rhop_boutperiscope_ia8
                0x00000000070ded28                hmc_dl_rhop_boutperiscope_ia8_aligner
                0x00000000070ded30                hmc_dl_woodenplankssupport_ci8_pal_rgba16
                0x00000000070deeb0                hmc_dl_woodenplankssupport_ci8_pal_rgba16_aligner
                0x00000000070deeb8                hmc_dl_woodenplankssupport_ci8
                0x00000000070df6b8                hmc_dl_woodenplankssupport_ci8_aligner
                0x00000000070df6c0                hmc_dl_segment2_05800_rgba16__10__i4
                0x00000000070dfec0                hmc_dl_segment2_05800_rgba16__10__i4_aligner
                0x00000000070dfec8                hmc_dl_grass_toplight_i4
                0x00000000070e06c8                hmc_dl_grass_toplight_i4_aligner
                0x00000000070e06d0                hmc_dl__08E07176A6203BC41630B42BA20455A6_ci4_pal_rgba16
                0x00000000070e06f0                hmc_dl__08E07176A6203BC41630B42BA20455A6_ci4_pal_rgba16_aligner
                0x00000000070e06f8                hmc_dl__08E07176A6203BC41630B42BA20455A6_ci4
                0x00000000070e0ef8                hmc_dl__08E07176A6203BC41630B42BA20455A6_ci4_aligner
                0x00000000070e0f00                hmc_dl_KKIIDDZZ_DAT_3022__p00_i4
                0x00000000070e1700                hmc_dl_KKIIDDZZ_DAT_3022__p00_i4_aligner
                0x00000000070e1708                hmc_dl_Aice_0006_tex__2__i4
                0x00000000070e1f08                hmc_dl_Aice_0006_tex__2__i4_aligner
                0x00000000070e1f10                hmc_dl_gctr_stcompiled5_ci8_pal_rgba16
                0x00000000070e2008                hmc_dl_gctr_stcompiled5_ci8_pal_rgba16_aligner
                0x00000000070e2010                hmc_dl_gctr_stcompiled5_ci8
                0x00000000070e2810                hmc_dl_gctr_stcompiled5_ci8_aligner
                0x00000000070e2818                hmc_dl_tekkinn_01_ia8
                0x00000000070e3818                hmc_dl_tekkinn_01_ia8_aligner
                0x00000000070e3820                hmc_dl_wall_black_i8
                0x00000000070e4020                hmc_dl_wall_black_i8_aligner
                0x00000000070e4028                hmc_dl_KKIIDDZZ_DAT_1339__p00_i8
                0x00000000070e5028                hmc_dl_KKIIDDZZ_DAT_1339__p00_i8_aligner
                0x00000000070e5030                hmc_dl_BOMBERMAN_HERO_9600E8A3_2_0_5661A3B1_ciByRGBA_i4
                0x00000000070e5830                hmc_dl_BOMBERMAN_HERO_9600E8A3_2_0_5661A3B1_ciByRGBA_i4_aligner
                0x00000000070e5838                hmc_dl_sand__6__i4
                0x00000000070e6038                hmc_dl_sand__6__i4_aligner
                0x00000000070e6040                hmc_dl_wi2_roads1_i8
                0x00000000070e6840                hmc_dl_wi2_roads1_i8_aligner
                0x00000000070e6848                hmc_dl_LEGORacers_90720600_2_0_3B5F9861_ci_ci4_pal_rgba16
                0x00000000070e6860                hmc_dl_LEGORacers_90720600_2_0_3B5F9861_ci_ci4_pal_rgba16_aligner
                0x00000000070e6868                hmc_dl_LEGORacers_90720600_2_0_3B5F9861_ci_ci4
                0x00000000070e7068                hmc_dl_LEGORacers_90720600_2_0_3B5F9861_ci_ci4_aligner
                0x00000000070e7070                hmc_dl_KKIIDDZZ_DAT_3451__p00_ia8
                0x00000000070e8070                hmc_dl_KKIIDDZZ_DAT_3451__p00_ia8_aligner
                0x00000000070e8078                hmc_dl_rrow_asset_623_ci8_pal_rgba16
                0x00000000070e8128                hmc_dl_rrow_asset_623_ci8_pal_rgba16_aligner
                0x00000000070e8130                hmc_dl_rrow_asset_623_ci8
                0x00000000070e8930                hmc_dl_rrow_asset_623_ci8_aligner
                0x00000000070e8938                hmc_dl__00004950_64x32_rgba16_i8
                0x00000000070e9138                hmc_dl__00004950_64x32_rgba16_i8_aligner
                0x00000000070e9140                hmc_dl_D61220C2810ABF78D9AF9C7DBF9760B8_i8
                0x00000000070ea140                hmc_dl_D61220C2810ABF78D9AF9C7DBF9760B8_i8_aligner
                0x00000000070ea148                hmc_dl_crate_i8_copy
                0x00000000070eb148                hmc_dl_crate_i8_copy_aligner
                0x00000000070eb150                hmc_dl_ScoreAttackManInd_i8
                0x00000000070ec150                hmc_dl_ScoreAttackManInd_i8_aligner
                0x00000000070ec158                hmc_dl_RCaves_0003_tex_i8
                0x00000000070ed158                hmc_dl_RCaves_0003_tex_i8_aligner
                0x00000000070ed160                hmc_dl_SmoothStone_i4
                0x00000000070ed960                hmc_dl_SmoothStone_i4_aligner
                0x00000000070ed968                hmc_dl_CGGRASS_i4
                0x00000000070ee168                hmc_dl_CGGRASS_i4_aligner
                0x00000000070ee170                hmc_dl_crate_i8
                0x00000000070ef170                hmc_dl_crate_i8_aligner
                0x00000000070ef178                hmc_dl__1f63c000_fmt0431_slice0_mip00_256x256_tm04_i8
                0x00000000070f0178                hmc_dl__1f63c000_fmt0431_slice0_mip00_256x256_tm04_i8_aligner
                0x00000000070f0180                hmc_dl_withe_wood_texture_2_by_xpm_i4
                0x00000000070f1180                hmc_dl_withe_wood_texture_2_by_xpm_i4_aligner
                0x00000000070f1188                hmc_dl__37a78000_fmt0034_slice0_mip00_256x256_tm04_i4
                0x00000000070f2188                hmc_dl__37a78000_fmt0034_slice0_mip00_256x256_tm04_i4_aligner
                0x00000000070f2190                hmc_dl__3dlbrick_i8
                0x00000000070f3190                hmc_dl__3dlbrick_i8_aligner
                0x00000000070f3198                hmc_dl_seamless_cloud_texture_1_by_xpm_i4
                0x00000000070f3998                hmc_dl_seamless_cloud_texture_1_by_xpm_i4_aligner
                0x00000000070f39a0                hmc_dl_KKIIDDZZ_DAT_1646__p00_ci4_pal_rgba16
                0x00000000070f39c0                hmc_dl_KKIIDDZZ_DAT_1646__p00_ci4_pal_rgba16_aligner
                0x00000000070f39c8                hmc_dl_KKIIDDZZ_DAT_1646__p00_ci4
                0x00000000070f41c8                hmc_dl_KKIIDDZZ_DAT_1646__p00_ci4_aligner
                0x00000000070f41d0                hmc_dl_rrow_asset_277_i8
                0x00000000070f45d0                hmc_dl_rrow_asset_277_i8_aligner
                0x00000000070f45d8                hmc_dl_tiki2_i4
                0x00000000070f4dd8                hmc_dl_tiki2_i4_aligner
                0x00000000070f4de0                hmc_dl_tiki1_i4
                0x00000000070f55e0                hmc_dl_tiki1_i4_aligner
                0x00000000070f55e8                hmc_dl__14282_i8
                0x00000000070f59e8                hmc_dl__14282_i8_aligner
                0x00000000070f59f0                hmc_dl_Happy_hills2_ci4_pal_rgba16
                0x00000000070f5a10                hmc_dl_Happy_hills2_ci4_pal_rgba16_aligner
                0x00000000070f5a18                hmc_dl_Happy_hills2_ci4
                0x00000000070f6218                hmc_dl_Happy_hills2_ci4_aligner
                0x00000000070f6220                hmc_dl_Cloud2_ia4
                0x00000000070f7220                hmc_dl_Cloud2_ia4_aligner
                0x00000000070f7228                hmc_dl_Happy_hills_ci4_pal_rgba16
                0x00000000070f7248                hmc_dl_Happy_hills_ci4_pal_rgba16_aligner
                0x00000000070f7250                hmc_dl_Happy_hills_ci4
                0x00000000070f7a50                hmc_dl_Happy_hills_ci4_aligner
                0x00000000070f7a58                hmc_dl_Mountsin2_ci4_pal_rgba16
                0x00000000070f7a78                hmc_dl_Mountsin2_ci4_pal_rgba16_aligner
                0x00000000070f7a80                hmc_dl_Mountsin2_ci4
                0x00000000070f8280                hmc_dl_Mountsin2_ci4_aligner
                0x00000000070f8288                hmc_dl_Cloud3_ia4
                0x00000000070f9288                hmc_dl_Cloud3_ia4_aligner
                0x00000000070f9290                hmc_dl_Mountsin1_ci4_pal_rgba16
                0x00000000070f92b0                hmc_dl_Mountsin1_ci4_pal_rgba16_aligner
                0x00000000070f92b8                hmc_dl_Mountsin1_ci4
                0x00000000070f9ab8                hmc_dl_Mountsin1_ci4_aligner
                0x00000000070f9ac0                hmc_dl_Cloud1_ia4
                0x00000000070faac0                hmc_dl_Cloud1_ia4_aligner
                0x00000000070faac8                hmc_dl_f3d_material_055_lights
                0x00000000070faae0                hmc_dl_f3d_material_053_lights
                0x00000000070faaf8                hmc_dl_f3d_material_052_lights
                0x00000000070fab10                hmc_dl_f3d_material_050_lights
                0x00000000070fab28                hmc_dl_f3d_material_051_lights
                0x00000000070fab40                hmc_dl_f3d_material_049_lights
                0x00000000070fab58                hmc_dl_f3d_material_090_lights
                0x00000000070fab70                hmc_dl_f3d_material_048_lights
                0x00000000070fab88                hmc_dl_f3d_material_047_lights
                0x00000000070faba0                hmc_dl_B_lights
                0x00000000070fabb8                hmc_dl_f3d_material_041_lights
                0x00000000070fabd0                hmc_dl_sm64_material_004_lights
                0x00000000070fabe8                hmc_dl_f3d_material_021_lights
                0x00000000070fac00                hmc_dl_f3d_material_314_lights
                0x00000000070fac18                hmc_dl_f3d_material_143_lights
                0x00000000070fac30                hmc_dl_f3d_material_141_lights
                0x00000000070fac48                hmc_dl_f3d_material_142_lights
                0x00000000070fac60                hmc_dl_f3d_material_140_lights
                0x00000000070fac78                hmc_dl_f3d_material_139_lights
                0x00000000070fac90                hmc_dl_f3d_material_033_lights
                0x00000000070faca8                hmc_dl_f3d_material_132_lights
                0x00000000070facc0                hmc_dl_f3d_material_133_lights
                0x00000000070facd8                hmc_dl_f3d_material_131_layer1_lights
                0x00000000070facf0                hmc_dl_f3d_material_128_lights
                0x00000000070fad08                hmc_dl_f3d_material_130_lights
                0x00000000070fad20                hmc_dl_f3d_material_004_v4_001_lights
                0x00000000070fad38                hmc_dl_Dwood_lights
                0x00000000070fad50                hmc_dl_f3d_material_015_v4_001_lights
                0x00000000070fad68                hmc_dl_f3d_material_v4_lights
                0x00000000070fad80                hmc_dl_f3d_material_127_lights
                0x00000000070fad98                hmc_dl_f3d_material_126_layer1_lights
                0x00000000070fadb0                hmc_dl_f3d_material_031_lights
                0x00000000070fadc8                hmc_dl_f3d_material_125_lights
                0x00000000070fade0                hmc_dl_f3d_material_030_lights
                0x00000000070fadf8                hmc_dl_f3d_material_002_lights
                0x00000000070fae10                hmc_dl_C_lights
                0x00000000070fae28                hmc_dl_f3d_material_lights
                0x00000000070fae40                hmc_dl_f3d_material_025_lights
                0x00000000070fae58                hmc_dl_f3d_material_018_lights
                0x00000000070fae70                hmc_dl_f3d_material_023_layer1_lights
                0x00000000070fae88                hmc_dl_f3d_material_020_layer1_lights
                0x00000000070faea0                hmc_dl_f3d_material_019_layer1_lights
                0x00000000070faeb8                hmc_dl_f3d_material_024_lights
                0x00000000070faed0                hmc_dl_f3d_material_008_lights
                0x00000000070faee8                hmc_dl_f3d_material_010_lights
                0x00000000070faf00                hmc_dl_f3d_material_009_lights
                0x00000000070faf18                hmc_dl_Zsand_layer1_lights
                0x00000000070faf30                hmc_dl_f3d_material_004_lights
                0x00000000070faf48                hmc_dl_f3d_material_114_lights
                0x00000000070faf60                hmc_dl_f3d_material_038_lights
                0x00000000070faf78                hmc_dl_f3d_material_037_lights
                0x00000000070faf90                hmc_dl_f3d_material_036_lights
                0x00000000070fafa8                hmc_dl_f3d_material_040_lights
                0x00000000070fafc0                hmc_dl_f3d_material_204_lights
                0x00000000070fafd8                hmc_dl_f3d_material_202_lights
                0x00000000070faff0                hmc_dl_f3d_material_203_lights
                0x00000000070fb008                hmc_dl_f3d_material_268_lights
                0x00000000070fb020                hmc_dl_f3d_material_136_lights
                0x00000000070fb038                hmc_dl_A_layer1_lights
                0x00000000070fb050                hmc_dl_f3d_material_044_lights
                0x00000000070fb068                hmc_dl_f3d_material_042_lights
                0x00000000070fb080                hmc_dl_f3d_material_039_lights
                0x00000000070fb098                hmc_dl_f3d_material_043_lights
                0x00000000070fb0b0                hmc_dl_f3d_material_045_lights
                0x00000000070fb0c8                hmc_dl_f3d_material_035_lights
                0x00000000070fb0e0                hmc_dl_f3d_material_032_layer1_lights
                0x00000000070fb0f8                hmc_dl_f3d_material_006_layer5_lights
                0x00000000070fb110                hmc_dl_f3d_material_034_lights
                0x00000000070fb128                hmc_dl_Watermat_layer0_lights
                0x00000000070fb140                hmc_area_3_macro_objs
                0x00000000070fb144                hmc_area_3_collision
                0x00000000070fb904                hmc_area_2_macro_objs
                0x00000000070fb908                hmc_area_2_collision
                0x00000000070fc518                hmc_area_1_spline_APos8
                0x00000000070fc550                hmc_area_1_spline_APos7
                0x00000000070fc588                hmc_area_1_spline_APos6
                0x00000000070fc5c0                hmc_area_1_spline_APos5
                0x00000000070fc5f8                hmc_area_1_spline_APos4
                0x00000000070fc630                hmc_area_1_spline_APos3
                0x00000000070fc668                hmc_area_1_spline_APos2
                0x00000000070fc6a0                hmc_area_1_spline_APos1
                0x00000000070fc6d8                hmc_area_1_spline_AFoc8
                0x00000000070fc710                hmc_area_1_spline_AFoc7
                0x00000000070fc748                hmc_area_1_spline_AFoc6
                0x00000000070fc780                hmc_area_1_spline_AFoc5
                0x00000000070fc7b8                hmc_area_1_spline_AFoc4
                0x00000000070fc7f0                hmc_area_1_spline_AFoc3
                0x00000000070fc828                hmc_area_1_spline_AFoc2
                0x00000000070fc860                hmc_area_1_spline_AFoc1
                0x00000000070fc898                hmc_area_1_macro_objs
                0x00000000070fc89c                hmc_area_1_collision
                0x00000000071033f0                hmc_movtex_toxic_maze_mist
                0x0000000007103448                hmc_movtex_dorrie_pool_water
                0x0000000007103478                hmc_seg7_trajectory_0702B86C
                0x00000000071034ec                hmc_seg7_collision_controllable_platform_sub
                0x000000000710356c                hmc_seg7_collision_controllable_platform
                0x0000000007103688                hmc_seg7_collision_0702B65C
                0x0000000007103714                hmc_seg7_collision_elevator
                0x0000000007103794                hmc_seg7_rooms
                0x0000000007103fb4                hmc_seg7_macro_objs
                0x0000000007104300                hmc_seg7_collision_level
                0x0000000007109804                cotmc_painting
                0x000000000710987c                hmc_seg7_painting_textures_07025518
                0x000000000710aab8                hmc_seg7_dl_070242A0
                0x000000000710aae0                hmc_seg7_dl_07024268
                0x000000000710abc8                hmc_seg7_dl_07024110
                0x000000000710aea0                hmc_seg7_dl_07023E10
                0x000000000710b0a0                hmc_seg7_dl_07023BC8
                0x000000000710ba78                hmc_seg7_dl_07023090
                0x000000000710bd38                hmc_seg7_dl_07022DA0
                0x000000000710c038                hmc_seg7_dl_07022AA0
                0x000000000710c240                hmc_seg7_dl_070228A0
                0x000000000710ce10                hmc_seg7_dl_07021BA0
                0x000000000710d1b0                hmc_seg7_dl_07021760
                0x000000000710d870                hmc_seg7_dl_07020FD0
                0x000000000710e6d8                hmc_seg7_dl_0701FFF8
                0x000000000710e998                hmc_seg7_dl_0701FD58
                0x000000000710ee68                hmc_seg7_dl_0701F818
                0x000000000710efd8                hmc_seg7_dl_0701F690
                0x000000000710f3d0                hmc_seg7_dl_0701F1B0
                0x000000000710fc28                hmc_seg7_dl_0701E820
                0x0000000007113988                hmc_seg7_dl_0701A400
                0x0000000007113ca8                hmc_seg7_dl_0701A080
                0x0000000007114888                hmc_seg7_dl_07019368
                0x00000000071149f8                hmc_seg7_dl_07019248
                0x00000000071158b8                hmc_seg7_dl_07018200
                0x0000000007115d60                hmc_seg7_dl_07017C98
                0x0000000007116578                hmc_seg7_dl_070173A8
                0x0000000007118750                hmc_seg7_dl_07014E48
                0x0000000007118930                hmc_seg7_dl_07014C00
                0x0000000007118a58                hmc_seg7_dl_07014B08
                0x00000000071191d8                hmc_seg7_dl_07014300
                0x00000000071195c0                hmc_seg7_dl_07013E80
                0x0000000007119730                hmc_seg7_dl_07013CA8
                0x000000000711cd70                hmc_seg7_dl_07010070
                0x000000000711cf00                hmc_seg7_dl_0700FEF0
                0x000000000711d370                hmc_seg7_dl_0700FA40
                0x000000000711d938                hmc_seg7_dl_0700F3E8
                0x000000000711dd68                hmc_seg7_dl_0700EF00
                0x000000000711e6b8                hmc_seg7_dl_0700E448
                0x0000000007123008                hmc_seg7_dl_070093F0
                0x0000000007124140                hmc_seg7_dl_070080E8
                0x0000000007124630                hmc_seg7_dl_07007B50
                0x0000000007124830                hmc_seg7_dl_070078B0

.data1
 *(.data1)

.got.plt
 *(.got.plt)
                0x000000000712bee8                . = .
                0x0000000007133ee0                _gp = (ALIGN (0x10) + 0x7ff0)

.got
 *(.got)

.sdata
 *(.sdata .sdata.* .gnu.linkonce.s.*)

.lit8
 *(.lit8)

.lit4
 *(.lit4)
                0x000000000712bee8                _edata = .
                [!provide]                        PROVIDE (edata = .)
                0x000000000712bee8                . = .
                0x000000000712bee8                __bss_start = .
                0x000000000712bee8                _fbss = .

.sbss
 *(.dynsbss)
 *(.sbss .sbss.* .gnu.linkonce.sb.*)
 *(.scommon)

.bss            0x000000000712bee8        0x0
 *(.dynbss)
 *(.bss .bss.* .gnu.linkonce.b.*)
 .bss           0x000000000712bee8        0x0 build/us/levels/hmc/leveldata.o
 *(COMMON)
                0x000000000712bee8                . = ALIGN ((. != 0x0)?0x4:0x1)
                0x000000000712bee8                . = ALIGN (0x4)
                0x000000000712bee8                . = SEGMENT_START ("ldata-segment", .)
                0x000000000712bee8                . = ALIGN (0x4)
                0x000000000712bee8                _end = .
                [!provide]                        PROVIDE (end = .)
                0x000000000712bee8                . = DATA_SEGMENT_END (.)

.stab
 *(.stab)

.stabstr
 *(.stabstr)

.stab.excl
 *(.stab.excl)

.stab.exclstr
 *(.stab.exclstr)

.stab.index
 *(.stab.index)

.stab.indexstr
 *(.stab.indexstr)

.comment        0x0000000000000000       0x12
 *(.comment)
 .comment       0x0000000000000000       0x12 build/us/levels/hmc/leveldata.o
                                         0x13 (size before relaxing)

.pdr            0x0000000000000000        0x0
 .pdr           0x0000000000000000        0x0 build/us/levels/hmc/leveldata.o

.gnu.build.attributes
 *(.gnu.build.attributes .gnu.build.attributes.*)

.debug
 *(.debug)

.line
 *(.line)

.debug_srcinfo
 *(.debug_srcinfo)

.debug_sfnames
 *(.debug_sfnames)

.debug_aranges
 *(.debug_aranges)

.debug_pubnames
 *(.debug_pubnames)

.debug_info
 *(.debug_info .gnu.linkonce.wi.*)

.debug_abbrev
 *(.debug_abbrev)

.debug_line
 *(.debug_line .debug_line.* .debug_line_end)

.debug_frame
 *(.debug_frame)

.debug_str
 *(.debug_str)

.debug_loc
 *(.debug_loc)

.debug_macinfo
 *(.debug_macinfo)

.debug_weaknames
 *(.debug_weaknames)

.debug_funcnames
 *(.debug_funcnames)

.debug_typenames
 *(.debug_typenames)

.debug_varnames
 *(.debug_varnames)

.debug_pubtypes
 *(.debug_pubtypes)

.debug_ranges
 *(.debug_ranges)

.debug_addr
 *(.debug_addr)

.debug_line_str
 *(.debug_line_str)

.debug_loclists
 *(.debug_loclists)

.debug_macro
 *(.debug_macro)

.debug_names
 *(.debug_names)

.debug_rnglists
 *(.debug_rnglists)

.debug_str_offsets
 *(.debug_str_offsets)

.debug_sup
 *(.debug_sup)

.gnu.attributes
                0x0000000000000000       0x10
 *(.gnu.attributes)
 .gnu.attributes
                0x0000000000000000       0x10 build/us/levels/hmc/leveldata.o

.gptab.sdata
 *(.gptab.data)
 *(.gptab.sdata)

.gptab.sbss
 *(.gptab.bss)
 *(.gptab.sbss)

.mdebug.abi32   0x0000000000000000        0x0
 *(.mdebug.abi32)
 .mdebug.abi32  0x0000000000000000        0x0 build/us/levels/hmc/leveldata.o

.mdebug.abiN32
 *(.mdebug.abiN32)

.mdebug.abi64
 *(.mdebug.abi64)

.mdebug.abiO64
 *(.mdebug.abiO64)

.mdebug.eabi32
 *(.mdebug.eabi32)

.mdebug.eabi64
 *(.mdebug.eabi64)

.gcc_compiled_long32
 *(.gcc_compiled_long32)

.gcc_compiled_long64
 *(.gcc_compiled_long64)

/DISCARD/
 *(.note.GNU-stack)
 *(.gnu_debuglink)
 *(.gnu.lto_*)
OUTPUT(build/us/levels/hmc/leveldata.elf elf32-bigmips)
