
Memory Configuration

Name             Origin             Length             Attributes
*default*        0x0000000000000000 0xffffffffffffffff

Linker script and memory map

Address of section .text set to 0x7000000
LOAD build/us/bin/snow.elf
LOAD build/us/levels/ccm/leveldata.o
                [!provide]                        PROVIDE (__executable_start = SEGMENT_START ("text-segment", 0x400000))
                0x0000000000400000                . = SEGMENT_START ("text-segment", 0x400000)

.interp
 *(.interp)

.MIPS.abiflags  0x0000000000400000       0x18
 *(.MIPS.abiflags)
 .MIPS.abiflags
                0x0000000000400000       0x18 build/us/levels/ccm/leveldata.o

.reginfo        0x0000000000400018       0x18
 *(.reginfo)
 .reginfo       0x0000000000400018       0x18 build/us/levels/ccm/leveldata.o

.MIPS.xhash
 *(.MIPS.xhash)

.note.gnu.build-id
 *(.note.gnu.build-id)

.dynamic
 *(.dynamic)

.hash
 *(.hash)

.gnu.hash
 *(.gnu.hash)

.dynsym
 *(.dynsym)

.dynstr
 *(.dynstr)

.gnu.version
 *(.gnu.version)

.gnu.version_d
 *(.gnu.version_d)

.gnu.version_r
 *(.gnu.version_r)

.rel.dyn        0x0000000000400018        0x0
 *(.rel.init)
 *(.rel.text .rel.text.* .rel.gnu.linkonce.t.*)
 *(.rel.fini)
 *(.rel.rodata .rel.rodata.* .rel.gnu.linkonce.r.*)
 *(.rel.data.rel.ro .rel.data.rel.ro.* .rel.gnu.linkonce.d.rel.ro.*)
 *(.rel.data .rel.data.* .rel.gnu.linkonce.d.*)
 *(.rel.tdata .rel.tdata.* .rel.gnu.linkonce.td.*)
 *(.rel.tbss .rel.tbss.* .rel.gnu.linkonce.tb.*)
 *(.rel.ctors)
 *(.rel.dtors)
 *(.rel.got)
 *(.rel.dyn)
 .rel.dyn       0x0000000000400018        0x0 build/us/levels/ccm/leveldata.o
 *(.rel.sdata .rel.sdata.* .rel.gnu.linkonce.s.*)
 *(.rel.sbss .rel.sbss.* .rel.gnu.linkonce.sb.*)
 *(.rel.sdata2 .rel.sdata2.* .rel.gnu.linkonce.s2.*)
 *(.rel.sbss2 .rel.sbss2.* .rel.gnu.linkonce.sb2.*)
 *(.rel.bss .rel.bss.* .rel.gnu.linkonce.b.*)
                [!provide]                        PROVIDE (__rel_iplt_start = .)
 *(.rel.iplt)
                [!provide]                        PROVIDE (__rel_iplt_end = .)

.rela.dyn       0x0000000000400018        0x0
 *(.rela.init)
 *(.rela.text .rela.text.* .rela.gnu.linkonce.t.*)
 *(.rela.fini)
 *(.rela.rodata .rela.rodata.* .rela.gnu.linkonce.r.*)
 *(.rela.data .rela.data.* .rela.gnu.linkonce.d.*)
 *(.rela.tdata .rela.tdata.* .rela.gnu.linkonce.td.*)
 *(.rela.tbss .rela.tbss.* .rela.gnu.linkonce.tb.*)
 *(.rela.ctors)
 *(.rela.dtors)
 *(.rela.got)
 *(.rela.sdata .rela.sdata.* .rela.gnu.linkonce.s.*)
 *(.rela.sbss .rela.sbss.* .rela.gnu.linkonce.sb.*)
 *(.rela.sdata2 .rela.sdata2.* .rela.gnu.linkonce.s2.*)
 *(.rela.sbss2 .rela.sbss2.* .rela.gnu.linkonce.sb2.*)
 *(.rela.bss .rela.bss.* .rela.gnu.linkonce.b.*)
                [!provide]                        PROVIDE (__rela_iplt_start = .)
 *(.rela.iplt)
                [!provide]                        PROVIDE (__rela_iplt_end = .)

.rel.plt
 *(.rel.plt)

.rela.plt
 *(.rela.plt)

.init
 *(SORT_NONE(.init))

.plt
 *(.plt)

.iplt
 *(.iplt)

.text           0x0000000007000000        0x0
                0x0000000007000000                _ftext = .
 *(.text.unlikely .text.*_unlikely .text.unlikely.*)
 *(.text.exit .text.exit.*)
 *(.text.startup .text.startup.*)
 *(.text.hot .text.hot.*)
 *(SORT_BY_NAME(.text.sorted.*))
 *(.text .stub .text.* .gnu.linkonce.t.*)
 .text          0x0000000007000000        0x0 build/us/levels/ccm/leveldata.o
 *(.gnu.warning)
 *(.mips16.fn.*)
 *(.mips16.call.*)

.fini
 *(SORT_NONE(.fini))
                [!provide]                        PROVIDE (__etext = .)
                [!provide]                        PROVIDE (_etext = .)
                [!provide]                        PROVIDE (etext = .)

.rodata
 *(.rodata .rodata.* .gnu.linkonce.r.*)

.rodata1
 *(.rodata1)

.sdata2
 *(.sdata2 .sdata2.* .gnu.linkonce.s2.*)

.sbss2
 *(.sbss2 .sbss2.* .gnu.linkonce.sb2.*)

.eh_frame_hdr
 *(.eh_frame_hdr)
 *(.eh_frame_entry .eh_frame_entry.*)

.eh_frame
 *(.eh_frame)
 *(.eh_frame.*)

.gcc_except_table
 *(.gcc_except_table .gcc_except_table.*)

.gnu_extab
 *(.gnu_extab*)

.exception_ranges
 *(.exception_ranges*)
                0x0000000007000000                . = DATA_SEGMENT_ALIGN (CONSTANT (MAXPAGESIZE), CONSTANT (COMMONPAGESIZE))

.eh_frame
 *(.eh_frame)
 *(.eh_frame.*)

.gnu_extab
 *(.gnu_extab)

.gcc_except_table
 *(.gcc_except_table .gcc_except_table.*)

.exception_ranges
 *(.exception_ranges*)

.tdata          0x0000000007000000        0x0
                [!provide]                        PROVIDE (__tdata_start = .)
 *(.tdata .tdata.* .gnu.linkonce.td.*)

.tbss
 *(.tbss .tbss.* .gnu.linkonce.tb.*)
 *(.tcommon)

.preinit_array  0x0000000007000000        0x0
                [!provide]                        PROVIDE (__preinit_array_start = .)
 *(.preinit_array)
                [!provide]                        PROVIDE (__preinit_array_end = .)

.init_array     0x0000000007000000        0x0
                [!provide]                        PROVIDE (__init_array_start = .)
 *(SORT_BY_INIT_PRIORITY(.init_array.*) SORT_BY_INIT_PRIORITY(.ctors.*))
 *(.init_array EXCLUDE_FILE(*crtend?.o *crtend.o *crtbegin?.o *crtbegin.o) .ctors)
                [!provide]                        PROVIDE (__init_array_end = .)

.fini_array     0x0000000007000000        0x0
                [!provide]                        PROVIDE (__fini_array_start = .)
 *(SORT_BY_INIT_PRIORITY(.fini_array.*) SORT_BY_INIT_PRIORITY(.dtors.*))
 *(.fini_array EXCLUDE_FILE(*crtend?.o *crtend.o *crtbegin?.o *crtbegin.o) .dtors)
                [!provide]                        PROVIDE (__fini_array_end = .)

.ctors
 *crtbegin.o(.ctors)
 *crtbegin?.o(.ctors)
 *(EXCLUDE_FILE(*crtend?.o *crtend.o) .ctors)
 *(SORT_BY_NAME(.ctors.*))
 *(.ctors)

.dtors
 *crtbegin.o(.dtors)
 *crtbegin?.o(.dtors)
 *(EXCLUDE_FILE(*crtend?.o *crtend.o) .dtors)
 *(SORT_BY_NAME(.dtors.*))
 *(.dtors)

.jcr
 *(.jcr)

.data.rel.ro
 *(.data.rel.ro.local* .gnu.linkonce.d.rel.ro.local.*)
 *(.data.rel.ro .data.rel.ro.* .gnu.linkonce.d.rel.ro.*)
                0x0000000007000000                . = DATA_SEGMENT_RELRO_END (., 0x0)

.data           0x0000000007000000   0x13e2b8
                0x0000000007000000                _fdata = .
 *(.data .data.* .gnu.linkonce.d.*)
 .data          0x0000000007000000   0x13e2b8 build/us/levels/ccm/leveldata.o
                0x0000000007000000                enginepart_material_revert_render_settings
                0x0000000007000040                enginepart_Circle_mesh_layer_4
                0x0000000007000098                mat_revert_enginepart_f3d_material_006
                0x00000000070000b8                mat_enginepart_f3d_material_006
                0x0000000007000170                mat_revert_enginepart_f3d_material_007
                0x0000000007000190                mat_enginepart_f3d_material_007
                0x0000000007000248                enginepart_Circle_mesh_layer_4_tri_1
                0x0000000007000268                enginepart_Circle_mesh_layer_4_vtx_1
                0x00000000070002b8                enginepart_Circle_mesh_layer_4_tri_0
                0x00000000070002f8                enginepart_Circle_mesh_layer_4_vtx_0
                0x0000000007000418                enginepart_Circle_mesh_layer_4_vtx_cull
                0x0000000007000498                enginepart_fortnite_gear_4_ci4_pal_rgba16
                0x00000000070004b8                enginepart_fortnite_gear_4_ci4_pal_rgba16_aligner
                0x00000000070004c0                enginepart_fortnite_gear_4_ci4
                0x0000000007000cc0                enginepart_fortnite_gear_4_ci4_aligner
                0x0000000007000cc8                enginepart__0x6740_ci4_pal_rgba16
                0x0000000007000ce8                enginepart__0x6740_ci4_pal_rgba16_aligner
                0x0000000007000cf0                enginepart__0x6740_ci4
                0x00000000070014f0                enginepart__0x6740_ci4_aligner
                0x00000000070014f8                enginepart_f3d_material_006_lights
                0x0000000007001510                enginepart_f3d_material_007_lights
                0x0000000007001528                fishbone_collision
                0x00000000070015c0                fishbone_material_revert_render_settings
                0x0000000007001600                fishbone_Plane_mesh_layer_4
                0x0000000007001640                mat_revert_fishbone_f3d_material
                0x0000000007001668                mat_fishbone_f3d_material
                0x0000000007001728                fishbone_Plane_mesh_layer_4_tri_0
                0x0000000007001760                fishbone_Plane_mesh_layer_4_vtx_0
                0x00000000070018a0                fishbone_Plane_mesh_layer_4_vtx_cull
                0x0000000007001920                fishbone_fishboneplatform_ci4_pal_rgba16
                0x0000000007001928                fishbone_fishboneplatform_ci4_pal_rgba16_aligner
                0x0000000007001930                fishbone_fishboneplatform_ci4
                0x00000000070019b0                fishbone_fishboneplatform_ci4_aligner
                0x00000000070019b8                fishbone_f3d_material_lights
                0x00000000070019d0                spikeball_material_revert_render_settings
                0x0000000007001a10                spikeball_Circle_mesh_layer_1
                0x0000000007001a60                mat_spikeball_f3d_material
                0x0000000007001a98                mat_revert_spikeball_f3d_material_001
                0x0000000007001ab8                mat_spikeball_f3d_material_001
                0x0000000007001b70                spikeball_Circle_mesh_layer_1_tri_1
                0x0000000007001bf0                spikeball_Circle_mesh_layer_1_vtx_1
                0x0000000007002070                spikeball_Circle_mesh_layer_1_tri_0
                0x0000000007002140                spikeball_Circle_mesh_layer_1_vtx_0
                0x0000000007002740                spikeball_Circle_mesh_layer_1_vtx_cull
                0x00000000070027c0                spikeball_spikebomb2_ci4_pal_rgba16
                0x00000000070027c8                spikeball_spikebomb2_ci4_pal_rgba16_aligner
                0x00000000070027d0                spikeball_spikebomb2_ci4
                0x0000000007002850                spikeball_spikebomb2_ci4_aligner
                0x0000000007002858                spikeball_f3d_material_lights
                0x0000000007002870                spikeball_f3d_material_001_lights
                0x0000000007002888                skullblock_collision
                0x0000000007002908                skullblock_material_revert_render_settings
                0x0000000007002948                skullblock_Bone_001_mesh_layer_4_mat_override_f3d_material_001_0
                0x0000000007002968                skullblock_Bone_001_mesh_layer_4
                0x0000000007002988                mat_revert_skullblock_f3d_material_001
                0x00000000070029b0                mat_skullblock_f3d_material_001
                0x0000000007002a70                mat_revert_skullblock_f3d_material
                0x0000000007002a98                mat_skullblock_f3d_material
                0x0000000007002b58                skullblock_Bone_001_mesh_layer_4_tri_0
                0x0000000007002b90                skullblock_Bone_001_mesh_layer_4_vtx_0
                0x0000000007002cd0                skullblock_skullblock2_ci4_pal_rgba16
                0x0000000007002cd8                skullblock_skullblock2_ci4_pal_rgba16_aligner
                0x0000000007002ce0                skullblock_skullblock2_ci4
                0x0000000007002d60                skullblock_skullblock2_ci4_aligner
                0x0000000007002d68                skullblock_skullblock1_ci4_pal_rgba16
                0x0000000007002d70                skullblock_skullblock1_ci4_pal_rgba16_aligner
                0x0000000007002d78                skullblock_skullblock1_ci4
                0x0000000007002df8                skullblock_skullblock1_ci4_aligner
                0x0000000007002e00                skullblock_f3d_material_001_lights
                0x0000000007002e18                skullblock_f3d_material_lights
                0x0000000007002e30                penguplane_collision
                0x0000000007003030                penguplane_material_revert_render_settings
                0x0000000007003070                penguplane_Cube_001_mesh_layer_4
                0x00000000070030e0                penguplane_Cube_mesh_layer_1
                0x0000000007003148                mat_revert_penguplane_f3d_material_001
                0x0000000007003160                mat_penguplane_f3d_material_001
                0x00000000070031e0                mat_revert_penguplane_f3d_material
                0x0000000007003200                mat_penguplane_f3d_material
                0x00000000070032b8                mat_revert_penguplane_f3d_material_002
                0x00000000070032d0                mat_penguplane_f3d_material_002
                0x0000000007003350                mat_revert_penguplane_f3d_material_003
                0x0000000007003370                mat_penguplane_f3d_material_003
                0x0000000007003428                mat_revert_penguplane_f3d_material_005
                0x0000000007003440                mat_penguplane_f3d_material_005
                0x00000000070034c0                mat_revert_penguplane_f3d_material_006
                0x00000000070034d8                mat_penguplane_f3d_material_006
                0x0000000007003518                mat_revert_penguplane_f3d_material_004
                0x0000000007003530                mat_penguplane_f3d_material_004
                0x00000000070035b0                penguplane_Cube_001_mesh_layer_4_tri_2
                0x00000000070035d0                penguplane_Cube_001_mesh_layer_4_vtx_2
                0x0000000007003690                penguplane_Cube_001_mesh_layer_4_tri_1
                0x00000000070036a8                penguplane_Cube_001_mesh_layer_4_vtx_1
                0x00000000070036e8                penguplane_Cube_001_mesh_layer_4_tri_0
                0x0000000007003710                penguplane_Cube_001_mesh_layer_4_vtx_0
                0x00000000070037c0                penguplane_Cube_001_mesh_layer_4_vtx_cull
                0x0000000007003840                penguplane_Cube_mesh_layer_1_tri_3
                0x0000000007003868                penguplane_Cube_mesh_layer_1_vtx_3
                0x0000000007003928                penguplane_Cube_mesh_layer_1_tri_2
                0x0000000007003940                penguplane_Cube_mesh_layer_1_vtx_2
                0x0000000007003980                penguplane_Cube_mesh_layer_1_tri_1
                0x0000000007003998                penguplane_Cube_mesh_layer_1_vtx_1
                0x00000000070039c8                penguplane_Cube_mesh_layer_1_tri_0
                0x0000000007003a10                penguplane_Cube_mesh_layer_1_vtx_0
                0x0000000007003b10                penguplane_whells_ia8
                0x0000000007004b10                penguplane_whells_ia8_aligner
                0x0000000007004b18                penguplane__419ExkLRi4L__AC__ci8_pal_rgba16
                0x0000000007004bf0                penguplane__419ExkLRi4L__AC__ci8_pal_rgba16_aligner
                0x0000000007004bf8                penguplane__419ExkLRi4L__AC__ci8
                0x0000000007004ff8                penguplane__419ExkLRi4L__AC__ci8_aligner
                0x0000000007005000                penguplane_wl_tesuri2_ci4_ia8
                0x0000000007005800                penguplane_wl_tesuri2_ci4_ia8_aligner
                0x0000000007005808                penguplane__8E724CB5DEB3B955CEE83EE762538356_ci4_pal_rgba16
                0x0000000007005828                penguplane__8E724CB5DEB3B955CEE83EE762538356_ci4_pal_rgba16_aligner
                0x0000000007005830                penguplane__8E724CB5DEB3B955CEE83EE762538356_ci4
                0x0000000007005a30                penguplane__8E724CB5DEB3B955CEE83EE762538356_ci4_aligner
                0x0000000007005a38                penguplane_GrdSamus1Floor23_i4
                0x0000000007006a38                penguplane_GrdSamus1Floor23_i4_aligner
                0x0000000007006a40                penguplane_GrdSamus1Floor3_i4
                0x0000000007007a40                penguplane_GrdSamus1Floor3_i4_aligner
                0x0000000007007a48                penguplane_f3d_material_001_lights
                0x0000000007007a60                penguplane_f3d_material_lights
                0x0000000007007a78                penguplane_f3d_material_002_lights
                0x0000000007007a90                penguplane_f3d_material_003_lights
                0x0000000007007aa8                penguplane_f3d_material_005_lights
                0x0000000007007ac0                penguplane_f3d_material_006_lights
                0x0000000007007ad8                penguplane_f3d_material_004_lights
                0x0000000007007af0                cheepcheepnew_anims
                0x0000000007007f98                cheepcheepnew_material_revert_render_settings
                0x0000000007007fd8                cheepcheepnew_000_offset_004_mesh_layer_1
                0x0000000007007ff8                cheepcheepnew_000_offset_003_mesh_layer_1
                0x0000000007008018                cheepcheepnew_000_offset_002_mesh_layer_1
                0x0000000007008040                cheepcheepnew_000_offset_002_skinned_mesh_layer_1
                0x0000000007008060                cheepcheepnew_000_offset_001_mesh_layer_1
                0x00000000070080a8                mat_revert_cheepcheepnew_f3d_material_001
                0x00000000070080c0                mat_cheepcheepnew_f3d_material_001
                0x0000000007008170                mat_cheepcheepnew_f3d_material_002
                0x00000000070081e8                mat_revert_cheepcheepnew_f3d_material_004
                0x0000000007008200                mat_cheepcheepnew_f3d_material_004
                0x0000000007008240                cheepcheepnew_000_offset_004_mesh_layer_1_tri_0
                0x0000000007008278                cheepcheepnew_000_offset_004_mesh_layer_1_vtx_0
                0x00000000070082e8                cheepcheepnew_000_offset_003_mesh_layer_1_tri_0
                0x0000000007008320                cheepcheepnew_000_offset_003_mesh_layer_1_vtx_0
                0x0000000007008390                cheepcheepnew_000_offset_002_mesh_layer_1_tri_1
                0x00000000070083c0                cheepcheepnew_000_offset_002_mesh_layer_1_vtx_1
                0x0000000007008430                cheepcheepnew_000_offset_002_mesh_layer_1_tri_0
                0x0000000007008450                cheepcheepnew_000_offset_002_mesh_layer_1_vtx_0
                0x0000000007008490                cheepcheepnew_000_offset_002_skinned_mesh_layer_1_tri_0
                0x00000000070084a0                cheepcheepnew_000_offset_002_skinned_mesh_layer_1_vtx_0
                0x00000000070084b0                cheepcheepnew_000_offset_001_mesh_layer_1_tri_2
                0x0000000007008518                cheepcheepnew_000_offset_001_mesh_layer_1_vtx_2
                0x0000000007008648                cheepcheepnew_000_offset_001_mesh_layer_1_tri_1
                0x0000000007008670                cheepcheepnew_000_offset_001_mesh_layer_1_vtx_1
                0x00000000070086e0                cheepcheepnew_000_offset_001_mesh_layer_1_tri_0
                0x0000000007008780                cheepcheepnew_000_offset_001_mesh_layer_1_vtx_0
                0x0000000007008a50                cheepcheepnew__060102A8_ci8_pal_rgba16
                0x0000000007008aa0                cheepcheepnew__060102A8_ci8_pal_rgba16_aligner
                0x0000000007008aa8                cheepcheepnew__060102A8_ci8
                0x00000000070092a8                cheepcheepnew__060102A8_ci8_aligner
                0x00000000070092b0                cheepcheepnew__0600F2A8_i8
                0x00000000070096b0                cheepcheepnew__0600F2A8_i8_aligner
                0x00000000070096b8                cheepcheepnew_f3d_material_001_lights
                0x00000000070096d0                cheepcheepnew_f3d_material_002_lights
                0x00000000070096e8                cheepcheepnew_f3d_material_004_lights
                0x0000000007009700                mantanew_anims
                0x000000000700cc48                mantanew_material_revert_render_settings
                0x000000000700cc88                mantanew_000_offset_011_mesh_layer_1
                0x000000000700ccb0                mantanew_000_offset_011_skinned_mesh_layer_1
                0x000000000700ccd0                mantanew_000_offset_010_mesh_layer_1
                0x000000000700ccf0                mantanew_000_offset_010_skinned_mesh_layer_1
                0x000000000700cd10                mantanew_000_offset_008_mesh_layer_1
                0x000000000700cd30                mantanew_000_offset_008_skinned_mesh_layer_1
                0x000000000700cd50                mantanew_000_offset_007_mesh_layer_1
                0x000000000700cd70                mantanew_000_offset_007_skinned_mesh_layer_1
                0x000000000700cd90                mantanew_000_offset_006_mesh_layer_1
                0x000000000700cdb0                mantanew_000_offset_006_skinned_mesh_layer_1
                0x000000000700cdd0                mantanew_000_offset_005_mesh_layer_1
                0x000000000700cdf0                mantanew_000_offset_005_skinned_mesh_layer_1
                0x000000000700ce10                mantanew_000_offset_004_mesh_layer_1
                0x000000000700ce30                mantanew_000_offset_004_skinned_mesh_layer_1
                0x000000000700ce50                mantanew_000_offset_003_mesh_layer_1
                0x000000000700ce70                mantanew_000_offset_003_skinned_mesh_layer_1
                0x000000000700ce90                mantanew_000_offset_001_mesh_layer_1
                0x000000000700cee0                mat_revert_mantanew_f3d_material_002
                0x000000000700cef8                mat_mantanew_f3d_material_002
                0x000000000700cf78                mat_revert_mantanew_f3d_material_005
                0x000000000700cf90                mat_mantanew_f3d_material_005
                0x000000000700cfd0                mat_revert_mantanew_f3d_material_003
                0x000000000700cfe8                mat_mantanew_f3d_material_003
                0x000000000700d098                mantanew_000_offset_011_mesh_layer_1_tri_1
                0x000000000700d0c0                mantanew_000_offset_011_mesh_layer_1_vtx_1
                0x000000000700d130                mantanew_000_offset_011_mesh_layer_1_tri_0
                0x000000000700d158                mantanew_000_offset_011_mesh_layer_1_vtx_0
                0x000000000700d188                mantanew_000_offset_011_skinned_mesh_layer_1_tri_0
                0x000000000700d198                mantanew_000_offset_011_skinned_mesh_layer_1_vtx_0
                0x000000000700d1c8                mantanew_000_offset_010_mesh_layer_1_tri_0
                0x000000000700d1f0                mantanew_000_offset_010_mesh_layer_1_vtx_0
                0x000000000700d220                mantanew_000_offset_010_skinned_mesh_layer_1_tri_0
                0x000000000700d230                mantanew_000_offset_010_skinned_mesh_layer_1_vtx_0
                0x000000000700d260                mantanew_000_offset_008_mesh_layer_1_tri_0
                0x000000000700d288                mantanew_000_offset_008_mesh_layer_1_vtx_0
                0x000000000700d2c8                mantanew_000_offset_008_skinned_mesh_layer_1_tri_0
                0x000000000700d2d8                mantanew_000_offset_008_skinned_mesh_layer_1_vtx_0
                0x000000000700d338                mantanew_000_offset_007_mesh_layer_1_tri_0
                0x000000000700d368                mantanew_000_offset_007_mesh_layer_1_vtx_0
                0x000000000700d3c8                mantanew_000_offset_007_skinned_mesh_layer_1_tri_0
                0x000000000700d3d8                mantanew_000_offset_007_skinned_mesh_layer_1_vtx_0
                0x000000000700d438                mantanew_000_offset_006_mesh_layer_1_tri_0
                0x000000000700d470                mantanew_000_offset_006_mesh_layer_1_vtx_0
                0x000000000700d4e0                mantanew_000_offset_006_skinned_mesh_layer_1_tri_0
                0x000000000700d4f0                mantanew_000_offset_006_skinned_mesh_layer_1_vtx_0
                0x000000000700d580                mantanew_000_offset_005_mesh_layer_1_tri_0
                0x000000000700d5a8                mantanew_000_offset_005_mesh_layer_1_vtx_0
                0x000000000700d5e8                mantanew_000_offset_005_skinned_mesh_layer_1_tri_0
                0x000000000700d5f8                mantanew_000_offset_005_skinned_mesh_layer_1_vtx_0
                0x000000000700d658                mantanew_000_offset_004_mesh_layer_1_tri_0
                0x000000000700d688                mantanew_000_offset_004_mesh_layer_1_vtx_0
                0x000000000700d6e8                mantanew_000_offset_004_skinned_mesh_layer_1_tri_0
                0x000000000700d6f8                mantanew_000_offset_004_skinned_mesh_layer_1_vtx_0
                0x000000000700d758                mantanew_000_offset_003_mesh_layer_1_tri_0
                0x000000000700d790                mantanew_000_offset_003_mesh_layer_1_vtx_0
                0x000000000700d800                mantanew_000_offset_003_skinned_mesh_layer_1_tri_0
                0x000000000700d810                mantanew_000_offset_003_skinned_mesh_layer_1_vtx_0
                0x000000000700d8a0                mantanew_000_offset_001_mesh_layer_1_tri_2
                0x000000000700d8d0                mantanew_000_offset_001_mesh_layer_1_vtx_2
                0x000000000700d990                mantanew_000_offset_001_mesh_layer_1_tri_1
                0x000000000700db10                mantanew_000_offset_001_mesh_layer_1_vtx_1
                0x000000000700e0c0                mantanew_000_offset_001_mesh_layer_1_tri_0
                0x000000000700e110                mantanew_000_offset_001_mesh_layer_1_vtx_0
                0x000000000700e310                mantanew__05001FA0_ia8
                0x000000000700eb10                mantanew__05001FA0_ia8_aligner
                0x000000000700eb18                mantanew__05002FA0_ci8_pal_rgba16
                0x000000000700ec08                mantanew__05002FA0_ci8_pal_rgba16_aligner
                0x000000000700ec10                mantanew__05002FA0_ci8
                0x000000000700f010                mantanew__05002FA0_ci8_aligner
                0x000000000700f018                mantanew_f3d_material_002_lights
                0x000000000700f030                mantanew_f3d_material_005_lights
                0x000000000700f048                mantanew_f3d_material_003_lights
                0x000000000700f060                sushinew_anims
                0x0000000007010438                sushinew_material_revert_render_settings
                0x0000000007010478                sushinew_004_offset_mesh_layer_4
                0x0000000007010498                sushinew_000_offset_004_mesh_layer_1
                0x00000000070104b8                sushinew_000_offset_004_skinned_mesh_layer_1
                0x00000000070104c8                sushinew_000_offset_003_mesh_layer_1
                0x00000000070104d8                sushinew_000_offset_003_skinned_mesh_layer_1
                0x00000000070104e8                sushinew_000_offset_002_mesh_layer_1
                0x00000000070104f8                sushinew_000_offset_002_skinned_mesh_layer_1
                0x0000000007010508                sushinew_000_offset_001_mesh_layer_1
                0x0000000007010530                mat_revert_sushinew_f3d_material_001
                0x0000000007010548                mat_sushinew_f3d_material_001
                0x00000000070105f8                mat_sushinew_f3d_material_002
                0x0000000007010670                mat_revert_sushinew_f3d_material
                0x0000000007010688                mat_sushinew_f3d_material
                0x0000000007010738                sushinew_004_offset_mesh_layer_4_tri_0
                0x0000000007010750                sushinew_004_offset_mesh_layer_4_vtx_0
                0x00000000070107b0                sushinew_000_offset_004_mesh_layer_1_tri_1
                0x00000000070107e8                sushinew_000_offset_004_mesh_layer_1_vtx_1
                0x0000000007010858                sushinew_000_offset_004_mesh_layer_1_tri_0
                0x0000000007010890                sushinew_000_offset_004_mesh_layer_1_vtx_0
                0x00000000070108c0                sushinew_000_offset_004_skinned_mesh_layer_1_tri_0
                0x00000000070108d0                sushinew_000_offset_004_skinned_mesh_layer_1_vtx_0
                0x0000000007010930                sushinew_000_offset_003_mesh_layer_1_tri_0
                0x0000000007010970                sushinew_000_offset_003_mesh_layer_1_vtx_0
                0x00000000070109d0                sushinew_000_offset_003_skinned_mesh_layer_1_tri_0
                0x00000000070109e0                sushinew_000_offset_003_skinned_mesh_layer_1_vtx_0
                0x0000000007010a40                sushinew_000_offset_002_mesh_layer_1_tri_0
                0x0000000007010a80                sushinew_000_offset_002_mesh_layer_1_vtx_0
                0x0000000007010ae0                sushinew_000_offset_002_skinned_mesh_layer_1_tri_0
                0x0000000007010af0                sushinew_000_offset_002_skinned_mesh_layer_1_vtx_0
                0x0000000007010b50                sushinew_000_offset_001_mesh_layer_1_tri_1
                0x0000000007010b68                sushinew_000_offset_001_mesh_layer_1_vtx_1
                0x0000000007010ba8                sushinew_000_offset_001_mesh_layer_1_tri_0
                0x0000000007010c48                sushinew_000_offset_001_mesh_layer_1_vtx_0
                0x0000000007010e78                sushinew__050096D0_ci8_pal_rgba16
                0x0000000007010f98                sushinew__050096D0_ci8_pal_rgba16_aligner
                0x0000000007010fa0                sushinew__050096D0_ci8
                0x00000000070111a0                sushinew__050096D0_ci8_aligner
                0x00000000070111a8                sushinew__05009AD0_rgba16
                0x0000000007011228                sushinew__05009AD0_rgba16_aligner
                0x0000000007011230                sushinew__05008ED0_ci8_pal_rgba16
                0x0000000007011398                sushinew__05008ED0_ci8_pal_rgba16_aligner
                0x00000000070113a0                sushinew__05008ED0_ci8
                0x00000000070117a0                sushinew__05008ED0_ci8_aligner
                0x00000000070117a8                sushinew_f3d_material_001_lights
                0x00000000070117c0                sushinew_f3d_material_002_lights
                0x00000000070117d8                sushinew_f3d_material_lights
                0x00000000070117f0                smoltoise_anims
                0x0000000007012560                smolturtle_material_revert_render_settings
                0x00000000070125a0                smolturtle_flotte2_r_mesh_layer_1
                0x00000000070125c8                smolturtle_flotte2_r_skinned_mesh_layer_1
                0x00000000070125e8                smolturtle_flotte2_l_mesh_layer_1
                0x0000000007012610                smolturtle_flotte2_l_skinned_mesh_layer_1
                0x0000000007012630                smolturtle_backflotte2_r_mesh_layer_1
                0x0000000007012650                smolturtle_backflotte2_r_skinned_mesh_layer_1
                0x0000000007012670                smolturtle_backflotte2_l_mesh_layer_1
                0x0000000007012690                smolturtle_backflotte2_l_skinned_mesh_layer_1
                0x00000000070126b0                smolturtle_Bone_003_mesh_layer_1
                0x00000000070126e8                smolturtle_Bone_003_skinned_mesh_layer_1
                0x0000000007012708                smolturtle_Bone_mesh_layer_1
                0x0000000007012758                mat_smolturtle_sm64_material_001
                0x00000000070127d0                mat_revert_smolturtle_sm64_material_005
                0x00000000070127e8                mat_smolturtle_sm64_material_005
                0x0000000007012868                mat_revert_smolturtle_sm64_material_003
                0x0000000007012888                mat_smolturtle_sm64_material_003
                0x0000000007012940                mat_revert_smolturtle_sm64_material
                0x0000000007012960                mat_smolturtle_sm64_material
                0x0000000007012a00                mat_revert_smolturtle_sm64_material_002
                0x0000000007012a20                mat_smolturtle_sm64_material_002
                0x0000000007012ad8                smolturtle_flotte2_r_mesh_layer_1_tri_1
                0x0000000007012af8                smolturtle_flotte2_r_mesh_layer_1_vtx_1
                0x0000000007012b38                smolturtle_flotte2_r_mesh_layer_1_tri_0
                0x0000000007012b68                smolturtle_flotte2_r_mesh_layer_1_vtx_0
                0x0000000007012b98                smolturtle_flotte2_r_skinned_mesh_layer_1_tri_0
                0x0000000007012ba8                smolturtle_flotte2_r_skinned_mesh_layer_1_vtx_0
                0x0000000007012be8                smolturtle_flotte2_l_mesh_layer_1_tri_1
                0x0000000007012c08                smolturtle_flotte2_l_mesh_layer_1_vtx_1
                0x0000000007012c48                smolturtle_flotte2_l_mesh_layer_1_tri_0
                0x0000000007012c78                smolturtle_flotte2_l_mesh_layer_1_vtx_0
                0x0000000007012ca8                smolturtle_flotte2_l_skinned_mesh_layer_1_tri_0
                0x0000000007012cb8                smolturtle_flotte2_l_skinned_mesh_layer_1_vtx_0
                0x0000000007012cf8                smolturtle_backflotte2_r_mesh_layer_1_tri_0
                0x0000000007012d20                smolturtle_backflotte2_r_mesh_layer_1_vtx_0
                0x0000000007012d40                smolturtle_backflotte2_r_skinned_mesh_layer_1_tri_0
                0x0000000007012d50                smolturtle_backflotte2_r_skinned_mesh_layer_1_vtx_0
                0x0000000007012d90                smolturtle_backflotte2_l_mesh_layer_1_tri_0
                0x0000000007012db8                smolturtle_backflotte2_l_mesh_layer_1_vtx_0
                0x0000000007012dd8                smolturtle_backflotte2_l_skinned_mesh_layer_1_tri_0
                0x0000000007012de8                smolturtle_backflotte2_l_skinned_mesh_layer_1_vtx_0
                0x0000000007012e28                smolturtle_Bone_003_mesh_layer_1_tri_2
                0x0000000007012e48                smolturtle_Bone_003_mesh_layer_1_vtx_2
                0x0000000007012ea8                smolturtle_Bone_003_mesh_layer_1_tri_1
                0x0000000007012ef8                smolturtle_Bone_003_mesh_layer_1_vtx_1
                0x0000000007012fb8                smolturtle_Bone_003_mesh_layer_1_tri_0
                0x0000000007012ff8                smolturtle_Bone_003_mesh_layer_1_vtx_0
                0x0000000007013078                smolturtle_Bone_003_skinned_mesh_layer_1_tri_0
                0x0000000007013088                smolturtle_Bone_003_skinned_mesh_layer_1_vtx_0
                0x00000000070130c8                smolturtle_Bone_mesh_layer_1_tri_2
                0x0000000007013110                smolturtle_Bone_mesh_layer_1_vtx_2
                0x00000000070131f0                smolturtle_Bone_mesh_layer_1_tri_1
                0x0000000007013248                smolturtle_Bone_mesh_layer_1_vtx_1
                0x0000000007013318                smolturtle_Bone_mesh_layer_1_tri_0
                0x0000000007013360                smolturtle_Bone_mesh_layer_1_vtx_0
                0x0000000007013450                smolturtle__0501C588_i8
                0x0000000007013550                smolturtle__0501C588_i8_aligner
                0x0000000007013558                smolturtle_t0012_0_i4
                0x0000000007014558                smolturtle_t0012_0_i4_aligner
                0x0000000007014560                smolturtle_t0024_0_ci8_pal_rgba16
                0x00000000070145e0                smolturtle_t0024_0_ci8_pal_rgba16_aligner
                0x00000000070145e8                smolturtle_t0024_0_ci8
                0x00000000070147e8                smolturtle_t0024_0_ci8_aligner
                0x00000000070147f0                smolturtle_miroisadgr_anu_ci8_pal_rgba16
                0x0000000007014938                smolturtle_miroisadgr_anu_ci8_pal_rgba16_aligner
                0x0000000007014940                smolturtle_miroisadgr_anu_ci8
                0x0000000007015140                smolturtle_miroisadgr_anu_ci8_aligner
                0x0000000007015148                smolturtle_t0018_0ci4_ci4_pal_rgba16
                0x0000000007015168                smolturtle_t0018_0ci4_ci4_pal_rgba16_aligner
                0x0000000007015170                smolturtle_t0018_0ci4_ci4
                0x0000000007015970                smolturtle_t0018_0ci4_ci4_aligner
                0x0000000007015978                smolturtle_sm64_material_001_lights
                0x0000000007015990                smolturtle_sm64_material_005_lights
                0x00000000070159a8                smolturtle_sm64_material_003_lights
                0x00000000070159c0                smolturtle_sm64_material_002_lights
                0x00000000070159d8                blooper_anims
                0x0000000007015f18                blooper_material_revert_render_settings
                0x0000000007015f58                blooper_armend_r_mesh_layer_1
                0x0000000007015f78                blooper_armend_l_mesh_layer_1
                0x0000000007015f98                blooper_Bone_001_mesh_layer_1
                0x0000000007015fc0                blooper_Bone_001_skinned_mesh_layer_1
                0x0000000007015fe0                blooper_Bone_mesh_layer_1
                0x0000000007016000                mat_revert_blooper_mat_gesso_f3d
                0x0000000007016018                mat_blooper_mat_gesso_f3d
                0x0000000007016098                blooper_armend_r_mesh_layer_1_tri_0
                0x00000000070160b8                blooper_armend_r_mesh_layer_1_vtx_0
                0x0000000007016108                blooper_armend_l_mesh_layer_1_tri_0
                0x0000000007016128                blooper_armend_l_mesh_layer_1_vtx_0
                0x0000000007016178                blooper_Bone_001_mesh_layer_1_tri_1
                0x00000000070161e8                blooper_Bone_001_mesh_layer_1_vtx_1
                0x0000000007016368                blooper_Bone_001_mesh_layer_1_tri_0
                0x00000000070163c0                blooper_Bone_001_mesh_layer_1_vtx_0
                0x0000000007016460                blooper_Bone_001_skinned_mesh_layer_1_tri_0
                0x0000000007016470                blooper_Bone_001_skinned_mesh_layer_1_vtx_0
                0x0000000007016530                blooper_Bone_mesh_layer_1_tri_0
                0x00000000070165c0                blooper_Bone_mesh_layer_1_vtx_0
                0x0000000007016720                blooper_gesso_s_ia8
                0x0000000007016b20                blooper_gesso_s_ia8_aligner
                0x0000000007016b28                blooper_mat_gesso_f3d_lights
                0x0000000007016b40                pengucannon_collision
                0x0000000007016c80                pengucannon_material_revert_render_settings
                0x0000000007016cc0                pengucannon_Plane_mesh_layer_1
                0x0000000007016d00                mat_revert_pengucannon_f3d_material
                0x0000000007016d20                mat_pengucannon_f3d_material
                0x0000000007016dd8                pengucannon_Plane_mesh_layer_1_tri_0
                0x0000000007016e68                pengucannon_Plane_mesh_layer_1_vtx_0
                0x0000000007017188                pengucannon_Plane_mesh_layer_1_vtx_cull
                0x0000000007017208                pengucannon__3552976_ci4_pal_rgba16
                0x0000000007017228                pengucannon__3552976_ci4_pal_rgba16_aligner
                0x0000000007017230                pengucannon__3552976_ci4
                0x0000000007017430                pengucannon__3552976_ci4_aligner
                0x0000000007017438                pengucannon_f3d_material_lights
                0x0000000007017450                wariocarbroken_collision
                0x00000000070178b8                wariocarbroken_material_revert_render_settings
                0x00000000070178f8                wariocarbroken_polygon1_mesh_layer_1
                0x0000000007017950                mat_revert_wariocarbroken_kart_tire_f3d
                0x0000000007017968                mat_wariocarbroken_kart_tire_f3d
                0x0000000007017a18                mat_revert_wariocarbroken_kart_body_f3d
                0x0000000007017a38                mat_wariocarbroken_kart_body_f3d
                0x0000000007017af0                wariocarbroken_polygon1_mesh_layer_1_tri_1
                0x0000000007017bc8                wariocarbroken_polygon1_mesh_layer_1_vtx_1
                0x0000000007018348                wariocarbroken_polygon1_mesh_layer_1_tri_0
                0x00000000070184a0                wariocarbroken_polygon1_mesh_layer_1_vtx_0
                0x0000000007018dc0                wariocarbroken_polygon1_mesh_layer_1_vtx_cull
                0x0000000007018e40                wariocarbroken_kart_tire_ci8_pal_rgba16
                0x0000000007018e80                wariocarbroken_kart_tire_ci8_pal_rgba16_aligner
                0x0000000007018e88                wariocarbroken_kart_tire_ci8
                0x0000000007019688                wariocarbroken_kart_tire_ci8_aligner
                0x0000000007019690                wariocarbroken_kart_body_ci8_pal_rgba16
                0x0000000007019728                wariocarbroken_kart_body_ci8_pal_rgba16_aligner
                0x0000000007019730                wariocarbroken_kart_body_ci8
                0x0000000007019f30                wariocarbroken_kart_body_ci8_aligner
                0x0000000007019f38                wariocarbroken_kart_tire_f3d_lights
                0x0000000007019f50                wariocarbroken_kart_body_f3d_lights
                0x0000000007019f68                banana_material_revert_render_settings
                0x0000000007019fa8                banana_n0b0_mesh_layer_1
                0x0000000007019fc8                mat_revert_banana_f3d_material
                0x0000000007019fe0                mat_banana_f3d_material
                0x000000000701a020                banana_n0b0_mesh_layer_1_tri_0
                0x000000000701a0e8                banana_n0b0_mesh_layer_1_vtx_0
                0x000000000701a6c8                banana_f3d_material_lights
                0x000000000701a6e0                sellguy_anims
                0x000000000701abb8                sellguy_material_revert_render_settings
                0x000000000701abf8                sellguy_foot_r_mesh_layer_1
                0x000000000701ac10                sellguy_foot_l_mesh_layer_1
                0x000000000701ac28                sellguy_arm_r_mesh_layer_1
                0x000000000701ac40                sellguy_arm_l_mesh_layer_1
                0x000000000701ac58                sellguy_Bone_002_mesh_layer_1
                0x000000000701ac90                mat_sellguy_f3d_material
                0x000000000701acc8                mat_sellguy_f3d_material_001
                0x000000000701ad00                mat_revert_sellguy_gameguy_bow_f3d_v4
                0x000000000701ad20                mat_sellguy_gameguy_bow_f3d_v4
                0x000000000701add8                mat_revert_sellguy_gameguy_body_f3d_v4
                0x000000000701adf0                mat_sellguy_gameguy_body_f3d_v4
                0x000000000701aea0                sellguy_foot_r_mesh_layer_1_tri_0
                0x000000000701aef0                sellguy_foot_r_mesh_layer_1_vtx_0
                0x000000000701afd0                sellguy_foot_l_mesh_layer_1_tri_0
                0x000000000701b020                sellguy_foot_l_mesh_layer_1_vtx_0
                0x000000000701b100                sellguy_arm_r_mesh_layer_1_tri_0
                0x000000000701b128                sellguy_arm_r_mesh_layer_1_vtx_0
                0x000000000701b1e8                sellguy_arm_l_mesh_layer_1_tri_0
                0x000000000701b210                sellguy_arm_l_mesh_layer_1_vtx_0
                0x000000000701b2d0                sellguy_Bone_002_mesh_layer_1_tri_1
                0x000000000701b300                sellguy_Bone_002_mesh_layer_1_vtx_1
                0x000000000701b450                sellguy_Bone_002_mesh_layer_1_tri_0
                0x000000000701b4e8                sellguy_Bone_002_mesh_layer_1_vtx_0
                0x000000000701b7a8                sellguy__58ee848d_ci4_pal_rgba16
                0x000000000701b7c8                sellguy__58ee848d_ci4_pal_rgba16_aligner
                0x000000000701b7d0                sellguy__58ee848d_ci4
                0x000000000701b850                sellguy__58ee848d_ci4_aligner
                0x000000000701b858                sellguy__2706d01c_ci4_pal_rgba16
                0x000000000701b878                sellguy__2706d01c_ci4_pal_rgba16_aligner
                0x000000000701b880                sellguy__2706d01c_ci4
                0x000000000701c080                sellguy__2706d01c_ci4_aligner
                0x000000000701c088                sellguy_f3d_material_lights
                0x000000000701c0a0                sellguy_f3d_material_001_lights
                0x000000000701c0b8                sellguy_gameguy_bow_f3d_v4_lights
                0x000000000701c0d0                sellguy_gameguy_body_f3d_v4_lights
                0x000000000701c0e8                dorrie_anims
                0x000000000701c0f4                dorrie_anim_eat
                0x000000000701c79c                dorrie_anim_sm64_anim
                0x000000000701da50                dorrie_material_revert_render_settings
                0x000000000701da90                dorrie_000_offset_011_mesh_layer_1
                0x000000000701dab0                dorrie_000_offset_010_mesh_layer_1
                0x000000000701dad0                dorrie_000_offset_009_mesh_layer_1
                0x000000000701daf0                dorrie_000_offset_008_mesh_layer_1
                0x000000000701db10                dorrie_000_offset_007_mesh_layer_1
                0x000000000701db30                dorrie_000_offset_007_skinned_mesh_layer_1
                0x000000000701db50                dorrie_000_offset_006_mesh_layer_1
                0x000000000701db70                dorrie_000_offset_006_skinned_mesh_layer_1
                0x000000000701db90                dorrie_000_offset_005_mesh_layer_1
                0x000000000701dbf8                dorrie_000_offset_005_skinned_mesh_layer_1
                0x000000000701dc30                dorrie_000_displaylist_mesh_layer_4
                0x000000000701dc48                dorrie_000_offset_004_mesh_layer_1
                0x000000000701dc98                dorrie_000_offset_004_skinned_mesh_layer_1
                0x000000000701dcb8                dorrie_000_offset_003_mesh_layer_1
                0x000000000701dcd8                dorrie_000_offset_003_skinned_mesh_layer_1
                0x000000000701dcf8                dorrie_000_offset_002_mesh_layer_1
                0x000000000701dd18                dorrie_000_offset_002_skinned_mesh_layer_1
                0x000000000701dd38                dorrie_000_offset_001_mesh_layer_1
                0x000000000701dd58                mat_dorrie_dorrieyes
                0x000000000701ddd0                mat_revert_dorrie_f3d_material_001
                0x000000000701dde8                mat_dorrie_f3d_material_001
                0x000000000701de98                mat_revert_dorrie_f3d_material_003
                0x000000000701deb0                mat_dorrie_f3d_material_003
                0x000000000701df30                dorrie_000_offset_011_mesh_layer_1_tri_0
                0x000000000701df70                dorrie_000_offset_011_mesh_layer_1_vtx_0
                0x000000000701dff0                dorrie_000_offset_010_mesh_layer_1_tri_0
                0x000000000701e030                dorrie_000_offset_010_mesh_layer_1_vtx_0
                0x000000000701e0b0                dorrie_000_offset_009_mesh_layer_1_tri_0
                0x000000000701e0f0                dorrie_000_offset_009_mesh_layer_1_vtx_0
                0x000000000701e170                dorrie_000_offset_008_mesh_layer_1_tri_0
                0x000000000701e1b0                dorrie_000_offset_008_mesh_layer_1_vtx_0
                0x000000000701e230                dorrie_000_offset_007_mesh_layer_1_tri_0
                0x000000000701e258                dorrie_000_offset_007_mesh_layer_1_vtx_0
                0x000000000701e268                dorrie_000_offset_007_skinned_mesh_layer_1_tri_0
                0x000000000701e278                dorrie_000_offset_007_skinned_mesh_layer_1_vtx_0
                0x000000000701e2d8                dorrie_000_offset_006_mesh_layer_1_tri_0
                0x000000000701e318                dorrie_000_offset_006_mesh_layer_1_vtx_0
                0x000000000701e378                dorrie_000_offset_006_skinned_mesh_layer_1_tri_0
                0x000000000701e388                dorrie_000_offset_006_skinned_mesh_layer_1_vtx_0
                0x000000000701e3e8                dorrie_000_offset_005_mesh_layer_1_tri_3
                0x000000000701e420                dorrie_000_offset_005_mesh_layer_1_vtx_3
                0x000000000701e4c0                dorrie_000_offset_005_mesh_layer_1_tri_2
                0x000000000701e4e8                dorrie_000_offset_005_mesh_layer_1_vtx_2
                0x000000000701e548                dorrie_000_offset_005_mesh_layer_1_tri_1
                0x000000000701e578                dorrie_000_offset_005_mesh_layer_1_vtx_1
                0x000000000701e5d8                dorrie_000_offset_005_mesh_layer_1_tri_0
                0x000000000701e5f8                dorrie_000_offset_005_mesh_layer_1_vtx_0
                0x000000000701e628                dorrie_000_offset_005_skinned_mesh_layer_1_tri_1
                0x000000000701e638                dorrie_000_offset_005_skinned_mesh_layer_1_vtx_1
                0x000000000701e678                dorrie_000_offset_005_skinned_mesh_layer_1_tri_0
                0x000000000701e688                dorrie_000_offset_005_skinned_mesh_layer_1_vtx_0
                0x000000000701e6a8                dorrie_000_displaylist_mesh_layer_4_tri_0
                0x000000000701e6c8                dorrie_000_displaylist_mesh_layer_4_vtx_0
                0x000000000701e748                dorrie_000_offset_004_mesh_layer_1_tri_2
                0x000000000701e7f0                dorrie_000_offset_004_mesh_layer_1_vtx_2
                0x000000000701e990                dorrie_000_offset_004_mesh_layer_1_tri_1
                0x000000000701e9b0                dorrie_000_offset_004_mesh_layer_1_vtx_1
                0x000000000701ea10                dorrie_000_offset_004_mesh_layer_1_tri_0
                0x000000000701ea58                dorrie_000_offset_004_mesh_layer_1_vtx_0
                0x000000000701eab8                dorrie_000_offset_004_skinned_mesh_layer_1_tri_0
                0x000000000701eac8                dorrie_000_offset_004_skinned_mesh_layer_1_vtx_0
                0x000000000701eb38                dorrie_000_offset_003_mesh_layer_1_tri_0
                0x000000000701eb80                dorrie_000_offset_003_mesh_layer_1_vtx_0
                0x000000000701ebf0                dorrie_000_offset_003_skinned_mesh_layer_1_tri_0
                0x000000000701ec00                dorrie_000_offset_003_skinned_mesh_layer_1_vtx_0
                0x000000000701ec70                dorrie_000_offset_002_mesh_layer_1_tri_0
                0x000000000701ecc0                dorrie_000_offset_002_mesh_layer_1_vtx_0
                0x000000000701ed30                dorrie_000_offset_002_skinned_mesh_layer_1_tri_0
                0x000000000701ed40                dorrie_000_offset_002_skinned_mesh_layer_1_vtx_0
                0x000000000701ede0                dorrie_000_offset_001_mesh_layer_1_tri_0
                0x000000000701ee90                dorrie_000_offset_001_mesh_layer_1_vtx_0
                0x000000000701f050                dorrie_angrydorrieeye__1__ia8
                0x000000000701f150                dorrie_angrydorrieeye__1__ia8_aligner
                0x000000000701f158                dorrie__0600ADA0_ci8_pal_rgba16
                0x000000000701f2b0                dorrie__0600ADA0_ci8_pal_rgba16_aligner
                0x000000000701f2b8                dorrie__0600ADA0_ci8
                0x000000000701f6b8                dorrie__0600ADA0_ci8_aligner
                0x000000000701f6c0                dorrie_LawnAgreyscale_i8
                0x00000000070206c0                dorrie_LawnAgreyscale_i8_aligner
                0x00000000070206c8                dorrie_dorrieyes_lights
                0x00000000070206e0                dorrie_f3d_material_001_lights
                0x00000000070206f8                dorrie_f3d_material_003_lights
                0x0000000007020710                wario_anims
                0x0000000007024e78                wario_material_revert_render_settings
                0x0000000007024eb8                wario_foot_r_mesh_layer_1
                0x0000000007024ed8                wario_foot_r_skinned_mesh_layer_1
                0x0000000007024ef0                wario_lowleg_r_mesh_layer_1
                0x0000000007024f08                wario_lowleg_r_skinned_mesh_layer_1
                0x0000000007024f20                wario_leg_r_mesh_layer_1
                0x0000000007024f38                wario_leg_r_skinned_mesh_layer_1
                0x0000000007024f50                wario_foot_l_mesh_layer_1
                0x0000000007024f70                wario_foot_l_skinned_mesh_layer_1
                0x0000000007024f88                wario_lowleg_l_mesh_layer_1
                0x0000000007024fa0                wario_lowleg_l_skinned_mesh_layer_1
                0x0000000007024fb8                wario_leg_l_mesh_layer_1
                0x0000000007024fd0                wario_leg_l_skinned_mesh_layer_1
                0x0000000007024fe8                wario_fist_r_mesh_layer_1
                0x0000000007025008                wario_fist_r_skinned_mesh_layer_1
                0x0000000007025020                wario_forearm_r_mesh_layer_1
                0x0000000007025038                wario_forearm_r_skinned_mesh_layer_1
                0x0000000007025050                wario_arm_r_mesh_layer_1
                0x0000000007025068                wario_arm_r_skinned_mesh_layer_1
                0x0000000007025080                wario_fist_l_mesh_layer_1
                0x00000000070250a0                wario_fist_l_skinned_mesh_layer_1
                0x00000000070250b8                wario_forearm_l_mesh_layer_1
                0x00000000070250d0                wario_forearm_l_skinned_mesh_layer_1
                0x00000000070250e8                wario_arm_l_mesh_layer_1
                0x0000000007025100                wario_arm_l_skinned_mesh_layer_1
                0x0000000007025118                wario_Bone_011_mesh_layer_5_mat_override_eyesclosed_0
                0x0000000007025138                wario_Bone_011_mesh_layer_5
                0x0000000007025158                wario_Bone_011_mesh_layer_1_mat_override_eyesclosed_0
                0x00000000070251d8                wario_Bone_011_mesh_layer_1
                0x0000000007025258                wario_Bone_005_mesh_layer_1
                0x0000000007025290                mat_wario_f3d_material_005
                0x00000000070252c8                mat_wario_f3d_material_003
                0x0000000007025300                mat_wario_f3d_material_008
                0x0000000007025338                mat_revert_wario_eyesclosed
                0x0000000007025350                mat_wario_eyesclosed
                0x0000000007025400                mat_revert_wario_f3d_material_009
                0x0000000007025418                mat_wario_f3d_material_009
                0x0000000007025498                mat_wario_f3d_material
                0x00000000070254d0                mat_revert_wario_f3d_material_004
                0x00000000070254e8                mat_wario_f3d_material_004
                0x0000000007025598                mat_wario_f3d_material_007
                0x00000000070255d0                mat_revert_wario_f3d_material_011
                0x00000000070255e8                mat_wario_f3d_material_011
                0x0000000007025698                mat_revert_wario_f3d_material_006
                0x00000000070256b0                mat_wario_f3d_material_006
                0x0000000007025760                mat_wario_f3d_material_010
                0x0000000007025798                mat_wario_f3d_material_012
                0x0000000007025810                mat_wario_f3d_material_002
                0x0000000007025848                mat_wario_f3d_material_001
                0x0000000007025880                wario_foot_r_mesh_layer_1_tri_1
                0x00000000070258b8                wario_foot_r_mesh_layer_1_vtx_1
                0x0000000007025998                wario_foot_r_mesh_layer_1_tri_0
                0x00000000070259d0                wario_foot_r_mesh_layer_1_vtx_0
                0x0000000007025a30                wario_foot_r_skinned_mesh_layer_1_tri_0
                0x0000000007025a40                wario_foot_r_skinned_mesh_layer_1_vtx_0
                0x0000000007025a80                wario_lowleg_r_mesh_layer_1_tri_0
                0x0000000007025ab8                wario_lowleg_r_mesh_layer_1_vtx_0
                0x0000000007025af8                wario_lowleg_r_skinned_mesh_layer_1_tri_0
                0x0000000007025b08                wario_lowleg_r_skinned_mesh_layer_1_vtx_0
                0x0000000007025b58                wario_leg_r_mesh_layer_1_tri_0
                0x0000000007025b98                wario_leg_r_mesh_layer_1_vtx_0
                0x0000000007025be8                wario_leg_r_skinned_mesh_layer_1_tri_0
                0x0000000007025bf8                wario_leg_r_skinned_mesh_layer_1_vtx_0
                0x0000000007025c58                wario_foot_l_mesh_layer_1_tri_1
                0x0000000007025c90                wario_foot_l_mesh_layer_1_vtx_1
                0x0000000007025d70                wario_foot_l_mesh_layer_1_tri_0
                0x0000000007025da8                wario_foot_l_mesh_layer_1_vtx_0
                0x0000000007025e08                wario_foot_l_skinned_mesh_layer_1_tri_0
                0x0000000007025e18                wario_foot_l_skinned_mesh_layer_1_vtx_0
                0x0000000007025e58                wario_lowleg_l_mesh_layer_1_tri_0
                0x0000000007025e90                wario_lowleg_l_mesh_layer_1_vtx_0
                0x0000000007025ed0                wario_lowleg_l_skinned_mesh_layer_1_tri_0
                0x0000000007025ee0                wario_lowleg_l_skinned_mesh_layer_1_vtx_0
                0x0000000007025f30                wario_leg_l_mesh_layer_1_tri_0
                0x0000000007025f70                wario_leg_l_mesh_layer_1_vtx_0
                0x0000000007025fc0                wario_leg_l_skinned_mesh_layer_1_tri_0
                0x0000000007025fd0                wario_leg_l_skinned_mesh_layer_1_vtx_0
                0x0000000007026030                wario_fist_r_mesh_layer_1_tri_1
                0x0000000007026080                wario_fist_r_mesh_layer_1_vtx_1
                0x0000000007026210                wario_fist_r_mesh_layer_1_tri_0
                0x0000000007026258                wario_fist_r_mesh_layer_1_vtx_0
                0x00000000070262f8                wario_fist_r_skinned_mesh_layer_1_tri_0
                0x0000000007026308                wario_fist_r_skinned_mesh_layer_1_vtx_0
                0x0000000007026358                wario_forearm_r_mesh_layer_1_tri_0
                0x0000000007026390                wario_forearm_r_mesh_layer_1_vtx_0
                0x00000000070263e0                wario_forearm_r_skinned_mesh_layer_1_tri_0
                0x00000000070263f0                wario_forearm_r_skinned_mesh_layer_1_vtx_0
                0x0000000007026440                wario_arm_r_mesh_layer_1_tri_0
                0x0000000007026478                wario_arm_r_mesh_layer_1_vtx_0
                0x0000000007026538                wario_arm_r_skinned_mesh_layer_1_tri_0
                0x0000000007026548                wario_arm_r_skinned_mesh_layer_1_vtx_0
                0x00000000070265d8                wario_fist_l_mesh_layer_1_tri_1
                0x0000000007026628                wario_fist_l_mesh_layer_1_vtx_1
                0x00000000070267b8                wario_fist_l_mesh_layer_1_tri_0
                0x0000000007026800                wario_fist_l_mesh_layer_1_vtx_0
                0x00000000070268a0                wario_fist_l_skinned_mesh_layer_1_tri_0
                0x00000000070268b0                wario_fist_l_skinned_mesh_layer_1_vtx_0
                0x0000000007026900                wario_forearm_l_mesh_layer_1_tri_0
                0x0000000007026938                wario_forearm_l_mesh_layer_1_vtx_0
                0x0000000007026988                wario_forearm_l_skinned_mesh_layer_1_tri_0
                0x0000000007026998                wario_forearm_l_skinned_mesh_layer_1_vtx_0
                0x00000000070269e8                wario_arm_l_mesh_layer_1_tri_0
                0x0000000007026a20                wario_arm_l_mesh_layer_1_vtx_0
                0x0000000007026ae0                wario_arm_l_skinned_mesh_layer_1_tri_0
                0x0000000007026af0                wario_arm_l_skinned_mesh_layer_1_vtx_0
                0x0000000007026b80                wario_Bone_011_mesh_layer_5_tri_0
                0x0000000007026ba8                wario_Bone_011_mesh_layer_5_vtx_0
                0x0000000007026c28                wario_Bone_011_mesh_layer_1_tri_5
                0x0000000007026c58                wario_Bone_011_mesh_layer_1_vtx_5
                0x0000000007026cf8                wario_Bone_011_mesh_layer_1_tri_4
                0x0000000007026dc0                wario_Bone_011_mesh_layer_1_vtx_4
                0x00000000070271c0                wario_Bone_011_mesh_layer_1_tri_3
                0x0000000007027240                wario_Bone_011_mesh_layer_1_vtx_3
                0x00000000070273b0                wario_Bone_011_mesh_layer_1_tri_2
                0x00000000070273e8                wario_Bone_011_mesh_layer_1_vtx_2
                0x00000000070274c8                wario_Bone_011_mesh_layer_1_tri_1
                0x00000000070275d0                wario_Bone_011_mesh_layer_1_vtx_1
                0x0000000007027b90                wario_Bone_011_mesh_layer_1_tri_0
                0x0000000007027c38                wario_Bone_011_mesh_layer_1_vtx_0
                0x0000000007027dc8                wario_Bone_005_mesh_layer_1_tri_2
                0x0000000007027df0                wario_Bone_005_mesh_layer_1_vtx_2
                0x0000000007027e90                wario_Bone_005_mesh_layer_1_tri_1
                0x0000000007027ee0                wario_Bone_005_mesh_layer_1_vtx_1
                0x00000000070280a0                wario_Bone_005_mesh_layer_1_tri_0
                0x0000000007028160                wario_Bone_005_mesh_layer_1_vtx_0
                0x00000000070284a0                wario_face2_ci4_pal_rgba16
                0x00000000070284c0                wario_face2_ci4_pal_rgba16_aligner
                0x00000000070284c8                wario_face2_ci4
                0x0000000007028cc8                wario_face2_ci4_aligner
                0x0000000007028cd0                wario_P_face_ia8
                0x0000000007028ed0                wario_P_face_ia8_aligner
                0x0000000007028ed8                wario_Tex_0048_0_ci8_pal_rgba16
                0x0000000007029060                wario_Tex_0048_0_ci8_pal_rgba16_aligner
                0x0000000007029068                wario_Tex_0048_0_ci8
                0x0000000007029468                wario_Tex_0048_0_ci8_aligner
                0x0000000007029470                wario_brow_ci8_pal_rgba16
                0x00000000070294c0                wario_brow_ci8_pal_rgba16_aligner
                0x00000000070294c8                wario_brow_ci8
                0x0000000007029cc8                wario_brow_ci8_aligner
                0x0000000007029cd0                wario_face_ci4_pal_rgba16
                0x0000000007029cf0                wario_face_ci4_pal_rgba16_aligner
                0x0000000007029cf8                wario_face_ci4
                0x000000000702a4f8                wario_face_ci4_aligner
                0x000000000702a500                wario__04001090_ia8
                0x000000000702a900                wario__04001090_ia8_aligner
                0x000000000702a908                wario_f3d_material_005_lights
                0x000000000702a920                wario_f3d_material_003_lights
                0x000000000702a938                wario_f3d_material_008_lights
                0x000000000702a950                wario_eyesclosed_lights
                0x000000000702a968                wario_f3d_material_009_lights
                0x000000000702a980                wario_f3d_material_lights
                0x000000000702a998                wario_f3d_material_004_lights
                0x000000000702a9b0                wario_f3d_material_007_lights
                0x000000000702a9c8                wario_f3d_material_011_lights
                0x000000000702a9e0                wario_f3d_material_006_lights
                0x000000000702a9f8                wario_f3d_material_010_lights
                0x000000000702aa10                wario_f3d_material_012_lights
                0x000000000702aa28                wario_f3d_material_002_lights
                0x000000000702aa40                wario_f3d_material_001_lights
                0x000000000702aa58                pengucage_collision
                0x000000000702aad8                pengucage_material_revert_render_settings
                0x000000000702ab18                pengucage_Cube_mesh_layer_4
                0x000000000702ab58                mat_revert_pengucage_f3d_material
                0x000000000702ab70                mat_pengucage_f3d_material
                0x000000000702abf0                pengucage_Cube_mesh_layer_4_tri_0
                0x000000000702ac28                pengucage_Cube_mesh_layer_4_vtx_0
                0x000000000702ace8                pengucage_Cube_mesh_layer_4_vtx_cull
                0x000000000702ad68                pengucage_fuyuuAsibaAmiA_ia4
                0x000000000702bd68                pengucage_fuyuuAsibaAmiA_ia4_aligner
                0x000000000702bd70                pengucage_f3d_material_lights
                0x000000000702bd88                wariogate_collision
                0x000000000702bdc0                wariogate_material_revert_render_settings
                0x000000000702be00                wariogate_Plane_004_mesh_layer_4
                0x000000000702be40                mat_revert_wariogate_f3d_material_005
                0x000000000702be60                mat_wariogate_f3d_material_005
                0x000000000702bf18                wariogate_Plane_004_mesh_layer_4_tri_0
                0x000000000702bf30                wariogate_Plane_004_mesh_layer_4_vtx_0
                0x000000000702bf70                wariogate_Plane_004_mesh_layer_4_vtx_cull
                0x000000000702bff0                wariogate_ST_0xD81F8_32x64_RGBA16_ci8_pal_rgba16
                0x000000000702c098                wariogate_ST_0xD81F8_32x64_RGBA16_ci8_pal_rgba16_aligner
                0x000000000702c0a0                wariogate_ST_0xD81F8_32x64_RGBA16_ci8
                0x000000000702c8a0                wariogate_ST_0xD81F8_32x64_RGBA16_ci8_aligner
                0x000000000702c8a8                wariogate_f3d_material_005_lights
                0x000000000702c8c0                waluigi_anims
                0x000000000702f360                waluigi_material_revert_render_settings
                0x000000000702f3a0                waluigi_foot_r_mesh_layer_1
                0x000000000702f3c0                waluigi_foot_r_skinned_mesh_layer_1
                0x000000000702f3d8                waluigi_leg_r_mesh_layer_1
                0x000000000702f3f0                waluigi_leg_r_skinned_mesh_layer_1
                0x000000000702f408                waluigi_thigh_r_mesh_layer_1
                0x000000000702f420                waluigi_foot_l_mesh_layer_1
                0x000000000702f440                waluigi_foot_l_skinned_mesh_layer_1
                0x000000000702f458                waluigi_leg_l_mesh_layer_1
                0x000000000702f470                waluigi_leg_l_skinned_mesh_layer_1
                0x000000000702f488                waluigi_thigh_l_mesh_layer_1
                0x000000000702f4a0                waluigi_fist_r_mesh_layer_1
                0x000000000702f4c0                waluigi_fist_r_skinned_mesh_layer_1
                0x000000000702f4d8                waluigi_arm_r_mesh_layer_1
                0x000000000702f4f8                waluigi_arm_r_skinned_mesh_layer_1
                0x000000000702f510                waluigi_shoulder_r_mesh_layer_1
                0x000000000702f528                waluigi_fist_l_mesh_layer_1
                0x000000000702f548                waluigi_fist_l_skinned_mesh_layer_1
                0x000000000702f560                waluigi_arm_l_mesh_layer_1
                0x000000000702f580                waluigi_arm_l_skinned_mesh_layer_1
                0x000000000702f598                waluigi_shoulder_l_mesh_layer_1
                0x000000000702f5b0                waluigi_Bone_002_mesh_layer_1
                0x000000000702f600                waluigi_Bone_001_mesh_layer_1
                0x000000000702f620                mat_waluigi_f3d_material_002
                0x000000000702f658                mat_waluigi_f3d_material
                0x000000000702f690                mat_waluigi_f3d_material_001
                0x000000000702f6c8                mat_revert_waluigi_img3_png_f3d
                0x000000000702f6e0                mat_waluigi_img3_png_f3d
                0x000000000702f790                mat_revert_waluigi_img2_png_f3d
                0x000000000702f7a8                mat_waluigi_img2_png_f3d
                0x000000000702f858                mat_revert_waluigi_img1_png_f3d
                0x000000000702f870                mat_waluigi_img1_png_f3d
                0x000000000702f920                waluigi_foot_r_mesh_layer_1_tri_1
                0x000000000702f970                waluigi_foot_r_mesh_layer_1_vtx_1
                0x000000000702faa0                waluigi_foot_r_mesh_layer_1_tri_0
                0x000000000702fad0                waluigi_foot_r_mesh_layer_1_vtx_0
                0x000000000702fb10                waluigi_foot_r_skinned_mesh_layer_1_tri_0
                0x000000000702fb20                waluigi_foot_r_skinned_mesh_layer_1_vtx_0
                0x000000000702fb60                waluigi_leg_r_mesh_layer_1_tri_0
                0x000000000702fb90                waluigi_leg_r_mesh_layer_1_vtx_0
                0x000000000702fbd0                waluigi_leg_r_skinned_mesh_layer_1_tri_0
                0x000000000702fbe0                waluigi_leg_r_skinned_mesh_layer_1_vtx_0
                0x000000000702fc20                waluigi_thigh_r_mesh_layer_1_tri_0
                0x000000000702fc40                waluigi_thigh_r_mesh_layer_1_vtx_0
                0x000000000702fc90                waluigi_foot_l_mesh_layer_1_tri_1
                0x000000000702fce0                waluigi_foot_l_mesh_layer_1_vtx_1
                0x000000000702fe10                waluigi_foot_l_mesh_layer_1_tri_0
                0x000000000702fe40                waluigi_foot_l_mesh_layer_1_vtx_0
                0x000000000702fe80                waluigi_foot_l_skinned_mesh_layer_1_tri_0
                0x000000000702fe90                waluigi_foot_l_skinned_mesh_layer_1_vtx_0
                0x000000000702fed0                waluigi_leg_l_mesh_layer_1_tri_0
                0x000000000702ff00                waluigi_leg_l_mesh_layer_1_vtx_0
                0x000000000702ff40                waluigi_leg_l_skinned_mesh_layer_1_tri_0
                0x000000000702ff50                waluigi_leg_l_skinned_mesh_layer_1_vtx_0
                0x000000000702ff90                waluigi_thigh_l_mesh_layer_1_tri_0
                0x000000000702ffb0                waluigi_thigh_l_mesh_layer_1_vtx_0
                0x0000000007030000                waluigi_fist_r_mesh_layer_1_tri_1
                0x0000000007030020                waluigi_fist_r_mesh_layer_1_vtx_1
                0x00000000070300a0                waluigi_fist_r_mesh_layer_1_tri_0
                0x00000000070300d0                waluigi_fist_r_mesh_layer_1_vtx_0
                0x0000000007030130                waluigi_fist_r_skinned_mesh_layer_1_tri_0
                0x0000000007030140                waluigi_fist_r_skinned_mesh_layer_1_vtx_0
                0x00000000070301a0                waluigi_arm_r_mesh_layer_1_tri_1
                0x00000000070301d0                waluigi_arm_r_mesh_layer_1_vtx_1
                0x00000000070302a0                waluigi_arm_r_mesh_layer_1_tri_0
                0x00000000070302d0                waluigi_arm_r_mesh_layer_1_vtx_0
                0x0000000007030310                waluigi_arm_r_skinned_mesh_layer_1_tri_0
                0x0000000007030320                waluigi_arm_r_skinned_mesh_layer_1_vtx_0
                0x0000000007030360                waluigi_shoulder_r_mesh_layer_1_tri_0
                0x0000000007030380                waluigi_shoulder_r_mesh_layer_1_vtx_0
                0x00000000070303d0                waluigi_fist_l_mesh_layer_1_tri_1
                0x00000000070303f0                waluigi_fist_l_mesh_layer_1_vtx_1
                0x0000000007030470                waluigi_fist_l_mesh_layer_1_tri_0
                0x00000000070304a0                waluigi_fist_l_mesh_layer_1_vtx_0
                0x0000000007030500                waluigi_fist_l_skinned_mesh_layer_1_tri_0
                0x0000000007030510                waluigi_fist_l_skinned_mesh_layer_1_vtx_0
                0x0000000007030570                waluigi_arm_l_mesh_layer_1_tri_1
                0x00000000070305a0                waluigi_arm_l_mesh_layer_1_vtx_1
                0x0000000007030670                waluigi_arm_l_mesh_layer_1_tri_0
                0x00000000070306a0                waluigi_arm_l_mesh_layer_1_vtx_0
                0x00000000070306e0                waluigi_arm_l_skinned_mesh_layer_1_tri_0
                0x00000000070306f0                waluigi_arm_l_skinned_mesh_layer_1_vtx_0
                0x0000000007030730                waluigi_shoulder_l_mesh_layer_1_tri_0
                0x0000000007030750                waluigi_shoulder_l_mesh_layer_1_vtx_0
                0x00000000070307a0                waluigi_Bone_002_mesh_layer_1_tri_2
                0x0000000007030828                waluigi_Bone_002_mesh_layer_1_vtx_2
                0x0000000007030a68                waluigi_Bone_002_mesh_layer_1_tri_1
                0x0000000007030b58                waluigi_Bone_002_mesh_layer_1_vtx_1
                0x00000000070311f8                waluigi_Bone_002_mesh_layer_1_tri_0
                0x0000000007031300                waluigi_Bone_002_mesh_layer_1_vtx_0
                0x00000000070318a0                waluigi_Bone_001_mesh_layer_1_tri_0
                0x0000000007031960                waluigi_Bone_001_mesh_layer_1_vtx_0
                0x0000000007031ce0                waluigi_img3_ci4_pal_rgba16
                0x0000000007031d00                waluigi_img3_ci4_pal_rgba16_aligner
                0x0000000007031d08                waluigi_img3_ci4
                0x0000000007032508                waluigi_img3_ci4_aligner
                0x0000000007032510                waluigi_img2_ci4_pal_rgba16
                0x0000000007032530                waluigi_img2_ci4_pal_rgba16_aligner
                0x0000000007032538                waluigi_img2_ci4
                0x0000000007032938                waluigi_img2_ci4_aligner
                0x0000000007032940                waluigi_img1_ci4_pal_rgba16
                0x0000000007032960                waluigi_img1_ci4_pal_rgba16_aligner
                0x0000000007032968                waluigi_img1_ci4
                0x0000000007033168                waluigi_img1_ci4_aligner
                0x0000000007033170                waluigi_f3d_material_002_lights
                0x0000000007033188                waluigi_f3d_material_lights
                0x00000000070331a0                waluigi_f3d_material_001_lights
                0x00000000070331b8                waluigi_img3_png_f3d_lights
                0x00000000070331d0                waluigi_img2_png_f3d_lights
                0x00000000070331e8                waluigi_img1_png_f3d_lights
                0x0000000007033200                wariocar_collision
                0x00000000070333f8                wariocar_material_revert_render_settings
                0x0000000007033438                wariocar_polygon1_mesh_layer_1
                0x0000000007033490                mat_revert_wariocar_kart_tire_f3d
                0x00000000070334a8                mat_wariocar_kart_tire_f3d
                0x0000000007033558                mat_revert_wariocar_kart_body_f3d
                0x0000000007033578                mat_wariocar_kart_body_f3d
                0x0000000007033630                wariocar_polygon1_mesh_layer_1_tri_1
                0x00000000070336e8                wariocar_polygon1_mesh_layer_1_vtx_1
                0x0000000007033d28                wariocar_polygon1_mesh_layer_1_tri_0
                0x0000000007033ea0                wariocar_polygon1_mesh_layer_1_vtx_0
                0x00000000070347f0                wariocar_polygon1_mesh_layer_1_vtx_cull
                0x0000000007034870                wariocar_kart_tire_ci8_pal_rgba16
                0x00000000070348b0                wariocar_kart_tire_ci8_pal_rgba16_aligner
                0x00000000070348b8                wariocar_kart_tire_ci8
                0x00000000070350b8                wariocar_kart_tire_ci8_aligner
                0x00000000070350c0                wariocar_kart_body_ci8_pal_rgba16
                0x0000000007035158                wariocar_kart_body_ci8_pal_rgba16_aligner
                0x0000000007035160                wariocar_kart_body_ci8
                0x0000000007035960                wariocar_kart_body_ci8_aligner
                0x0000000007035968                wariocar_kart_tire_f3d_lights
                0x0000000007035980                wariocar_kart_body_f3d_lights
                0x0000000007035998                pinetreeNew_material_revert_render_settings
                0x00000000070359d8                pinetreeNew_Circle_009_mesh
                0x00000000070359f8                mat_revert_pinetreeNew_sm64_material_004
                0x0000000007035a18                mat_pinetreeNew_sm64_material_004
                0x0000000007035ad0                pinetreeNew_Circle_009_mesh_tri_0
                0x0000000007035ae8                pinetreeNew_Circle_009_mesh_vtx_0
                0x0000000007035b28                pinetreeNew_pine_tree_rgba16_waifu2x_art_scale_tta_1_ci4_pal_rgba16
                0x0000000007035b48                pinetreeNew_pine_tree_rgba16_waifu2x_art_scale_tta_1_ci4_pal_rgba16_aligner
                0x0000000007035b50                pinetreeNew_pine_tree_rgba16_waifu2x_art_scale_tta_1_ci4
                0x0000000007036350                pinetreeNew_pine_tree_rgba16_waifu2x_art_scale_tta_1_ci4_aligner
                0x0000000007036358                pinetreeNew_sm64_material_004_lights
                0x0000000007036370                zoobush2_material_revert_render_settings
                0x00000000070363b0                zoobush2_Circle_009_mesh
                0x00000000070363f0                mat_revert_zoobush2_sm64_material_004
                0x0000000007036410                mat_zoobush2_sm64_material_004
                0x00000000070364c8                zoobush2_Circle_009_mesh_tri_0
                0x00000000070364e0                zoobush2_Circle_009_mesh_vtx_0
                0x0000000007036520                zoobush2_Circle_009_mesh_vtx_cull
                0x00000000070365a0                zoobush2_potted_yucca_plant_ci4_pal_rgba16
                0x00000000070365c0                zoobush2_potted_yucca_plant_ci4_pal_rgba16_aligner
                0x00000000070365c8                zoobush2_potted_yucca_plant_ci4
                0x0000000007036dc8                zoobush2_potted_yucca_plant_ci4_aligner
                0x0000000007036dd0                zoobush2_sm64_material_004_lights
                0x0000000007036de8                zoobush_material_revert_render_settings
                0x0000000007036e28                zoobush_Circle_009_mesh
                0x0000000007036e68                mat_revert_zoobush_sm64_material_004
                0x0000000007036e88                mat_zoobush_sm64_material_004
                0x0000000007036f40                zoobush_Circle_009_mesh_tri_0
                0x0000000007036f58                zoobush_Circle_009_mesh_vtx_0
                0x0000000007036f98                zoobush_Circle_009_mesh_vtx_cull
                0x0000000007037018                zoobush_GrdYorsterGrassF_ci4_pal_rgba16
                0x0000000007037038                zoobush_GrdYorsterGrassF_ci4_pal_rgba16_aligner
                0x0000000007037040                zoobush_GrdYorsterGrassF_ci4
                0x0000000007037440                zoobush_GrdYorsterGrassF_ci4_aligner
                0x0000000007037448                zoobush_sm64_material_004_lights
                0x0000000007037460                tablebroken_collision
                0x0000000007037550                tablebroken_material_revert_render_settings
                0x0000000007037590                tablebroken_Plane_024_mesh_layer_1
                0x00000000070375d0                mat_revert_tablebroken_f3d_material_005
                0x00000000070375f0                mat_tablebroken_f3d_material_005
                0x00000000070376a8                tablebroken_Plane_024_mesh_layer_1_tri_0
                0x0000000007037750                tablebroken_Plane_024_mesh_layer_1_vtx_0
                0x0000000007037a40                tablebroken_Plane_024_mesh_layer_1_vtx_cull
                0x0000000007037ac0                tablebroken_kibako_ci8_pal_rgba16
                0x0000000007037b08                tablebroken_kibako_ci8_pal_rgba16_aligner
                0x0000000007037b10                tablebroken_kibako_ci8
                0x0000000007037f10                tablebroken_kibako_ci8_aligner
                0x0000000007037f18                tablebroken_f3d_material_005_lights
                0x0000000007037f30                table_collision
                0x0000000007037fb0                table_material_revert_render_settings
                0x0000000007037ff0                table_Plane_024_mesh_layer_1
                0x0000000007038030                mat_revert_table_f3d_material_005
                0x0000000007038050                mat_table_f3d_material_005
                0x0000000007038108                table_Plane_024_mesh_layer_1_tri_0
                0x0000000007038190                table_Plane_024_mesh_layer_1_vtx_0
                0x0000000007038440                table_Plane_024_mesh_layer_1_vtx_cull
                0x00000000070384c0                table_kibako_ci8_pal_rgba16
                0x0000000007038508                table_kibako_ci8_pal_rgba16_aligner
                0x0000000007038510                table_kibako_ci8
                0x0000000007038910                table_kibako_ci8_aligner
                0x0000000007038918                table_f3d_material_005_lights
                0x0000000007038930                chompgate_collision
                0x00000000070389b0                chompgate_material_revert_render_settings
                0x00000000070389f0                chompgate_Plane_018_mesh_layer_4
                0x0000000007038a30                mat_revert_chompgate_f3d_material_004
                0x0000000007038a48                mat_chompgate_f3d_material_004
                0x0000000007038ac8                chompgate_Plane_018_mesh_layer_4_tri_0
                0x0000000007038b30                chompgate_Plane_018_mesh_layer_4_vtx_0
                0x0000000007038cf0                chompgate_Plane_018_mesh_layer_4_vtx_cull
                0x0000000007038d70                chompgate_fuyuuAsibaAmiA_ia4
                0x0000000007039d70                chompgate_fuyuuAsibaAmiA_ia4_aligner
                0x0000000007039d78                chompgate_f3d_material_004_lights
                0x0000000007039d90                bosspenguin_anims
                0x000000000703a328                bosspenguin_material_revert_render_settings
                0x000000000703a368                bosspenguin_foot_r_mesh_layer_1
                0x000000000703a380                bosspenguin_foot_l_mesh_layer_1
                0x000000000703a398                bosspenguin_arm_r_mesh_layer_1
                0x000000000703a3b0                bosspenguin_arm_l_mesh_layer_1
                0x000000000703a3c8                bosspenguin_Bone_001_mesh_layer_4
                0x000000000703a3e8                bosspenguin_Bone_001_mesh_layer_1
                0x000000000703a420                bosspenguin_Bone_mesh_layer_1
                0x000000000703a458                mat_revert_bosspenguin_f3d_material_020
                0x000000000703a478                mat_bosspenguin_f3d_material_020
                0x000000000703a530                mat_bosspenguin_f3d_material_006
                0x000000000703a5a8                mat_bosspenguin_f3d_material_010
                0x000000000703a620                mat_bosspenguin_f3d_material_019
                0x000000000703a658                mat_bosspenguin_f3d_material_009
                0x000000000703a6d0                mat_bosspenguin_f3d_material
                0x000000000703a708                bosspenguin_foot_r_mesh_layer_1_tri_0
                0x000000000703a750                bosspenguin_foot_r_mesh_layer_1_vtx_0
                0x000000000703a870                bosspenguin_foot_l_mesh_layer_1_tri_0
                0x000000000703a8b8                bosspenguin_foot_l_mesh_layer_1_vtx_0
                0x000000000703a9d8                bosspenguin_arm_r_mesh_layer_1_tri_0
                0x000000000703aa00                bosspenguin_arm_r_mesh_layer_1_vtx_0
                0x000000000703aa50                bosspenguin_arm_l_mesh_layer_1_tri_0
                0x000000000703aa78                bosspenguin_arm_l_mesh_layer_1_vtx_0
                0x000000000703aac8                bosspenguin_Bone_001_mesh_layer_4_tri_0
                0x000000000703aae8                bosspenguin_Bone_001_mesh_layer_4_vtx_0
                0x000000000703ab68                bosspenguin_Bone_001_mesh_layer_1_tri_2
                0x000000000703ab88                bosspenguin_Bone_001_mesh_layer_1_vtx_2
                0x000000000703ac08                bosspenguin_Bone_001_mesh_layer_1_tri_1
                0x000000000703ac38                bosspenguin_Bone_001_mesh_layer_1_vtx_1
                0x000000000703acd8                bosspenguin_Bone_001_mesh_layer_1_tri_0
                0x000000000703ad40                bosspenguin_Bone_001_mesh_layer_1_vtx_0
                0x000000000703aee0                bosspenguin_Bone_mesh_layer_1_tri_2
                0x000000000703af28                bosspenguin_Bone_mesh_layer_1_vtx_2
                0x000000000703b008                bosspenguin_Bone_mesh_layer_1_tri_1
                0x000000000703b030                bosspenguin_Bone_mesh_layer_1_vtx_1
                0x000000000703b090                bosspenguin_Bone_mesh_layer_1_tri_0
                0x000000000703b0e0                bosspenguin_Bone_mesh_layer_1_vtx_0
                0x000000000703b250                bosspenguin_penguin_hair_v2_by_xpm_ci8_pal_rgba16
                0x000000000703b3d0                bosspenguin_penguin_hair_v2_by_xpm_ci8_pal_rgba16_aligner
                0x000000000703b3d8                bosspenguin_penguin_hair_v2_by_xpm_ci8
                0x000000000703b8d0                bosspenguin_penguin_hair_v2_by_xpm_ci8_aligner
                0x000000000703b8d8                bosspenguin__5E58AD88_c_ia4
                0x000000000703b958                bosspenguin__5E58AD88_c_ia4_aligner
                0x000000000703b960                bosspenguin_istockphoto_1141907495_612x612_ia8
                0x000000000703bd60                bosspenguin_istockphoto_1141907495_612x612_ia8_aligner
                0x000000000703bd68                bosspenguin_belly_ia8
                0x000000000703c568                bosspenguin_belly_ia8_aligner
                0x000000000703c570                bosspenguin_f3d_material_020_lights
                0x000000000703c588                bosspenguin_f3d_material_006_lights
                0x000000000703c5a0                bosspenguin_f3d_material_010_lights
                0x000000000703c5b8                bosspenguin_f3d_material_019_lights
                0x000000000703c5d0                bosspenguin_f3d_material_009_lights
                0x000000000703c5e8                bosspenguin_f3d_material_lights
                0x000000000703c600                smartpenguin_anims
                0x000000000703d5f0                smartpenguin_material_revert_render_settings
                0x000000000703d630                smartpenguin_foot_r_mesh_layer_1
                0x000000000703d648                smartpenguin_foot_l_mesh_layer_1
                0x000000000703d660                smartpenguin_thigh_l_mesh_layer_1
                0x000000000703d680                smartpenguin_flipper_r_mesh_layer_1
                0x000000000703d698                smartpenguin_flipper_l_mesh_layer_1
                0x000000000703d6d0                smartpenguin_Bone_002_mesh_layer_1
                0x000000000703d6e8                smartpenguin_Bone_001_mesh_layer_1
                0x000000000703d720                smartpenguin_Bone_mesh_layer_4
                0x000000000703d740                smartpenguin_Bone_mesh_layer_1
                0x000000000703d758                mat_revert_smartpenguin_f3d_material_018
                0x000000000703d778                mat_smartpenguin_f3d_material_018
                0x000000000703d830                mat_smartpenguin_f3d_material_016
                0x000000000703d868                mat_smartpenguin_f3d_material_015
                0x000000000703d8e0                mat_smartpenguin_f3d_material_006
                0x000000000703d958                mat_smartpenguin_f3d_material_017
                0x000000000703d9d0                mat_smartpenguin_f3d_material
                0x000000000703da08                mat_revert_smartpenguin_f3d_material_014
                0x000000000703da20                mat_smartpenguin_f3d_material_014
                0x000000000703daa0                mat_smartpenguin_f3d_material_009
                0x000000000703db18                smartpenguin_foot_r_mesh_layer_1_tri_0
                0x000000000703db58                smartpenguin_foot_r_mesh_layer_1_vtx_0
                0x000000000703dc68                smartpenguin_foot_l_mesh_layer_1_tri_0
                0x000000000703dca8                smartpenguin_foot_l_mesh_layer_1_vtx_0
                0x000000000703ddb8                smartpenguin_thigh_l_mesh_layer_1_tri_0
                0x000000000703ddf8                smartpenguin_thigh_l_mesh_layer_1_vtx_0
                0x000000000703deb8                smartpenguin_flipper_r_mesh_layer_1_tri_0
                0x000000000703dee0                smartpenguin_flipper_r_mesh_layer_1_vtx_0
                0x000000000703df30                smartpenguin_flipper_l_mesh_layer_1_tri_2
                0x000000000703df80                smartpenguin_flipper_l_mesh_layer_1_vtx_2
                0x000000000703e080                smartpenguin_flipper_l_mesh_layer_1_tri_1
                0x000000000703e0b0                smartpenguin_flipper_l_mesh_layer_1_vtx_1
                0x000000000703e1b0                smartpenguin_flipper_l_mesh_layer_1_tri_0
                0x000000000703e1d8                smartpenguin_flipper_l_mesh_layer_1_vtx_0
                0x000000000703e228                smartpenguin_Bone_002_mesh_layer_1_tri_0
                0x000000000703e250                smartpenguin_Bone_002_mesh_layer_1_vtx_0
                0x000000000703e370                smartpenguin_Bone_001_mesh_layer_1_tri_2
                0x000000000703e390                smartpenguin_Bone_001_mesh_layer_1_vtx_2
                0x000000000703e410                smartpenguin_Bone_001_mesh_layer_1_tri_1
                0x000000000703e458                smartpenguin_Bone_001_mesh_layer_1_vtx_1
                0x000000000703e528                smartpenguin_Bone_001_mesh_layer_1_tri_0
                0x000000000703e578                smartpenguin_Bone_001_mesh_layer_1_vtx_0
                0x000000000703e688                smartpenguin_Bone_mesh_layer_4_tri_0
                0x000000000703e6a0                smartpenguin_Bone_mesh_layer_4_vtx_0
                0x000000000703e6e0                smartpenguin_Bone_mesh_layer_1_tri_0
                0x000000000703e740                smartpenguin_Bone_mesh_layer_1_vtx_0
                0x000000000703e8d0                smartpenguin__267A79D7_c_ci4_pal_rgba16
                0x000000000703e8f0                smartpenguin__267A79D7_c_ci4_pal_rgba16_aligner
                0x000000000703e8f8                smartpenguin__267A79D7_c_ci4
                0x000000000703e978                smartpenguin__267A79D7_c_ci4_aligner
                0x000000000703e980                smartpenguin_Unbenannt_1_i8
                0x000000000703e9c0                smartpenguin_Unbenannt_1_i8_aligner
                0x000000000703e9c8                smartpenguin__5E58AD88_c_ia4
                0x000000000703ea48                smartpenguin__5E58AD88_c_ia4_aligner
                0x000000000703ea50                smartpenguin_Glassesbut_epic_rgba16
                0x000000000703fa50                smartpenguin_Glassesbut_epic_rgba16_aligner
                0x000000000703fa58                smartpenguin_tie_ia8
                0x000000000703fe58                smartpenguin_tie_ia8_aligner
                0x000000000703fe60                smartpenguin_Unbenannt_2221_rgba32
                0x0000000007040e60                smartpenguin_Unbenannt_2221_rgba32_aligner
                0x0000000007040e68                smartpenguin_f3d_material_018_lights
                0x0000000007040e80                smartpenguin_f3d_material_016_lights
                0x0000000007040e98                smartpenguin_f3d_material_015_lights
                0x0000000007040eb0                smartpenguin_f3d_material_006_lights
                0x0000000007040ec8                smartpenguin_f3d_material_017_lights
                0x0000000007040ee0                smartpenguin_f3d_material_lights
                0x0000000007040ef8                smartpenguin_f3d_material_014_lights
                0x0000000007040f10                smartpenguin_f3d_material_009_lights
                0x0000000007040f28                sneakypengu_anims
                0x00000000070439e0                sneakypengu_material_revert_render_settings
                0x0000000007043a20                sneakypengu_foot_r_mesh_layer_1
                0x0000000007043a38                sneakypengu_foot_l_mesh_layer_1
                0x0000000007043a50                sneakypengu_flip_l_mesh_layer_1
                0x0000000007043a68                sneakypengu_flip_r_mesh_layer_1
                0x0000000007043a80                sneakypengu_Bone_002_mesh_layer_4_mat_override_f3d_material_008_0
                0x0000000007043aa0                sneakypengu_Bone_002_mesh_layer_4
                0x0000000007043ac0                sneakypengu_Bone_002_mesh_layer_1_mat_override_f3d_material_008_0
                0x0000000007043b20                sneakypengu_Bone_002_mesh_layer_1
                0x0000000007043b80                sneakypengu_Bone_mesh_layer_1
                0x0000000007043b98                mat_sneakypengu_f3d_material_008
                0x0000000007043c10                mat_revert_sneakypengu_f3d_material_012
                0x0000000007043c28                mat_sneakypengu_f3d_material_012
                0x0000000007043ca8                mat_revert_sneakypengu_f3d_material_011
                0x0000000007043cc0                mat_sneakypengu_f3d_material_011
                0x0000000007043d00                mat_sneakypengu_f3d_material_010
                0x0000000007043d78                mat_sneakypengu_f3d_material_006
                0x0000000007043df0                mat_sneakypengu_f3d_material_013
                0x0000000007043e68                mat_sneakypengu_f3d_material
                0x0000000007043ea0                mat_sneakypengu_f3d_material_009
                0x0000000007043f18                sneakypengu_foot_r_mesh_layer_1_tri_0
                0x0000000007043f60                sneakypengu_foot_r_mesh_layer_1_vtx_0
                0x0000000007044080                sneakypengu_foot_l_mesh_layer_1_tri_0
                0x00000000070440c8                sneakypengu_foot_l_mesh_layer_1_vtx_0
                0x00000000070441e8                sneakypengu_flip_l_mesh_layer_1_tri_0
                0x0000000007044210                sneakypengu_flip_l_mesh_layer_1_vtx_0
                0x0000000007044260                sneakypengu_flip_r_mesh_layer_1_tri_0
                0x0000000007044288                sneakypengu_flip_r_mesh_layer_1_vtx_0
                0x00000000070442d8                sneakypengu_Bone_002_mesh_layer_4_tri_0
                0x00000000070442f0                sneakypengu_Bone_002_mesh_layer_4_vtx_0
                0x0000000007044330                sneakypengu_Bone_002_mesh_layer_1_tri_4
                0x0000000007044370                sneakypengu_Bone_002_mesh_layer_1_vtx_4
                0x0000000007044430                sneakypengu_Bone_002_mesh_layer_1_tri_3
                0x0000000007044468                sneakypengu_Bone_002_mesh_layer_1_vtx_3
                0x0000000007044508                sneakypengu_Bone_002_mesh_layer_1_tri_2
                0x0000000007044528                sneakypengu_Bone_002_mesh_layer_1_vtx_2
                0x00000000070445a8                sneakypengu_Bone_002_mesh_layer_1_tri_1
                0x00000000070445d0                sneakypengu_Bone_002_mesh_layer_1_vtx_1
                0x0000000007044640                sneakypengu_Bone_002_mesh_layer_1_tri_0
                0x0000000007044690                sneakypengu_Bone_002_mesh_layer_1_vtx_0
                0x0000000007044760                sneakypengu_Bone_mesh_layer_1_tri_0
                0x00000000070447c0                sneakypengu_Bone_mesh_layer_1_vtx_0
                0x0000000007044920                sneakypengu_closed_ia8
                0x0000000007045920                sneakypengu_closed_ia8_aligner
                0x0000000007045928                sneakypengu_il_300x300_2447694472_glxv_ia8
                0x0000000007045b28                sneakypengu_il_300x300_2447694472_glxv_ia8_aligner
                0x0000000007045b30                sneakypengu_eye_ia8
                0x0000000007046b30                sneakypengu_eye_ia8_aligner
                0x0000000007046b38                sneakypengu__5E58AD88_c_ia4
                0x0000000007046bb8                sneakypengu__5E58AD88_c_ia4_aligner
                0x0000000007046bc0                sneakypengu_eyepatch_ia8
                0x0000000007047bc0                sneakypengu_eyepatch_ia8_aligner
                0x0000000007047bc8                sneakypengu_Unbenannt_2221_ia8
                0x0000000007048bc8                sneakypengu_Unbenannt_2221_ia8_aligner
                0x0000000007048bd0                sneakypengu_f3d_material_008_lights
                0x0000000007048be8                sneakypengu_f3d_material_012_lights
                0x0000000007048c00                sneakypengu_f3d_material_011_lights
                0x0000000007048c18                sneakypengu_f3d_material_010_lights
                0x0000000007048c30                sneakypengu_f3d_material_006_lights
                0x0000000007048c48                sneakypengu_f3d_material_013_lights
                0x0000000007048c60                sneakypengu_f3d_material_lights
                0x0000000007048c78                sneakypengu_f3d_material_009_lights
                0x0000000007048c90                MusclePengu_anims
                0x000000000704b748                MusclePengu_material_revert_render_settings
                0x000000000704b788                MusclePengu_forearm_r_mesh_layer_1
                0x000000000704b7a8                MusclePengu_forearm_r_skinned_mesh_layer_1
                0x000000000704b7c0                MusclePengu_arm_r_mesh_layer_1
                0x000000000704b7d8                MusclePengu_forearm_l_mesh_layer_1
                0x000000000704b7f8                MusclePengu_forearm_l_skinned_mesh_layer_1
                0x000000000704b810                MusclePengu_arm_l_mesh_layer_1
                0x000000000704b828                MusclePengu_foot_r_mesh_layer_1
                0x000000000704b850                MusclePengu_foot_r_skinned_mesh_layer_1
                0x000000000704b870                MusclePengu_thigh_r_mesh_layer_1
                0x000000000704b888                MusclePengu_thigh_r_skinned_mesh_layer_1
                0x000000000704b8a0                MusclePengu_foot_l_mesh_layer_1
                0x000000000704b8c8                MusclePengu_foot_l_skinned_mesh_layer_1
                0x000000000704b8e8                MusclePengu_thigh_l_mesh_layer_1
                0x000000000704b900                MusclePengu_thigh_l_skinned_mesh_layer_1
                0x000000000704b918                MusclePengu_Bone_008_mesh_layer_4
                0x000000000704b938                MusclePengu_Bone_008_mesh_layer_1
                0x000000000704b978                MusclePengu_Bone_002_mesh_layer_1
                0x000000000704b990                MusclePengu_Bone_002_skinned_mesh_layer_1
                0x000000000704b9a8                MusclePengu_Bone_mesh_layer_1
                0x000000000704b9d0                mat_revert_MusclePengu_f3d_material_007
                0x000000000704b9e8                mat_MusclePengu_f3d_material_007
                0x000000000704ba68                mat_revert_MusclePengu_f3d_material_003
                0x000000000704ba88                mat_MusclePengu_f3d_material_003
                0x000000000704bb40                mat_MusclePengu_f3d_material_006
                0x000000000704bbb8                mat_revert_MusclePengu_f3d_material_005
                0x000000000704bbd0                mat_MusclePengu_f3d_material_005
                0x000000000704bc80                mat_MusclePengu_f3d_material_004
                0x000000000704bcf8                mat_MusclePengu_f3d_material
                0x000000000704bd30                MusclePengu_forearm_r_mesh_layer_1_tri_1
                0x000000000704bd78                MusclePengu_forearm_r_mesh_layer_1_vtx_1
                0x000000000704bea8                MusclePengu_forearm_r_mesh_layer_1_tri_0
                0x000000000704bee8                MusclePengu_forearm_r_mesh_layer_1_vtx_0
                0x000000000704bf58                MusclePengu_forearm_r_skinned_mesh_layer_1_tri_0
                0x000000000704bf68                MusclePengu_forearm_r_skinned_mesh_layer_1_vtx_0
                0x000000000704bfd8                MusclePengu_arm_r_mesh_layer_1_tri_0
                0x000000000704c040                MusclePengu_arm_r_mesh_layer_1_vtx_0
                0x000000000704c1a0                MusclePengu_forearm_l_mesh_layer_1_tri_1
                0x000000000704c1e8                MusclePengu_forearm_l_mesh_layer_1_vtx_1
                0x000000000704c318                MusclePengu_forearm_l_mesh_layer_1_tri_0
                0x000000000704c358                MusclePengu_forearm_l_mesh_layer_1_vtx_0
                0x000000000704c3c8                MusclePengu_forearm_l_skinned_mesh_layer_1_tri_0
                0x000000000704c3d8                MusclePengu_forearm_l_skinned_mesh_layer_1_vtx_0
                0x000000000704c448                MusclePengu_arm_l_mesh_layer_1_tri_0
                0x000000000704c4b0                MusclePengu_arm_l_mesh_layer_1_vtx_0
                0x000000000704c610                MusclePengu_foot_r_mesh_layer_1_tri_1
                0x000000000704c640                MusclePengu_foot_r_mesh_layer_1_vtx_1
                0x000000000704c710                MusclePengu_foot_r_mesh_layer_1_tri_0
                0x000000000704c740                MusclePengu_foot_r_mesh_layer_1_vtx_0
                0x000000000704c780                MusclePengu_foot_r_skinned_mesh_layer_1_tri_0
                0x000000000704c790                MusclePengu_foot_r_skinned_mesh_layer_1_vtx_0
                0x000000000704c7c0                MusclePengu_thigh_r_mesh_layer_1_tri_0
                0x000000000704c7e8                MusclePengu_thigh_r_mesh_layer_1_vtx_0
                0x000000000704c848                MusclePengu_thigh_r_skinned_mesh_layer_1_tri_0
                0x000000000704c858                MusclePengu_thigh_r_skinned_mesh_layer_1_vtx_0
                0x000000000704c8b8                MusclePengu_foot_l_mesh_layer_1_tri_1
                0x000000000704c8e8                MusclePengu_foot_l_mesh_layer_1_vtx_1
                0x000000000704c9b8                MusclePengu_foot_l_mesh_layer_1_tri_0
                0x000000000704c9e8                MusclePengu_foot_l_mesh_layer_1_vtx_0
                0x000000000704ca28                MusclePengu_foot_l_skinned_mesh_layer_1_tri_0
                0x000000000704ca38                MusclePengu_foot_l_skinned_mesh_layer_1_vtx_0
                0x000000000704ca68                MusclePengu_thigh_l_mesh_layer_1_tri_0
                0x000000000704ca90                MusclePengu_thigh_l_mesh_layer_1_vtx_0
                0x000000000704caf0                MusclePengu_thigh_l_skinned_mesh_layer_1_tri_0
                0x000000000704cb00                MusclePengu_thigh_l_skinned_mesh_layer_1_vtx_0
                0x000000000704cb60                MusclePengu_Bone_008_mesh_layer_4_tri_0
                0x000000000704cb90                MusclePengu_Bone_008_mesh_layer_4_vtx_0
                0x000000000704cc30                MusclePengu_Bone_008_mesh_layer_1_tri_2
                0x000000000704cc50                MusclePengu_Bone_008_mesh_layer_1_vtx_2
                0x000000000704ccc0                MusclePengu_Bone_008_mesh_layer_1_tri_1
                0x000000000704cce0                MusclePengu_Bone_008_mesh_layer_1_vtx_1
                0x000000000704cd40                MusclePengu_Bone_008_mesh_layer_1_tri_0
                0x000000000704cdb0                MusclePengu_Bone_008_mesh_layer_1_vtx_0
                0x000000000704cf00                MusclePengu_Bone_002_mesh_layer_1_tri_0
                0x000000000704cf20                MusclePengu_Bone_002_mesh_layer_1_vtx_0
                0x000000000704cf40                MusclePengu_Bone_002_skinned_mesh_layer_1_tri_0
                0x000000000704cf50                MusclePengu_Bone_002_skinned_mesh_layer_1_vtx_0
                0x000000000704cfa0                MusclePengu_Bone_mesh_layer_1_tri_1
                0x000000000704cfe8                MusclePengu_Bone_mesh_layer_1_vtx_1
                0x000000000704d0b8                MusclePengu_Bone_mesh_layer_1_tri_0
                0x000000000704d128                MusclePengu_Bone_mesh_layer_1_vtx_0
                0x000000000704d358                MusclePengu__5E58AD88_c_ia8
                0x000000000704d458                MusclePengu__5E58AD88_c_ia8_aligner
                0x000000000704d460                MusclePengu_yellow_eyebrow__2__ci8_pal_rgba16
                0x000000000704d490                MusclePengu_yellow_eyebrow__2__ci8_pal_rgba16_aligner
                0x000000000704d498                MusclePengu_yellow_eyebrow__2__ci8
                0x000000000704dc98                MusclePengu_yellow_eyebrow__2__ci8_aligner
                0x000000000704dca0                MusclePengu__5E58AD88_c_ia4
                0x000000000704dd20                MusclePengu__5E58AD88_c_ia4_aligner
                0x000000000704dd28                MusclePengu__4FsV07u_ci8_pal_rgba16
                0x000000000704de60                MusclePengu__4FsV07u_ci8_pal_rgba16_aligner
                0x000000000704de68                MusclePengu__4FsV07u_ci8
                0x000000000704e668                MusclePengu__4FsV07u_ci8_aligner
                0x000000000704e670                MusclePengu_pengumuscle_ia8
                0x000000000704ee70                MusclePengu_pengumuscle_ia8_aligner
                0x000000000704ee78                MusclePengu_f3d_material_007_lights
                0x000000000704ee90                MusclePengu_f3d_material_003_lights
                0x000000000704eea8                MusclePengu_f3d_material_006_lights
                0x000000000704eec0                MusclePengu_f3d_material_005_lights
                0x000000000704eed8                MusclePengu_f3d_material_004_lights
                0x000000000704eef0                MusclePengu_f3d_material_lights
                0x000000000704ef08                floatboat_collision
                0x000000000704eff0                floatboat_material_revert_render_settings
                0x000000000704f030                floatboat_waterstill_001_mesh_layer_1
                0x000000000704f070                mat_revert_floatboat_f3d_material_005
                0x000000000704f090                mat_floatboat_f3d_material_005
                0x000000000704f148                floatboat_waterstill_001_mesh_layer_1_tri_0
                0x000000000704f1a8                floatboat_waterstill_001_mesh_layer_1_vtx_0
                0x000000000704f348                floatboat_waterstill_001_mesh_layer_1_vtx_cull
                0x000000000704f3c8                floatboat_BenchFlat_bmp_ci4_pal_rgba16
                0x000000000704f3d8                floatboat_BenchFlat_bmp_ci4_pal_rgba16_aligner
                0x000000000704f3e0                floatboat_BenchFlat_bmp_ci4
                0x000000000704f7e0                floatboat_BenchFlat_bmp_ci4_aligner
                0x000000000704f7e8                floatboat_f3d_material_005_lights
                0x000000000704f800                toybone_material_revert_render_settings
                0x000000000704f840                toybone_shape0_material0_mate_mesh_layer_1
                0x000000000704f880                mat_revert_toybone_material0_bone_0_png_bone_0_png_f3d
                0x000000000704f898                mat_toybone_material0_bone_0_png_bone_0_png_f3d
                0x000000000704f8d8                toybone_shape0_material0_mate_mesh_layer_1_tri_0
                0x000000000704fa10                toybone_shape0_material0_mate_mesh_layer_1_vtx_0
                0x000000000704ff00                toybone_shape0_material0_mate_mesh_layer_1_vtx_cull
                0x000000000704ff80                toybone_material0_bone_0_png_bone_0_png_f3d_lights
                0x000000000704ff98                tireswing_collision
                0x0000000007050048                tireswing_material_revert_render_settings
                0x0000000007050088                tireswing_taiya1_001_mesh_layer_1
                0x00000000070500c0                mat_revert_tireswing_f3d_material_023
                0x00000000070500e0                mat_tireswing_f3d_material_023
                0x0000000007050198                mat_revert_tireswing_taiya_png_f3d
                0x00000000070501b0                mat_tireswing_taiya_png_f3d
                0x0000000007050230                tireswing_taiya1_001_mesh_layer_1_tri_1
                0x00000000070502e0                tireswing_taiya1_001_mesh_layer_1_vtx_1
                0x00000000070504a0                tireswing_taiya1_001_mesh_layer_1_tri_0
                0x0000000007050580                tireswing_taiya1_001_mesh_layer_1_vtx_0
                0x0000000007050960                tireswing_rope_ci8_pal_rgba16
                0x00000000070509a0                tireswing_rope_ci8_pal_rgba16_aligner
                0x00000000070509a8                tireswing_rope_ci8
                0x0000000007050aa8                tireswing_rope_ci8_aligner
                0x0000000007050ab0                tireswing_taiya_i4
                0x0000000007050cb0                tireswing_taiya_i4_aligner
                0x0000000007050cb8                tireswing_f3d_material_023_lights
                0x0000000007050cd0                tireswing_taiya_png_f3d_lights
                0x0000000007050ce8                ccm_dl_material_revert_render_settings
                0x0000000007050d28                ccm_dl_Plane_039_mesh_layer_5
                0x0000000007050d48                ccm_dl_Plane_039_mesh_layer_6
                0x0000000007050d68                ccm_dl_Plane_038_mesh_layer_4
                0x0000000007050d88                ccm_dl_Plane_003_mesh_layer_1
                0x0000000007050df0                ccm_dl_Lava_mesh_layer_1
                0x0000000007050e10                ccm_dl_Cube_mesh_layer_4
                0x0000000007050e48                ccm_dl_Plane_041_mesh_layer_6
                0x0000000007050e68                ccm_dl_Plane_037_mesh
                0x0000000007050ec0                ccm_dl_Plane_037_mesh_layer_1
                0x0000000007051008                ccm_dl_Plane_036_mesh_layer_5
                0x0000000007051040                ccm_dl_Plane_035_mesh_layer_1
                0x0000000007051140                ccm_dl_Plane_034_mesh_layer_5
                0x0000000007051158                ccm_dl_Plane_034_mesh_layer_6
                0x0000000007051170                ccm_dl_Plane_033_mesh_layer_1
                0x00000000070511f8                ccm_dl_Plane_030_mesh_layer_1
                0x0000000007051238                ccm_dl_Plane_030_mesh
                0x00000000070512c0                ccm_dl_Plane_027_mesh_layer_1
                0x0000000007051318                ccm_dl_Plane_025_mesh_layer_1
                0x0000000007051370                ccm_dl_Plane_021_mesh_layer_6
                0x00000000070513b0                ccm_dl_Plane_011_mesh_layer_1
                0x0000000007051498                ccm_dl_Plane_007_mesh_layer_4
                0x00000000070514d0                ccm_dl_Plane_006_mesh_layer_1
                0x00000000070515b8                ccm_dl_Plane_001_mesh_layer_1
                0x00000000070516b8                ccm_dl_museumalphastuff_mesh_layer_4
                0x0000000007051800                ccm_dl_Circle_007_mesh
                0x0000000007051840                ccm_dl_Plane_031_mesh_layer_4
                0x0000000007051880                ccm_dl_Plane_031_mesh_layer_1
                0x00000000070519e0                ccm_dl_Plane_029_mesh_layer_5
                0x0000000007051a20                ccm_dl_Plane_028_mesh_layer_6
                0x0000000007051a40                ccm_dl_Plane_026_mesh_layer_6
                0x0000000007051a80                ccm_dl_Plane_024_mesh_layer_6
                0x0000000007051b50                ccm_dl_Plane_013_mesh_layer_6
                0x0000000007051b90                ccm_dl_Plane_013_mesh_layer_1
                0x0000000007051be8                ccm_dl_Plane_010_mesh_layer_5
                0x0000000007051c28                ccm_dl_Plane_010_mesh
                0x0000000007051c98                ccm_dl_Plane_010_mesh_layer_1
                0x0000000007051de0                ccm_dl_Plane_009_mesh_layer_4
                0x0000000007051e38                ccm_dl_Plane_009_mesh_layer_1
                0x0000000007051f80                ccm_dl_Plane_009_mesh_layer_5
                0x0000000007051fc0                ccm_dl_Plane_004_mesh_layer_4
                0x0000000007052000                ccm_dl_Plane_004_mesh_layer_1
                0x0000000007052148                ccm_dl_Cube_002_mesh_layer_1
                0x0000000007052188                ccm_dl_Circle_002_mesh_layer_4
                0x00000000070521c8                ccm_dl_AnimtedMice_mesh_layer_1
                0x00000000070521e8                ccm_dl_ZZZZZZZZZZZZZMAINFLOOR_mesh_layer_4
                0x0000000007052208                ccm_dl_ZZZZZZZZZZZZZMAINFLOOR_mesh_layer_1
                0x0000000007052318                ccm_dl_ZZZZWATERFALL_mesh_layer_6
                0x0000000007052338                ccm_dl_ZZZZWATERFALL_mesh_layer_5
                0x0000000007052370                ccm_dl_zzzzpLANENOTCONVEX_mesh_layer_1
                0x0000000007052390                ccm_dl_zzzzpLANECONVEXNOZBUFFER_mesh_layer_0
                0x00000000070523b0                ccm_dl_ZAAAAAAAAAChompCage_mesh_layer_1
                0x0000000007052508                ccm_dl_waterstill_mesh_layer_5
                0x0000000007052540                ccm_dl_WaterAnimation_mesh_layer_5
                0x0000000007052560                ccm_dl_Plane_008_mesh_layer_1
                0x00000000070525e8                ccm_dl_n14b8_001_mesh_layer_1
                0x0000000007052628                ccm_dl_BackGround_mesh_layer_0
                0x0000000007052660                ccm_dl_AWarioHouse_mesh_layer_1
                0x0000000007052700                ccm_dl_AStones_mesh_layer_4
                0x0000000007052740                ccm_dl_AStones_mesh_layer_1
                0x00000000070527b0                ccm_dl_AAAAAAAAAGras_002_mesh_layer_4
                0x00000000070528a8                ccm_dl_AAAAAAAAAGras_001_mesh_layer_1
                0x0000000007052a08                ccm_dl_AAAAAAAAAGoombaCage_001_mesh_layer_6
                0x0000000007052a70                ccm_dl_AAAAAAAAAGoombaCage_mesh_layer_1
                0x0000000007052ba0                ccm_dl_AAAAAAAAAAAAAAAAAAAAAAAZipLine_003_mesh_layer_1
                0x0000000007052d00                ccm_dl_AAAAAAAAAAAAAAAAAAAAAAAZipLine_002_mesh_layer_1
                0x0000000007052d88                mat_revert_ccm_dl_f3d_material_196
                0x0000000007052da8                mat_ccm_dl_f3d_material_196
                0x0000000007052e30                mat_revert_ccm_dl_f3d_material_199
                0x0000000007052e50                mat_ccm_dl_f3d_material_199
                0x0000000007052ed8                mat_revert_ccm_dl_f3d_material_200
                0x0000000007052ef0                mat_ccm_dl_f3d_material_200
                0x0000000007052f70                mat_revert_ccm_dl_f3d_material_197
                0x0000000007052f90                mat_ccm_dl_f3d_material_197
                0x0000000007053018                mat_revert_ccm_dl_f3d_material_194
                0x0000000007053038                mat_ccm_dl_f3d_material_194
                0x00000000070530c0                mat_revert_ccm_dl_f3d_material_195
                0x00000000070530e0                mat_ccm_dl_f3d_material_195
                0x0000000007053168                mat_revert_ccm_dl_LAVA
                0x0000000007053180                mat_ccm_dl_LAVA
                0x0000000007053200                mat_revert_ccm_dl_f3d_material_201
                0x0000000007053220                mat_ccm_dl_f3d_material_201
                0x00000000070532a8                mat_revert_ccm_dl_f3d_material_202
                0x00000000070532c0                mat_ccm_dl_f3d_material_202
                0x0000000007053340                mat_revert_ccm_dl_f3d_material_206
                0x0000000007053358                mat_ccm_dl_f3d_material_206
                0x00000000070533d8                mat_revert_ccm_dl_f3d_material_182
                0x00000000070533f8                mat_ccm_dl_f3d_material_182
                0x00000000070534b0                mat_revert_ccm_dl_f3d_material_180
                0x00000000070534d0                mat_ccm_dl_f3d_material_180
                0x0000000007053588                mat_revert_ccm_dl_f3d_material_043
                0x00000000070535a8                mat_ccm_dl_f3d_material_043
                0x0000000007053660                mat_revert_ccm_dl_f3d_material_023
                0x0000000007053680                mat_ccm_dl_f3d_material_023
                0x0000000007053738                mat_revert_ccm_dl_f3d_material_169
                0x0000000007053750                mat_ccm_dl_f3d_material_169
                0x00000000070537d0                mat_revert_ccm_dl_f3d_material_158
                0x00000000070537e8                mat_ccm_dl_f3d_material_158
                0x0000000007053868                mat_revert_ccm_dl_f3d_material_153
                0x0000000007053888                mat_ccm_dl_f3d_material_153
                0x0000000007053940                mat_revert_ccm_dl_f3d_material_177
                0x0000000007053958                mat_ccm_dl_f3d_material_177
                0x00000000070539d8                mat_revert_ccm_dl_sm64_material_007
                0x00000000070539f8                mat_ccm_dl_sm64_material_007
                0x0000000007053ab0                mat_revert_ccm_dl_sm64_material_002
                0x0000000007053ad0                mat_ccm_dl_sm64_material_002
                0x0000000007053b88                mat_revert_ccm_dl_f3d_material_151
                0x0000000007053ba8                mat_ccm_dl_f3d_material_151
                0x0000000007053c60                mat_revert_ccm_dl_f3d_material_179
                0x0000000007053c78                mat_ccm_dl_f3d_material_179
                0x0000000007053cf8                mat_revert_ccm_dl_f3d_material_178
                0x0000000007053d10                mat_ccm_dl_f3d_material_178
                0x0000000007053d90                mat_revert_ccm_dl_f3d_material_193
                0x0000000007053da8                mat_ccm_dl_f3d_material_193
                0x0000000007053e28                mat_revert_ccm_dl_f3d_material_150
                0x0000000007053e48                mat_ccm_dl_f3d_material_150
                0x0000000007053f08                mat_revert_ccm_dl_f3d_material_188
                0x0000000007053f28                mat_ccm_dl_f3d_material_188
                0x0000000007053fe0                mat_revert_ccm_dl_f3d_material_155
                0x0000000007053ff8                mat_ccm_dl_f3d_material_155
                0x0000000007054078                mat_revert_ccm_dl_f3d_material_152
                0x0000000007054090                mat_ccm_dl_f3d_material_152
                0x0000000007054110                mat_revert_ccm_dl_f3d_material_161
                0x0000000007054130                mat_ccm_dl_f3d_material_161
                0x00000000070541e8                mat_revert_ccm_dl_f3d_material_154
                0x0000000007054200                mat_ccm_dl_f3d_material_154
                0x0000000007054280                mat_ccm_dl_GLASBACK
                0x00000000070542c0                mat_ccm_dl_GLASFRONT
                0x0000000007054300                mat_revert_ccm_dl_VMtl046_f3d_v4
                0x0000000007054320                mat_ccm_dl_VMtl046_f3d_v4
                0x00000000070543d8                mat_revert_ccm_dl_VMtl040_f3d_v4
                0x00000000070543f8                mat_ccm_dl_VMtl040_f3d_v4
                0x00000000070544b0                mat_revert_ccm_dl_VMtl043_f3d_v4
                0x00000000070544d0                mat_ccm_dl_VMtl043_f3d_v4
                0x0000000007054588                mat_revert_ccm_dl_VMtl047_f3d_v4
                0x00000000070545a8                mat_ccm_dl_VMtl047_f3d_v4
                0x0000000007054660                mat_revert_ccm_dl_sm64_material_005
                0x0000000007054678                mat_ccm_dl_sm64_material_005
                0x00000000070546f8                mat_revert_ccm_dl_sm64_material_004
                0x0000000007054718                mat_ccm_dl_sm64_material_004
                0x00000000070547d0                mat_revert_ccm_dl_sm64_material_003
                0x00000000070547e8                mat_ccm_dl_sm64_material_003
                0x0000000007054868                mat_revert_ccm_dl_sm64_material_006
                0x0000000007054888                mat_ccm_dl_sm64_material_006
                0x0000000007054940                mat_revert_ccm_dl_f3d_material_001
                0x0000000007054960                mat_ccm_dl_f3d_material_001
                0x0000000007054a18                mat_revert_ccm_dl_f3d_material_005
                0x0000000007054a38                mat_ccm_dl_f3d_material_005
                0x0000000007054ad8                mat_revert_ccm_dl_f3d_material_181
                0x0000000007054af8                mat_ccm_dl_f3d_material_181
                0x0000000007054bb0                mat_revert_ccm_dl_mesh0115mat_f3d
                0x0000000007054bd0                mat_ccm_dl_mesh0115mat_f3d
                0x0000000007054c88                mat_revert_ccm_dl_WATERRIPPLE_layer6
                0x0000000007054cb0                mat_ccm_dl_WATERRIPPLE_layer6
                0x0000000007054d80                mat_revert_ccm_dl_trasurechest_chest_f3d
                0x0000000007054d98                mat_ccm_dl_trasurechest_chest_f3d
                0x0000000007054e48                mat_revert_ccm_dl_treasurechest_lock_f3d
                0x0000000007054e60                mat_ccm_dl_treasurechest_lock_f3d
                0x0000000007054f10                mat_revert_ccm_dl_f3d_material_167
                0x0000000007054f30                mat_ccm_dl_f3d_material_167
                0x0000000007054fe8                mat_revert_ccm_dl_f3d_material_168
                0x0000000007055008                mat_ccm_dl_f3d_material_168
                0x00000000070550c0                mat_revert_ccm_dl_f3d_material_166
                0x00000000070550e0                mat_ccm_dl_f3d_material_166
                0x0000000007055198                mat_revert_ccm_dl_f3d_material_165
                0x00000000070551b8                mat_ccm_dl_f3d_material_165
                0x0000000007055270                mat_revert_ccm_dl_f3d_material_164
                0x0000000007055288                mat_ccm_dl_f3d_material_164
                0x0000000007055308                mat_revert_ccm_dl_f3d_material_189
                0x0000000007055320                mat_ccm_dl_f3d_material_189
                0x00000000070553a0                mat_revert_ccm_dl_f3d_material_186
                0x00000000070553b8                mat_ccm_dl_f3d_material_186
                0x0000000007055438                mat_revert_ccm_dl_f3d_material_190
                0x0000000007055458                mat_ccm_dl_f3d_material_190
                0x0000000007055510                mat_revert_ccm_dl_f3d_material_187
                0x0000000007055530                mat_ccm_dl_f3d_material_187
                0x00000000070555e8                mat_revert_ccm_dl_f3d_material_185
                0x0000000007055608                mat_ccm_dl_f3d_material_185
                0x00000000070556c0                mat_revert_ccm_dl_f3d_material_184
                0x00000000070556e0                mat_ccm_dl_f3d_material_184
                0x0000000007055798                mat_revert_ccm_dl_f3d_material_183
                0x00000000070557b8                mat_ccm_dl_f3d_material_183
                0x0000000007055870                mat_revert_ccm_dl_f3d_material_149_layer1
                0x0000000007055898                mat_ccm_dl_f3d_material_149_layer1
                0x0000000007055968                mat_revert_ccm_dl_f3d_material_148
                0x0000000007055988                mat_ccm_dl_f3d_material_148
                0x0000000007055a40                mat_revert_ccm_dl_f3d_material_191
                0x0000000007055a58                mat_ccm_dl_f3d_material_191
                0x0000000007055ad8                mat_revert_ccm_dl_f3d_material_192
                0x0000000007055af0                mat_ccm_dl_f3d_material_192
                0x0000000007055b70                mat_revert_ccm_dl_f3d_material_156
                0x0000000007055b88                mat_ccm_dl_f3d_material_156
                0x0000000007055c08                mat_revert_ccm_dl_f3d_material_147
                0x0000000007055c20                mat_ccm_dl_f3d_material_147
                0x0000000007055ca0                mat_revert_ccm_dl_f3d_material_160
                0x0000000007055cc0                mat_ccm_dl_f3d_material_160
                0x0000000007055d78                mat_revert_ccm_dl_f3d_material_162
                0x0000000007055d98                mat_ccm_dl_f3d_material_162
                0x0000000007055e50                mat_revert_ccm_dl_woodbugged
                0x0000000007055e70                mat_ccm_dl_woodbugged
                0x0000000007055f28                mat_revert_ccm_dl_f3d_material_163
                0x0000000007055f48                mat_ccm_dl_f3d_material_163
                0x0000000007056000                mat_revert_ccm_dl_f3d_material_159
                0x0000000007056018                mat_ccm_dl_f3d_material_159
                0x0000000007056098                mat_revert_ccm_dl_f3d_material_146
                0x00000000070560b8                mat_ccm_dl_f3d_material_146
                0x0000000007056170                mat_revert_ccm_dl_f3d_material_176
                0x0000000007056188                mat_ccm_dl_f3d_material_176
                0x00000000070561c8                mat_revert_ccm_dl_f3d_material_175
                0x00000000070561e8                mat_ccm_dl_f3d_material_175
                0x00000000070562a0                mat_revert_ccm_dl_f3d_material_174
                0x00000000070562b8                mat_ccm_dl_f3d_material_174
                0x0000000007056338                mat_revert_ccm_dl_f3d_material_173
                0x0000000007056350                mat_ccm_dl_f3d_material_173
                0x00000000070563d0                mat_revert_ccm_dl_f3d_material_172
                0x00000000070563e8                mat_ccm_dl_f3d_material_172
                0x0000000007056468                mat_revert_ccm_dl_f3d_material_171
                0x0000000007056480                mat_ccm_dl_f3d_material_171
                0x0000000007056500                mat_revert_ccm_dl_f3d_material_170
                0x0000000007056518                mat_ccm_dl_f3d_material_170
                0x0000000007056598                mat_revert_ccm_dl_f3d_material_004
                0x00000000070565b8                mat_ccm_dl_f3d_material_004
                0x0000000007056670                mat_revert_ccm_dl_VMtl073_f3d_v4
                0x0000000007056690                mat_ccm_dl_VMtl073_f3d_v4
                0x0000000007056748                mat_revert_ccm_dl_VMtl074_f3d_v4
                0x0000000007056768                mat_ccm_dl_VMtl074_f3d_v4
                0x0000000007056820                mat_revert_ccm_dl_f3d_material_055
                0x0000000007056838                mat_ccm_dl_f3d_material_055
                0x00000000070568b8                mat_revert_ccm_dl_sm64_material_001
                0x00000000070568d0                mat_ccm_dl_sm64_material_001
                0x0000000007056950                mat_revert_ccm_dl_f3d_material_132
                0x0000000007056970                mat_ccm_dl_f3d_material_132
                0x0000000007056a28                mat_revert_ccm_dl_f3d_material_128
                0x0000000007056a40                mat_ccm_dl_f3d_material_128
                0x0000000007056ac0                mat_revert_ccm_dl_f3d_material_127
                0x0000000007056ad8                mat_ccm_dl_f3d_material_127
                0x0000000007056b58                mat_revert_ccm_dl_f3d_material_122
                0x0000000007056b70                mat_ccm_dl_f3d_material_122
                0x0000000007056bf0                mat_revert_ccm_dl_f3d_material_120
                0x0000000007056c08                mat_ccm_dl_f3d_material_120
                0x0000000007056c88                mat_revert_ccm_dl_f3d_material_129
                0x0000000007056ca0                mat_ccm_dl_f3d_material_129
                0x0000000007056d20                mat_revert_ccm_dl_f3d_material_121
                0x0000000007056d38                mat_ccm_dl_f3d_material_121
                0x0000000007056db8                mat_revert_ccm_dl_f3d_material_130
                0x0000000007056dd8                mat_ccm_dl_f3d_material_130
                0x0000000007056e90                mat_revert_ccm_dl_f3d_material_123
                0x0000000007056eb0                mat_ccm_dl_f3d_material_123
                0x0000000007056f68                mat_revert_ccm_dl_f3d_material_125
                0x0000000007056f80                mat_ccm_dl_f3d_material_125
                0x0000000007057000                mat_revert_ccm_dl_f3d_material_117
                0x0000000007057020                mat_ccm_dl_f3d_material_117
                0x00000000070570d8                mat_revert_ccm_dl_f3d_material_119
                0x00000000070570f8                mat_ccm_dl_f3d_material_119
                0x00000000070571b0                mat_revert_ccm_dl_f3d_material_118
                0x00000000070571c8                mat_ccm_dl_f3d_material_118
                0x0000000007057248                mat_revert_ccm_dl_f3d_material_126
                0x0000000007057260                mat_ccm_dl_f3d_material_126
                0x00000000070572d0                mat_revert_ccm_dl_f3d_material_139
                0x00000000070572f0                mat_ccm_dl_f3d_material_139
                0x00000000070573a8                mat_revert_ccm_dl_f3d_material_113
                0x00000000070573c0                mat_ccm_dl_f3d_material_113
                0x0000000007057440                mat_revert_ccm_dl_f3d_material_099
                0x0000000007057460                mat_ccm_dl_f3d_material_099
                0x0000000007057518                mat_revert_ccm_dl_f3d_material_106
                0x0000000007057530                mat_ccm_dl_f3d_material_106
                0x00000000070575b0                mat_revert_ccm_dl_f3d_material_103
                0x00000000070575c8                mat_ccm_dl_f3d_material_103
                0x0000000007057648                mat_revert_ccm_dl_f3d_material_098
                0x0000000007057660                mat_ccm_dl_f3d_material_098
                0x00000000070576e0                mat_revert_ccm_dl_f3d_material_096
                0x00000000070576f8                mat_ccm_dl_f3d_material_096
                0x0000000007057778                mat_revert_ccm_dl_f3d_material_094
                0x0000000007057790                mat_ccm_dl_f3d_material_094
                0x0000000007057810                mat_revert_ccm_dl_f3d_material_101
                0x0000000007057828                mat_ccm_dl_f3d_material_101
                0x00000000070578a8                mat_revert_ccm_dl_f3d_material_100
                0x00000000070578c0                mat_ccm_dl_f3d_material_100
                0x0000000007057940                mat_revert_ccm_dl_f3d_material_097
                0x0000000007057960                mat_ccm_dl_f3d_material_097
                0x0000000007057a18                mat_revert_ccm_dl_f3d_material_141
                0x0000000007057a30                mat_ccm_dl_f3d_material_141
                0x0000000007057ab0                mat_revert_ccm_dl_f3d_material_140
                0x0000000007057ad0                mat_ccm_dl_f3d_material_140
                0x0000000007057b88                mat_revert_ccm_dl_f3d_material_137
                0x0000000007057ba0                mat_ccm_dl_f3d_material_137
                0x0000000007057c20                mat_revert_ccm_dl_f3d_material_138
                0x0000000007057c40                mat_ccm_dl_f3d_material_138
                0x0000000007057cf8                mat_revert_ccm_dl_sm64_material_071_v3
                0x0000000007057d10                mat_ccm_dl_sm64_material_071_v3
                0x0000000007057d80                mat_revert_ccm_dl_actualCake_SG_f3d_v3
                0x0000000007057da0                mat_ccm_dl_actualCake_SG_f3d_v3
                0x0000000007057e58                mat_revert_ccm_dl_cherryXstrawberry_SG_f3d_v3
                0x0000000007057e78                mat_ccm_dl_cherryXstrawberry_SG_f3d_v3
                0x0000000007057f30                mat_revert_ccm_dl_f3d_material_135
                0x0000000007057f50                mat_ccm_dl_f3d_material_135
                0x0000000007058008                mat_revert_ccm_dl_f3d_material_134
                0x0000000007058028                mat_ccm_dl_f3d_material_134
                0x00000000070580e0                mat_revert_ccm_dl_f3d_material_133
                0x0000000007058100                mat_ccm_dl_f3d_material_133
                0x00000000070581b8                mat_revert_ccm_dl_f3d_material_084
                0x00000000070581d8                mat_ccm_dl_f3d_material_084
                0x0000000007058290                mat_revert_ccm_dl_f3d_material_083
                0x00000000070582b0                mat_ccm_dl_f3d_material_083
                0x0000000007058368                mat_revert_ccm_dl_chair_seat_f3d
                0x0000000007058380                mat_ccm_dl_chair_seat_f3d
                0x0000000007058400                mat_revert_ccm_dl_chair_wood_f3d
                0x0000000007058420                mat_ccm_dl_chair_wood_f3d
                0x00000000070584d8                mat_revert_ccm_dl_f3d_material_081
                0x00000000070584f8                mat_ccm_dl_f3d_material_081
                0x00000000070585b0                mat_revert_ccm_dl_f3d_material_082
                0x00000000070585d0                mat_ccm_dl_f3d_material_082
                0x0000000007058688                mat_revert_ccm_dl_mesh0219mat_f3d
                0x00000000070586a0                mat_ccm_dl_mesh0219mat_f3d
                0x00000000070586c8                mat_revert_ccm_dl_mesh0218mat_f3d
                0x00000000070586e8                mat_ccm_dl_mesh0218mat_f3d
                0x00000000070587a0                mat_revert_ccm_dl_f3d_material_142
                0x00000000070587c0                mat_ccm_dl_f3d_material_142
                0x0000000007058878                mat_revert_ccm_dl_f3d_material_093
                0x0000000007058898                mat_ccm_dl_f3d_material_093
                0x0000000007058950                mat_revert_ccm_dl_f3d_material_088
                0x0000000007058968                mat_ccm_dl_f3d_material_088
                0x00000000070589e8                mat_revert_ccm_dl_f3d_material_090
                0x0000000007058a08                mat_ccm_dl_f3d_material_090
                0x0000000007058ac0                mat_revert_ccm_dl_f3d_material_089
                0x0000000007058ae0                mat_ccm_dl_f3d_material_089
                0x0000000007058b98                mat_revert_ccm_dl_f3d_material_086
                0x0000000007058bb8                mat_ccm_dl_f3d_material_086
                0x0000000007058c70                mat_revert_ccm_dl_f3d_material_087
                0x0000000007058c88                mat_ccm_dl_f3d_material_087
                0x0000000007058d08                mat_revert_ccm_dl_f3d_material_091
                0x0000000007058d20                mat_ccm_dl_f3d_material_091
                0x0000000007058da0                mat_revert_ccm_dl_f3d_material_080
                0x0000000007058db8                mat_ccm_dl_f3d_material_080
                0x0000000007058e38                mat_revert_ccm_dl_f3d_material_085
                0x0000000007058e58                mat_ccm_dl_f3d_material_085
                0x0000000007058f10                mat_revert_ccm_dl_f3d_material_111
                0x0000000007058f28                mat_ccm_dl_f3d_material_111
                0x0000000007058fa8                mat_revert_ccm_dl_f3d_material_115
                0x0000000007058fc0                mat_ccm_dl_f3d_material_115
                0x0000000007059040                mat_revert_ccm_dl_f3d_material_102
                0x0000000007059060                mat_ccm_dl_f3d_material_102
                0x0000000007059118                mat_revert_ccm_dl_f3d_material_092
                0x0000000007059138                mat_ccm_dl_f3d_material_092
                0x00000000070591f0                mat_revert_ccm_dl_f3d_material_104
                0x0000000007059210                mat_ccm_dl_f3d_material_104
                0x00000000070592c8                mat_revert_ccm_dl_f3d_material_105
                0x00000000070592e0                mat_ccm_dl_f3d_material_105
                0x0000000007059360                mat_revert_ccm_dl_f3d_material_114
                0x0000000007059380                mat_ccm_dl_f3d_material_114
                0x0000000007059438                mat_revert_ccm_dl_f3d_material_112
                0x0000000007059450                mat_ccm_dl_f3d_material_112
                0x00000000070594d0                mat_revert_ccm_dl_f3d_material_110
                0x00000000070594e8                mat_ccm_dl_f3d_material_110
                0x0000000007059568                mat_revert_ccm_dl_f3d_material_109
                0x0000000007059580                mat_ccm_dl_f3d_material_109
                0x0000000007059600                mat_revert_ccm_dl_f3d_material_136
                0x0000000007059618                mat_ccm_dl_f3d_material_136
                0x0000000007059698                mat_revert_ccm_dl_f3d_material_107
                0x00000000070596b0                mat_ccm_dl_f3d_material_107
                0x0000000007059738                mat_revert_ccm_dl_f3d_material_095
                0x0000000007059750                mat_ccm_dl_f3d_material_095
                0x00000000070597d0                mat_revert_ccm_dl_f3d_material_116
                0x00000000070597e8                mat_ccm_dl_f3d_material_116
                0x0000000007059868                mat_revert_ccm_dl_f3d_material_131
                0x0000000007059888                mat_ccm_dl_f3d_material_131
                0x0000000007059940                mat_revert_ccm_dl_f3d_material_010
                0x0000000007059960                mat_ccm_dl_f3d_material_010
                0x0000000007059a18                mat_revert_ccm_dl_f3d_material_067
                0x0000000007059a38                mat_ccm_dl_f3d_material_067
                0x0000000007059af0                mat_revert_ccm_dl_AF9Water
                0x0000000007059b10                mat_ccm_dl_AF9Water
                0x0000000007059bc8                mat_revert_ccm_dl_f3d_material_012
                0x0000000007059be0                mat_ccm_dl_f3d_material_012
                0x0000000007059c60                mat_revert_ccm_dl_f3d_material_070
                0x0000000007059c80                mat_ccm_dl_f3d_material_070
                0x0000000007059d38                mat_revert_ccm_dl_ZZFloor
                0x0000000007059d50                mat_ccm_dl_ZZFloor
                0x0000000007059dd0                mat_revert_ccm_dl_f3d_material_021
                0x0000000007059de8                mat_ccm_dl_f3d_material_021
                0x0000000007059e68                mat_revert_ccm_dl_f3d_material_020
                0x0000000007059e80                mat_ccm_dl_f3d_material_020
                0x0000000007059f00                mat_revert_ccm_dl_f3d_material_019
                0x0000000007059f20                mat_ccm_dl_f3d_material_019
                0x0000000007059fd8                mat_revert_ccm_dl_multitexwithZ_layer1
                0x000000000705a000                mat_ccm_dl_multitexwithZ_layer1
                0x000000000705a0d0                mat_revert_ccm_dl_multitexnoZ_layer0
                0x000000000705a0f8                mat_ccm_dl_multitexnoZ_layer0
                0x000000000705a1c8                mat_revert_ccm_dl_f3d_material_045
                0x000000000705a1e8                mat_ccm_dl_f3d_material_045
                0x000000000705a2a0                mat_revert_ccm_dl_f3d_material_044
                0x000000000705a2c0                mat_ccm_dl_f3d_material_044
                0x000000000705a378                mat_ccm_dl_f3d_material_040
                0x000000000705a3f0                mat_revert_ccm_dl_initialShadingGroup_f3d
                0x000000000705a408                mat_ccm_dl_initialShadingGroup_f3d
                0x000000000705a488                mat_revert_ccm_dl_f3d_material_039
                0x000000000705a4a8                mat_ccm_dl_f3d_material_039
                0x000000000705a560                mat_revert_ccm_dl_f3d_material_038
                0x000000000705a580                mat_ccm_dl_f3d_material_038
                0x000000000705a638                mat_revert_ccm_dl_f3d_material_037
                0x000000000705a658                mat_ccm_dl_f3d_material_037
                0x000000000705a710                mat_revert_ccm_dl_f3d_material_036
                0x000000000705a730                mat_ccm_dl_f3d_material_036
                0x000000000705a7e8                mat_revert_ccm_dl_f3d_material_062
                0x000000000705a808                mat_ccm_dl_f3d_material_062
                0x000000000705a8c0                mat_revert_ccm_dl_f3d_material_033
                0x000000000705a8e0                mat_ccm_dl_f3d_material_033
                0x000000000705a998                mat_revert_ccm_dl_ZOOWATER_layer5
                0x000000000705a9c0                mat_ccm_dl_ZOOWATER_layer5
                0x000000000705aa90                mat_revert_ccm_dl_f3d_material_032
                0x000000000705aab0                mat_ccm_dl_f3d_material_032
                0x000000000705ab68                mat_revert_ccm_dl_f3d_material_047
                0x000000000705ab88                mat_ccm_dl_f3d_material_047
                0x000000000705ac40                mat_revert_ccm_dl_f3d_material_006
                0x000000000705ac60                mat_ccm_dl_f3d_material_006
                0x000000000705ad18                mat_revert_ccm_dl_ZF8Water
                0x000000000705ad38                mat_ccm_dl_ZF8Water
                0x000000000705adf0                mat_revert_ccm_dl_m0_f3d
                0x000000000705ae10                mat_ccm_dl_m0_f3d
                0x000000000705aec8                mat_revert_ccm_dl_f3d_material_015_layer0
                0x000000000705aee8                mat_ccm_dl_f3d_material_015_layer0
                0x000000000705af30                mat_revert_ccm_dl_f3d_material_014_layer0
                0x000000000705af50                mat_ccm_dl_f3d_material_014_layer0
                0x000000000705af80                mat_revert_ccm_dl_f3d_material_079
                0x000000000705af98                mat_ccm_dl_f3d_material_079
                0x000000000705afd8                mat_revert_ccm_dl_f3d_material_078
                0x000000000705aff0                mat_ccm_dl_f3d_material_078
                0x000000000705b030                mat_revert_ccm_dl_f3d_material_011
                0x000000000705b050                mat_ccm_dl_f3d_material_011
                0x000000000705b108                mat_revert_ccm_dl_f3d_material_076
                0x000000000705b120                mat_ccm_dl_f3d_material_076
                0x000000000705b1a0                mat_revert_ccm_dl_f3d_material_075
                0x000000000705b1c0                mat_ccm_dl_f3d_material_075
                0x000000000705b278                mat_revert_ccm_dl_f3d_material_073
                0x000000000705b290                mat_ccm_dl_f3d_material_073
                0x000000000705b2d0                mat_revert_ccm_dl_f3d_material_065
                0x000000000705b2e8                mat_ccm_dl_f3d_material_065
                0x000000000705b368                mat_revert_ccm_dl_f3d_material_063
                0x000000000705b388                mat_ccm_dl_f3d_material_063
                0x000000000705b440                mat_revert_ccm_dl_f3d_material_314
                0x000000000705b458                mat_ccm_dl_f3d_material_314
                0x000000000705b4d8                mat_revert_ccm_dl_f3d_material_312
                0x000000000705b4f0                mat_ccm_dl_f3d_material_312
                0x000000000705b570                mat_revert_ccm_dl_f3d_material_313
                0x000000000705b588                mat_ccm_dl_f3d_material_313
                0x000000000705b5c8                mat_revert_ccm_dl_f3d_material_310
                0x000000000705b5e8                mat_ccm_dl_f3d_material_310
                0x000000000705b6a0                mat_revert_ccm_dl_f3d_material_058
                0x000000000705b6c0                mat_ccm_dl_f3d_material_058
                0x000000000705b778                mat_revert_ccm_dl_f3d_material_013
                0x000000000705b798                mat_ccm_dl_f3d_material_013
                0x000000000705b850                mat_revert_ccm_dl_f3d_material_068
                0x000000000705b870                mat_ccm_dl_f3d_material_068
                0x000000000705b928                mat_revert_ccm_dl_Material_003_F000_Straw_png_001_f3d_001
                0x000000000705b940                mat_ccm_dl_Material_003_F000_Straw_png_001_f3d_001
                0x000000000705b9c0                mat_revert_ccm_dl_f3d_material
                0x000000000705b9e0                mat_ccm_dl_f3d_material
                0x000000000705ba98                mat_revert_ccm_dl_f3d_material_050
                0x000000000705bab8                mat_ccm_dl_f3d_material_050
                0x000000000705bb70                mat_revert_ccm_dl_ZZDirt_002_layer1
                0x000000000705bb98                mat_ccm_dl_ZZDirt_002_layer1
                0x000000000705bc68                mat_revert_ccm_dl_ZZDirt_001
                0x000000000705bc80                mat_ccm_dl_ZZDirt_001
                0x000000000705bd00                mat_revert_ccm_dl_f3d_material_057
                0x000000000705bd20                mat_ccm_dl_f3d_material_057
                0x000000000705bdd8                mat_revert_ccm_dl_m14_f3d
                0x000000000705bdf0                mat_ccm_dl_m14_f3d
                0x000000000705be70                mat_revert_ccm_dl_f3d_material_056
                0x000000000705be90                mat_ccm_dl_f3d_material_056
                0x000000000705bf48                mat_revert_ccm_dl_f3d_material_059
                0x000000000705bf60                mat_ccm_dl_f3d_material_059
                0x000000000705bfe0                mat_revert_ccm_dl_f3d_material_053
                0x000000000705c000                mat_ccm_dl_f3d_material_053
                0x000000000705c0b8                mat_revert_ccm_dl_f3d_material_052
                0x000000000705c0d8                mat_ccm_dl_f3d_material_052
                0x000000000705c190                mat_revert_ccm_dl_f3d_material_061
                0x000000000705c1b0                mat_ccm_dl_f3d_material_061
                0x000000000705c268                mat_revert_ccm_dl_f3d_material_060
                0x000000000705c288                mat_ccm_dl_f3d_material_060
                0x000000000705c340                mat_revert_ccm_dl_f3d_material_051
                0x000000000705c360                mat_ccm_dl_f3d_material_051
                0x000000000705c418                mat_revert_ccm_dl_f3d_material_311
                0x000000000705c430                mat_ccm_dl_f3d_material_311
                0x000000000705c4b8                mat_revert_ccm_dl_f3d_material_048
                0x000000000705c4d0                mat_ccm_dl_f3d_material_048
                0x000000000705c510                mat_revert_ccm_dl_f3d_material_144
                0x000000000705c530                mat_ccm_dl_f3d_material_144
                0x000000000705c5e8                mat_revert_ccm_dl_f3d_material_027
                0x000000000705c600                mat_ccm_dl_f3d_material_027
                0x000000000705c680                mat_revert_ccm_dl_f3d_material_028
                0x000000000705c6a0                mat_ccm_dl_f3d_material_028
                0x000000000705c758                mat_revert_ccm_dl_f3d_material_041
                0x000000000705c778                mat_ccm_dl_f3d_material_041
                0x000000000705c830                mat_revert_ccm_dl_f3d_material_042
                0x000000000705c848                mat_ccm_dl_f3d_material_042
                0x000000000705c888                mat_revert_ccm_dl_f3d_material_026
                0x000000000705c8a8                mat_ccm_dl_f3d_material_026
                0x000000000705c960                mat_revert_ccm_dl_f3d_material_022
                0x000000000705c978                mat_ccm_dl_f3d_material_022
                0x000000000705c9f8                mat_revert_ccm_dl_f3d_material_018
                0x000000000705ca18                mat_ccm_dl_f3d_material_018
                0x000000000705cad0                mat_revert_ccm_dl_f3d_material_017
                0x000000000705caf0                mat_ccm_dl_f3d_material_017
                0x000000000705cba8                mat_revert_ccm_dl_f3d_material_029
                0x000000000705cbc8                mat_ccm_dl_f3d_material_029
                0x000000000705cc80                mat_revert_ccm_dl_ZZDirt
                0x000000000705cc98                mat_ccm_dl_ZZDirt
                0x000000000705cd18                mat_revert_ccm_dl_f3d_material_024
                0x000000000705cd38                mat_ccm_dl_f3d_material_024
                0x000000000705cdf0                mat_revert_ccm_dl_f3d_material_025
                0x000000000705ce10                mat_ccm_dl_f3d_material_025
                0x000000000705cec8                mat_revert_ccm_dl_Material_001_f3d_002
                0x000000000705cee0                mat_ccm_dl_Material_001_f3d_002
                0x000000000705cf60                mat_revert_ccm_dl_f3d_material_049
                0x000000000705cf80                mat_ccm_dl_f3d_material_049
                0x000000000705d038                mat_revert_ccm_dl_f3d_material_074
                0x000000000705d050                mat_ccm_dl_f3d_material_074
                0x000000000705d090                mat_revert_ccm_dl_f3d_material_143
                0x000000000705d0b0                mat_ccm_dl_f3d_material_143
                0x000000000705d168                mat_revert_ccm_dl_f3d_material_207
                0x000000000705d188                mat_ccm_dl_f3d_material_207
                0x000000000705d240                mat_revert_ccm_dl_f3d_material_205
                0x000000000705d258                mat_ccm_dl_f3d_material_205
                0x000000000705d2d8                mat_revert_ccm_dl_f3d_material_203
                0x000000000705d2f8                mat_ccm_dl_f3d_material_203
                0x000000000705d3b0                mat_revert_ccm_dl_f3d_material_204
                0x000000000705d3c8                mat_ccm_dl_f3d_material_204
                0x000000000705d448                mat_revert_ccm_dl_f3d_material_066
                0x000000000705d468                mat_ccm_dl_f3d_material_066
                0x000000000705d520                mat_revert_ccm_dl_Material_003_track_png_001_f3d
                0x000000000705d540                mat_ccm_dl_Material_003_track_png_001_f3d
                0x000000000705d5f8                mat_revert_ccm_dl_Material_003_RMGP01_33981d99_14_png_001_f3d
                0x000000000705d610                mat_ccm_dl_Material_003_RMGP01_33981d99_14_png_001_f3d
                0x000000000705d690                mat_revert_ccm_dl_Material_003_xx_6_png_001_f3d
                0x000000000705d6b0                mat_ccm_dl_Material_003_xx_6_png_001_f3d
                0x000000000705d768                mat_revert_ccm_dl_Material_003_xx_10_png_001_f3d
                0x000000000705d788                mat_ccm_dl_Material_003_xx_10_png_001_f3d
                0x000000000705d840                mat_revert_ccm_dl_f3d_material_002
                0x000000000705d860                mat_ccm_dl_f3d_material_002
                0x000000000705d918                ccm_dl_Plane_039_mesh_layer_5_tri_0
                0x000000000705dca8                ccm_dl_Plane_039_mesh_layer_5_vtx_0
                0x000000000705ece8                ccm_dl_Plane_039_mesh_layer_6_tri_0
                0x000000000705ede0                ccm_dl_Plane_039_mesh_layer_6_vtx_0
                0x000000000705f460                ccm_dl_Plane_038_mesh_layer_4_tri_0
                0x000000000705fb88                ccm_dl_Plane_038_mesh_layer_4_vtx_0
                0x0000000007062e08                ccm_dl_Plane_003_mesh_layer_1_tri_3
                0x0000000007062e68                ccm_dl_Plane_003_mesh_layer_1_vtx_3
                0x00000000070630a8                ccm_dl_Plane_003_mesh_layer_1_tri_2
                0x0000000007063168                ccm_dl_Plane_003_mesh_layer_1_vtx_2
                0x0000000007063608                ccm_dl_Plane_003_mesh_layer_1_tri_1
                0x00000000070636c8                ccm_dl_Plane_003_mesh_layer_1_vtx_1
                0x0000000007063aa8                ccm_dl_Plane_003_mesh_layer_1_tri_0
                0x00000000070641f8                ccm_dl_Plane_003_mesh_layer_1_vtx_0
                0x00000000070662c8                ccm_dl_Lava_mesh_layer_1_tri_0
                0x00000000070666a0                ccm_dl_Lava_mesh_layer_1_vtx_0
                0x00000000070676d0                ccm_dl_Cube_mesh_layer_4_tri_1
                0x00000000070678d0                ccm_dl_Cube_mesh_layer_4_vtx_1
                0x00000000070686d0                ccm_dl_Cube_mesh_layer_4_tri_0
                0x0000000007068840                ccm_dl_Cube_mesh_layer_4_vtx_0
                0x0000000007069240                ccm_dl_Plane_041_mesh_layer_6_tri_0
                0x0000000007069258                ccm_dl_Plane_041_mesh_layer_6_vtx_0
                0x0000000007069298                ccm_dl_Plane_037_mesh_tri_1
                0x0000000007069360                ccm_dl_Plane_037_mesh_vtx_1
                0x0000000007069960                ccm_dl_Plane_037_mesh_tri_0
                0x0000000007069a48                ccm_dl_Plane_037_mesh_vtx_0
                0x0000000007069f68                ccm_dl_Plane_037_mesh_vtx_cull
                0x0000000007069fe8                ccm_dl_Plane_037_mesh_layer_1_tri_11
                0x000000000706a068                ccm_dl_Plane_037_mesh_layer_1_vtx_11
                0x000000000706a1e8                ccm_dl_Plane_037_mesh_layer_1_tri_10
                0x000000000706a220                ccm_dl_Plane_037_mesh_layer_1_vtx_10
                0x000000000706a2e0                ccm_dl_Plane_037_mesh_layer_1_tri_9
                0x000000000706a310                ccm_dl_Plane_037_mesh_layer_1_vtx_9
                0x000000000706a3d0                ccm_dl_Plane_037_mesh_layer_1_tri_8
                0x000000000706a4e0                ccm_dl_Plane_037_mesh_layer_1_vtx_8
                0x000000000706a990                ccm_dl_Plane_037_mesh_layer_1_tri_7
                0x000000000706a9d8                ccm_dl_Plane_037_mesh_layer_1_vtx_7
                0x000000000706ab18                ccm_dl_Plane_037_mesh_layer_1_tri_6
                0x000000000706ab30                ccm_dl_Plane_037_mesh_layer_1_vtx_6
                0x000000000706ab70                ccm_dl_Plane_037_mesh_layer_1_tri_5
                0x000000000706abd0                ccm_dl_Plane_037_mesh_layer_1_vtx_5
                0x000000000706ad60                ccm_dl_Plane_037_mesh_layer_1_tri_4
                0x000000000706ada0                ccm_dl_Plane_037_mesh_layer_1_vtx_4
                0x000000000706aea0                ccm_dl_Plane_037_mesh_layer_1_tri_3
                0x000000000706aee8                ccm_dl_Plane_037_mesh_layer_1_vtx_3
                0x000000000706af98                ccm_dl_Plane_037_mesh_layer_1_tri_2
                0x000000000706b008                ccm_dl_Plane_037_mesh_layer_1_vtx_2
                0x000000000706b1c8                ccm_dl_Plane_037_mesh_layer_1_tri_1
                0x000000000706b2d0                ccm_dl_Plane_037_mesh_layer_1_vtx_1
                0x000000000706b610                ccm_dl_Plane_037_mesh_layer_1_tri_0
                0x000000000706b6e0                ccm_dl_Plane_037_mesh_layer_1_vtx_0
                0x000000000706ba50                ccm_dl_Plane_037_mesh_layer_1_vtx_cull
                0x000000000706bad0                ccm_dl_Plane_036_mesh_layer_5_tri_1
                0x000000000706bba8                ccm_dl_Plane_036_mesh_layer_5_vtx_1
                0x000000000706be48                ccm_dl_Plane_036_mesh_layer_5_tri_0
                0x000000000706be68                ccm_dl_Plane_036_mesh_layer_5_vtx_0
                0x000000000706bee8                ccm_dl_Plane_035_mesh_layer_1_tri_8
                0x000000000706bf90                ccm_dl_Plane_035_mesh_layer_1_vtx_8
                0x000000000706c130                ccm_dl_Plane_035_mesh_layer_1_tri_7
                0x000000000706c188                ccm_dl_Plane_035_mesh_layer_1_vtx_7
                0x000000000706c248                ccm_dl_Plane_035_mesh_layer_1_tri_6
                0x000000000706c300                ccm_dl_Plane_035_mesh_layer_1_vtx_6
                0x000000000706c6c0                ccm_dl_Plane_035_mesh_layer_1_tri_5
                0x000000000706c728                ccm_dl_Plane_035_mesh_layer_1_vtx_5
                0x000000000706c9a8                ccm_dl_Plane_035_mesh_layer_1_tri_4
                0x000000000706c9d8                ccm_dl_Plane_035_mesh_layer_1_vtx_4
                0x000000000706ca98                ccm_dl_Plane_035_mesh_layer_1_tri_3
                0x000000000706caf0                ccm_dl_Plane_035_mesh_layer_1_vtx_3
                0x000000000706cc30                ccm_dl_Plane_035_mesh_layer_1_tri_2
                0x000000000706ccb0                ccm_dl_Plane_035_mesh_layer_1_vtx_2
                0x000000000706ceb0                ccm_dl_Plane_035_mesh_layer_1_tri_1
                0x000000000706cf48                ccm_dl_Plane_035_mesh_layer_1_vtx_1
                0x000000000706d1e8                ccm_dl_Plane_035_mesh_layer_1_tri_0
                0x000000000706d210                ccm_dl_Plane_035_mesh_layer_1_vtx_0
                0x000000000706d290                ccm_dl_Plane_035_mesh_layer_1_vtx_cull
                0x000000000706d310                ccm_dl_Plane_034_mesh_layer_5_tri_0
                0x000000000706d378                ccm_dl_Plane_034_mesh_layer_5_vtx_0
                0x000000000706d5d8                ccm_dl_Plane_034_mesh_layer_6_tri_0
                0x000000000706d608                ccm_dl_Plane_034_mesh_layer_6_vtx_0
                0x000000000706d708                ccm_dl_Plane_033_mesh_layer_1_tri_3
                0x000000000706d740                ccm_dl_Plane_033_mesh_layer_1_vtx_3
                0x000000000706d820                ccm_dl_Plane_033_mesh_layer_1_tri_2
                0x000000000706d8e0                ccm_dl_Plane_033_mesh_layer_1_vtx_2
                0x000000000706dc60                ccm_dl_Plane_033_mesh_layer_1_tri_1
                0x000000000706dc90                ccm_dl_Plane_033_mesh_layer_1_vtx_1
                0x000000000706dd40                ccm_dl_Plane_033_mesh_layer_1_tri_0
                0x000000000706ddd0                ccm_dl_Plane_033_mesh_layer_1_vtx_0
                0x000000000706dfa0                ccm_dl_Plane_033_mesh_layer_1_vtx_cull
                0x000000000706e020                ccm_dl_Plane_030_mesh_layer_1_tri_0
                0x000000000706e058                ccm_dl_Plane_030_mesh_layer_1_vtx_0
                0x000000000706e0d8                ccm_dl_Plane_030_mesh_layer_1_vtx_cull
                0x000000000706e158                ccm_dl_Plane_030_mesh_tri_3
                0x000000000706e178                ccm_dl_Plane_030_mesh_vtx_3
                0x000000000706e1c8                ccm_dl_Plane_030_mesh_tri_2
                0x000000000706e238                ccm_dl_Plane_030_mesh_vtx_2
                0x000000000706e3e8                ccm_dl_Plane_030_mesh_tri_1
                0x000000000706e448                ccm_dl_Plane_030_mesh_vtx_1
                0x000000000706e568                ccm_dl_Plane_030_mesh_tri_0
                0x000000000706e588                ccm_dl_Plane_030_mesh_vtx_0
                0x000000000706e5e8                ccm_dl_Plane_030_mesh_vtx_cull
                0x000000000706e668                ccm_dl_Plane_027_mesh_layer_1_tri_1
                0x000000000706e6a0                ccm_dl_Plane_027_mesh_layer_1_vtx_1
                0x000000000706e720                ccm_dl_Plane_027_mesh_layer_1_tri_0
                0x000000000706e918                ccm_dl_Plane_027_mesh_layer_1_vtx_0
                0x000000000706f158                ccm_dl_Plane_027_mesh_layer_1_vtx_cull
                0x000000000706f1d8                ccm_dl_Plane_025_mesh_layer_1_tri_1
                0x000000000706f268                ccm_dl_Plane_025_mesh_layer_1_vtx_1
                0x000000000706f4e8                ccm_dl_Plane_025_mesh_layer_1_tri_0
                0x000000000706f938                ccm_dl_Plane_025_mesh_layer_1_vtx_0
                0x0000000007070618                ccm_dl_Plane_025_mesh_layer_1_vtx_cull
                0x0000000007070698                ccm_dl_Plane_021_mesh_layer_6_tri_0
                0x00000000070706e0                ccm_dl_Plane_021_mesh_layer_6_vtx_0
                0x00000000070707e0                ccm_dl_Plane_021_mesh_layer_6_vtx_cull
                0x0000000007070860                ccm_dl_Plane_011_mesh_layer_1_tri_7
                0x0000000007070a08                ccm_dl_Plane_011_mesh_layer_1_vtx_7
                0x00000000070714b8                ccm_dl_Plane_011_mesh_layer_1_tri_6
                0x00000000070715b0                ccm_dl_Plane_011_mesh_layer_1_vtx_6
                0x0000000007071900                ccm_dl_Plane_011_mesh_layer_1_tri_5
                0x0000000007071a70                ccm_dl_Plane_011_mesh_layer_1_vtx_5
                0x0000000007071ff0                ccm_dl_Plane_011_mesh_layer_1_tri_4
                0x0000000007072078                ccm_dl_Plane_011_mesh_layer_1_vtx_4
                0x0000000007072318                ccm_dl_Plane_011_mesh_layer_1_tri_3
                0x0000000007072368                ccm_dl_Plane_011_mesh_layer_1_vtx_3
                0x00000000070724e8                ccm_dl_Plane_011_mesh_layer_1_tri_2
                0x0000000007072590                ccm_dl_Plane_011_mesh_layer_1_vtx_2
                0x00000000070727d0                ccm_dl_Plane_011_mesh_layer_1_tri_1
                0x00000000070727e8                ccm_dl_Plane_011_mesh_layer_1_vtx_1
                0x0000000007072828                ccm_dl_Plane_011_mesh_layer_1_tri_0
                0x0000000007072898                ccm_dl_Plane_011_mesh_layer_1_vtx_0
                0x0000000007072a08                ccm_dl_Plane_011_mesh_layer_1_vtx_cull
                0x0000000007072a88                ccm_dl_Plane_007_mesh_layer_4_tri_1
                0x0000000007072af0                ccm_dl_Plane_007_mesh_layer_4_vtx_1
                0x0000000007072d70                ccm_dl_Plane_007_mesh_layer_4_tri_0
                0x0000000007072e50                ccm_dl_Plane_007_mesh_layer_4_vtx_0
                0x0000000007073230                ccm_dl_Plane_006_mesh_layer_1_tri_7
                0x0000000007073248                ccm_dl_Plane_006_mesh_layer_1_vtx_7
                0x0000000007073288                ccm_dl_Plane_006_mesh_layer_1_tri_6
                0x0000000007073378                ccm_dl_Plane_006_mesh_layer_1_vtx_6
                0x0000000007073858                ccm_dl_Plane_006_mesh_layer_1_tri_5
                0x0000000007073898                ccm_dl_Plane_006_mesh_layer_1_vtx_5
                0x0000000007073998                ccm_dl_Plane_006_mesh_layer_1_tri_4
                0x00000000070739c8                ccm_dl_Plane_006_mesh_layer_1_vtx_4
                0x0000000007073ac8                ccm_dl_Plane_006_mesh_layer_1_tri_3
                0x0000000007073b48                ccm_dl_Plane_006_mesh_layer_1_vtx_3
                0x0000000007073e88                ccm_dl_Plane_006_mesh_layer_1_tri_2
                0x0000000007073ed0                ccm_dl_Plane_006_mesh_layer_1_vtx_2
                0x0000000007073f80                ccm_dl_Plane_006_mesh_layer_1_tri_1
                0x0000000007073fd0                ccm_dl_Plane_006_mesh_layer_1_vtx_1
                0x0000000007074090                ccm_dl_Plane_006_mesh_layer_1_tri_0
                0x00000000070740c8                ccm_dl_Plane_006_mesh_layer_1_vtx_0
                0x0000000007074188                ccm_dl_Plane_006_mesh_layer_1_vtx_cull
                0x0000000007074208                ccm_dl_Plane_001_mesh_layer_1_tri_8
                0x0000000007074230                ccm_dl_Plane_001_mesh_layer_1_vtx_8
                0x00000000070742f0                ccm_dl_Plane_001_mesh_layer_1_tri_7
                0x0000000007074360                ccm_dl_Plane_001_mesh_layer_1_vtx_7
                0x00000000070744e0                ccm_dl_Plane_001_mesh_layer_1_tri_6
                0x0000000007074510                ccm_dl_Plane_001_mesh_layer_1_vtx_6
                0x00000000070745a0                ccm_dl_Plane_001_mesh_layer_1_tri_5
                0x00000000070745b8                ccm_dl_Plane_001_mesh_layer_1_vtx_5
                0x0000000007074618                ccm_dl_Plane_001_mesh_layer_1_tri_4
                0x0000000007074650                ccm_dl_Plane_001_mesh_layer_1_vtx_4
                0x0000000007074730                ccm_dl_Plane_001_mesh_layer_1_tri_3
                0x00000000070747c8                ccm_dl_Plane_001_mesh_layer_1_vtx_3
                0x0000000007074a78                ccm_dl_Plane_001_mesh_layer_1_tri_2
                0x0000000007074b80                ccm_dl_Plane_001_mesh_layer_1_vtx_2
                0x0000000007074fd0                ccm_dl_Plane_001_mesh_layer_1_tri_1
                0x0000000007075018                ccm_dl_Plane_001_mesh_layer_1_vtx_1
                0x0000000007075128                ccm_dl_Plane_001_mesh_layer_1_tri_0
                0x0000000007075218                ccm_dl_Plane_001_mesh_layer_1_vtx_0
                0x00000000070755b8                ccm_dl_Plane_001_mesh_layer_1_vtx_cull
                0x0000000007075638                ccm_dl_museumalphastuff_mesh_layer_4_tri_11
                0x0000000007075650                ccm_dl_museumalphastuff_mesh_layer_4_vtx_11
                0x0000000007075690                ccm_dl_museumalphastuff_mesh_layer_4_tri_10
                0x00000000070757f8                ccm_dl_museumalphastuff_mesh_layer_4_vtx_10
                0x00000000070758f8                ccm_dl_museumalphastuff_mesh_layer_4_tri_9
                0x0000000007075910                ccm_dl_museumalphastuff_mesh_layer_4_vtx_9
                0x0000000007075950                ccm_dl_museumalphastuff_mesh_layer_4_tri_8
                0x0000000007075970                ccm_dl_museumalphastuff_mesh_layer_4_vtx_8
                0x00000000070759f0                ccm_dl_museumalphastuff_mesh_layer_4_tri_7
                0x0000000007075a08                ccm_dl_museumalphastuff_mesh_layer_4_vtx_7
                0x0000000007075a48                ccm_dl_museumalphastuff_mesh_layer_4_tri_6
                0x0000000007075a68                ccm_dl_museumalphastuff_mesh_layer_4_vtx_6
                0x0000000007075ae8                ccm_dl_museumalphastuff_mesh_layer_4_tri_5
                0x0000000007075b08                ccm_dl_museumalphastuff_mesh_layer_4_vtx_5
                0x0000000007075b88                ccm_dl_museumalphastuff_mesh_layer_4_tri_4
                0x0000000007075ba8                ccm_dl_museumalphastuff_mesh_layer_4_vtx_4
                0x0000000007075c28                ccm_dl_museumalphastuff_mesh_layer_4_tri_3
                0x0000000007075c70                ccm_dl_museumalphastuff_mesh_layer_4_vtx_3
                0x0000000007075e10                ccm_dl_museumalphastuff_mesh_layer_4_tri_2
                0x0000000007075e28                ccm_dl_museumalphastuff_mesh_layer_4_vtx_2
                0x0000000007075e68                ccm_dl_museumalphastuff_mesh_layer_4_tri_1
                0x0000000007075ea8                ccm_dl_museumalphastuff_mesh_layer_4_vtx_1
                0x0000000007076038                ccm_dl_museumalphastuff_mesh_layer_4_tri_0
                0x0000000007076078                ccm_dl_museumalphastuff_mesh_layer_4_vtx_0
                0x00000000070761d8                ccm_dl_museumalphastuff_mesh_layer_4_vtx_cull
                0x0000000007076258                ccm_dl_Circle_007_mesh_tri_0
                0x0000000007076330                ccm_dl_Circle_007_mesh_vtx_0
                0x00000000070766d0                ccm_dl_Circle_007_mesh_vtx_cull
                0x0000000007076750                ccm_dl_Plane_031_mesh_layer_4_tri_0
                0x0000000007076790                ccm_dl_Plane_031_mesh_layer_4_vtx_0
                0x00000000070768d0                ccm_dl_Plane_031_mesh_layer_4_vtx_cull
                0x0000000007076950                ccm_dl_Plane_031_mesh_layer_1_tri_12
                0x00000000070769a8                ccm_dl_Plane_031_mesh_layer_1_vtx_12
                0x0000000007076af8                ccm_dl_Plane_031_mesh_layer_1_tri_11
                0x0000000007076c80                ccm_dl_Plane_031_mesh_layer_1_vtx_11
                0x0000000007077200                ccm_dl_Plane_031_mesh_layer_1_tri_10
                0x0000000007077358                ccm_dl_Plane_031_mesh_layer_1_vtx_10
                0x0000000007077758                ccm_dl_Plane_031_mesh_layer_1_tri_9
                0x0000000007077810                ccm_dl_Plane_031_mesh_layer_1_vtx_9
                0x0000000007077c10                ccm_dl_Plane_031_mesh_layer_1_tri_8
                0x0000000007077c80                ccm_dl_Plane_031_mesh_layer_1_vtx_8
                0x0000000007077e80                ccm_dl_Plane_031_mesh_layer_1_tri_7
                0x0000000007077f08                ccm_dl_Plane_031_mesh_layer_1_vtx_7
                0x0000000007078088                ccm_dl_Plane_031_mesh_layer_1_tri_6
                0x0000000007078150                ccm_dl_Plane_031_mesh_layer_1_vtx_6
                0x00000000070784d0                ccm_dl_Plane_031_mesh_layer_1_tri_5
                0x0000000007078508                ccm_dl_Plane_031_mesh_layer_1_vtx_5
                0x00000000070785c8                ccm_dl_Plane_031_mesh_layer_1_tri_4
                0x0000000007078608                ccm_dl_Plane_031_mesh_layer_1_vtx_4
                0x0000000007078718                ccm_dl_Plane_031_mesh_layer_1_tri_3
                0x0000000007078810                ccm_dl_Plane_031_mesh_layer_1_vtx_3
                0x0000000007078cf0                ccm_dl_Plane_031_mesh_layer_1_tri_2
                0x0000000007078d40                ccm_dl_Plane_031_mesh_layer_1_vtx_2
                0x0000000007078e70                ccm_dl_Plane_031_mesh_layer_1_tri_1
                0x0000000007078ea0                ccm_dl_Plane_031_mesh_layer_1_vtx_1
                0x0000000007078f40                ccm_dl_Plane_031_mesh_layer_1_tri_0
                0x0000000007079010                ccm_dl_Plane_031_mesh_layer_1_vtx_0
                0x0000000007079300                ccm_dl_Plane_031_mesh_layer_1_vtx_cull
                0x0000000007079380                ccm_dl_Plane_029_mesh_layer_5_tri_0
                0x0000000007079398                ccm_dl_Plane_029_mesh_layer_5_vtx_0
                0x00000000070793d8                ccm_dl_Plane_029_mesh_layer_5_vtx_cull
                0x0000000007079458                ccm_dl_Plane_028_mesh_layer_6_tri_0
                0x0000000007079478                ccm_dl_Plane_028_mesh_layer_6_vtx_0
                0x00000000070794f8                ccm_dl_Plane_026_mesh_layer_6_tri_0
                0x0000000007079510                ccm_dl_Plane_026_mesh_layer_6_vtx_0
                0x0000000007079550                ccm_dl_Plane_026_mesh_layer_6_vtx_cull
                0x00000000070795d0                ccm_dl_Plane_024_mesh_layer_6_tri_6
                0x0000000007079610                ccm_dl_Plane_024_mesh_layer_6_vtx_6
                0x0000000007079790                ccm_dl_Plane_024_mesh_layer_6_tri_5
                0x00000000070797a8                ccm_dl_Plane_024_mesh_layer_6_vtx_5
                0x00000000070797e8                ccm_dl_Plane_024_mesh_layer_6_tri_4
                0x0000000007079800                ccm_dl_Plane_024_mesh_layer_6_vtx_4
                0x0000000007079840                ccm_dl_Plane_024_mesh_layer_6_tri_3
                0x0000000007079858                ccm_dl_Plane_024_mesh_layer_6_vtx_3
                0x0000000007079898                ccm_dl_Plane_024_mesh_layer_6_tri_2
                0x00000000070798b0                ccm_dl_Plane_024_mesh_layer_6_vtx_2
                0x00000000070798f0                ccm_dl_Plane_024_mesh_layer_6_tri_1
                0x0000000007079920                ccm_dl_Plane_024_mesh_layer_6_vtx_1
                0x00000000070799b0                ccm_dl_Plane_024_mesh_layer_6_tri_0
                0x00000000070799c8                ccm_dl_Plane_024_mesh_layer_6_vtx_0
                0x0000000007079a08                ccm_dl_Plane_024_mesh_layer_6_vtx_cull
                0x0000000007079a88                ccm_dl_Plane_013_mesh_layer_6_tri_0
                0x0000000007079bc8                ccm_dl_Plane_013_mesh_layer_6_vtx_0
                0x0000000007079f68                ccm_dl_Plane_013_mesh_layer_6_vtx_cull
                0x0000000007079fe8                ccm_dl_Plane_013_mesh_layer_1_tri_1
                0x000000000707a060                ccm_dl_Plane_013_mesh_layer_1_vtx_1
                0x000000000707a2a0                ccm_dl_Plane_013_mesh_layer_1_tri_0
                0x000000000707a348                ccm_dl_Plane_013_mesh_layer_1_vtx_0
                0x000000000707a648                ccm_dl_Plane_013_mesh_layer_1_vtx_cull
                0x000000000707a6c8                ccm_dl_Plane_010_mesh_layer_5_tri_0
                0x000000000707a6e8                ccm_dl_Plane_010_mesh_layer_5_vtx_0
                0x000000000707a758                ccm_dl_Plane_010_mesh_layer_5_vtx_cull
                0x000000000707a7d8                ccm_dl_Plane_010_mesh_tri_2
                0x000000000707a820                ccm_dl_Plane_010_mesh_vtx_2
                0x000000000707a8c0                ccm_dl_Plane_010_mesh_tri_1
                0x000000000707a960                ccm_dl_Plane_010_mesh_vtx_1
                0x000000000707ac70                ccm_dl_Plane_010_mesh_tri_0
                0x000000000707ad20                ccm_dl_Plane_010_mesh_vtx_0
                0x000000000707aec0                ccm_dl_Plane_010_mesh_vtx_cull
                0x000000000707af40                ccm_dl_Plane_010_mesh_layer_1_tri_11
                0x000000000707af58                ccm_dl_Plane_010_mesh_layer_1_vtx_11
                0x000000000707af98                ccm_dl_Plane_010_mesh_layer_1_tri_10
                0x000000000707b008                ccm_dl_Plane_010_mesh_layer_1_vtx_10
                0x000000000707b1b8                ccm_dl_Plane_010_mesh_layer_1_tri_9
                0x000000000707b210                ccm_dl_Plane_010_mesh_layer_1_vtx_9
                0x000000000707b390                ccm_dl_Plane_010_mesh_layer_1_tri_8
                0x000000000707b3c8                ccm_dl_Plane_010_mesh_layer_1_vtx_8
                0x000000000707b478                ccm_dl_Plane_010_mesh_layer_1_tri_7
                0x000000000707b508                ccm_dl_Plane_010_mesh_layer_1_vtx_7
                0x000000000707b708                ccm_dl_Plane_010_mesh_layer_1_tri_6
                0x000000000707b790                ccm_dl_Plane_010_mesh_layer_1_vtx_6
                0x000000000707b990                ccm_dl_Plane_010_mesh_layer_1_tri_5
                0x000000000707b9d0                ccm_dl_Plane_010_mesh_layer_1_vtx_5
                0x000000000707bab0                ccm_dl_Plane_010_mesh_layer_1_tri_4
                0x000000000707bad0                ccm_dl_Plane_010_mesh_layer_1_vtx_4
                0x000000000707bb20                ccm_dl_Plane_010_mesh_layer_1_tri_3
                0x000000000707bb48                ccm_dl_Plane_010_mesh_layer_1_vtx_3
                0x000000000707bbe8                ccm_dl_Plane_010_mesh_layer_1_tri_2
                0x000000000707bcf8                ccm_dl_Plane_010_mesh_layer_1_vtx_2
                0x000000000707c0a8                ccm_dl_Plane_010_mesh_layer_1_tri_1
                0x000000000707c0c0                ccm_dl_Plane_010_mesh_layer_1_vtx_1
                0x000000000707c100                ccm_dl_Plane_010_mesh_layer_1_tri_0
                0x000000000707c130                ccm_dl_Plane_010_mesh_layer_1_vtx_0
                0x000000000707c1d0                ccm_dl_Plane_010_mesh_layer_1_vtx_cull
                0x000000000707c250                ccm_dl_Plane_009_mesh_layer_4_tri_1
                0x000000000707c280                ccm_dl_Plane_009_mesh_layer_4_vtx_1
                0x000000000707c380                ccm_dl_Plane_009_mesh_layer_4_tri_0
                0x000000000707c3b0                ccm_dl_Plane_009_mesh_layer_4_vtx_0
                0x000000000707c490                ccm_dl_Plane_009_mesh_layer_4_vtx_cull
                0x000000000707c510                ccm_dl_Plane_009_mesh_layer_1_tri_11
                0x000000000707c550                ccm_dl_Plane_009_mesh_layer_1_vtx_11
                0x000000000707c6d0                ccm_dl_Plane_009_mesh_layer_1_tri_10
                0x000000000707c750                ccm_dl_Plane_009_mesh_layer_1_vtx_10
                0x000000000707c930                ccm_dl_Plane_009_mesh_layer_1_tri_9
                0x000000000707cc90                ccm_dl_Plane_009_mesh_layer_1_vtx_9
                0x000000000707d850                ccm_dl_Plane_009_mesh_layer_1_tri_8
                0x000000000707d880                ccm_dl_Plane_009_mesh_layer_1_vtx_8
                0x000000000707d940                ccm_dl_Plane_009_mesh_layer_1_tri_7
                0x000000000707d9a0                ccm_dl_Plane_009_mesh_layer_1_vtx_7
                0x000000000707db20                ccm_dl_Plane_009_mesh_layer_1_tri_6
                0x000000000707db50                ccm_dl_Plane_009_mesh_layer_1_vtx_6
                0x000000000707dbf0                ccm_dl_Plane_009_mesh_layer_1_tri_5
                0x000000000707dc20                ccm_dl_Plane_009_mesh_layer_1_vtx_5
                0x000000000707dcc0                ccm_dl_Plane_009_mesh_layer_1_tri_4
                0x000000000707dd40                ccm_dl_Plane_009_mesh_layer_1_vtx_4
                0x000000000707df70                ccm_dl_Plane_009_mesh_layer_1_tri_3
                0x000000000707dfc8                ccm_dl_Plane_009_mesh_layer_1_vtx_3
                0x000000000707e148                ccm_dl_Plane_009_mesh_layer_1_tri_2
                0x000000000707e2a8                ccm_dl_Plane_009_mesh_layer_1_vtx_2
                0x000000000707e838                ccm_dl_Plane_009_mesh_layer_1_tri_1
                0x000000000707e888                ccm_dl_Plane_009_mesh_layer_1_vtx_1
                0x000000000707e9c8                ccm_dl_Plane_009_mesh_layer_1_tri_0
                0x000000000707ea70                ccm_dl_Plane_009_mesh_layer_1_vtx_0
                0x000000000707ed20                ccm_dl_Plane_009_mesh_layer_1_vtx_cull
                0x000000000707eda0                ccm_dl_Plane_009_mesh_layer_5_tri_0
                0x000000000707edd8                ccm_dl_Plane_009_mesh_layer_5_vtx_0
                0x000000000707eeb8                ccm_dl_Plane_009_mesh_layer_5_vtx_cull
                0x000000000707ef38                ccm_dl_Plane_004_mesh_layer_4_tri_0
                0x000000000707ef58                ccm_dl_Plane_004_mesh_layer_4_vtx_0
                0x000000000707efd8                ccm_dl_Plane_004_mesh_layer_4_vtx_cull
                0x000000000707f058                ccm_dl_Plane_004_mesh_layer_1_tri_11
                0x000000000707f108                ccm_dl_Plane_004_mesh_layer_1_vtx_11
                0x000000000707f4e8                ccm_dl_Plane_004_mesh_layer_1_tri_10
                0x000000000707f510                ccm_dl_Plane_004_mesh_layer_1_vtx_10
                0x000000000707f590                ccm_dl_Plane_004_mesh_layer_1_tri_9
                0x000000000707f5c0                ccm_dl_Plane_004_mesh_layer_1_vtx_9
                0x000000000707f660                ccm_dl_Plane_004_mesh_layer_1_tri_8
                0x000000000707f778                ccm_dl_Plane_004_mesh_layer_1_vtx_8
                0x000000000707fae8                ccm_dl_Plane_004_mesh_layer_1_tri_7
                0x000000000707fb08                ccm_dl_Plane_004_mesh_layer_1_vtx_7
                0x000000000707fb88                ccm_dl_Plane_004_mesh_layer_1_tri_6
                0x000000000707fba8                ccm_dl_Plane_004_mesh_layer_1_vtx_6
                0x000000000707fc28                ccm_dl_Plane_004_mesh_layer_1_tri_5
                0x000000000707fc58                ccm_dl_Plane_004_mesh_layer_1_vtx_5
                0x000000000707fd58                ccm_dl_Plane_004_mesh_layer_1_tri_4
                0x000000000707ff50                ccm_dl_Plane_004_mesh_layer_1_vtx_4
                0x0000000007080640                ccm_dl_Plane_004_mesh_layer_1_tri_3
                0x00000000070806b0                ccm_dl_Plane_004_mesh_layer_1_vtx_3
                0x0000000007080870                ccm_dl_Plane_004_mesh_layer_1_tri_2
                0x0000000007080918                ccm_dl_Plane_004_mesh_layer_1_vtx_2
                0x0000000007080be8                ccm_dl_Plane_004_mesh_layer_1_tri_1
                0x0000000007080c38                ccm_dl_Plane_004_mesh_layer_1_vtx_1
                0x0000000007080d18                ccm_dl_Plane_004_mesh_layer_1_tri_0
                0x0000000007080d38                ccm_dl_Plane_004_mesh_layer_1_vtx_0
                0x0000000007080db8                ccm_dl_Plane_004_mesh_layer_1_vtx_cull
                0x0000000007080e38                ccm_dl_Cube_002_mesh_layer_1_tri_0
                0x0000000007080f10                ccm_dl_Cube_002_mesh_layer_1_vtx_0
                0x0000000007081210                ccm_dl_Cube_002_mesh_layer_1_vtx_cull
                0x0000000007081290                ccm_dl_Circle_002_mesh_layer_4_tri_0
                0x00000000070812d0                ccm_dl_Circle_002_mesh_layer_4_vtx_0
                0x00000000070813b0                ccm_dl_Circle_002_mesh_layer_4_vtx_cull
                0x0000000007081430                ccm_dl_AnimtedMice_mesh_layer_1_tri_0
                0x0000000007081458                ccm_dl_AnimtedMice_mesh_layer_1_vtx_0
                0x0000000007081518                ccm_dl_ZZZZZZZZZZZZZMAINFLOOR_mesh_layer_4_tri_0
                0x0000000007081530                ccm_dl_ZZZZZZZZZZZZZMAINFLOOR_mesh_layer_4_vtx_0
                0x0000000007081570                ccm_dl_ZZZZZZZZZZZZZMAINFLOOR_mesh_layer_1_tri_10
                0x00000000070815b0                ccm_dl_ZZZZZZZZZZZZZMAINFLOOR_mesh_layer_1_vtx_10
                0x00000000070816f0                ccm_dl_ZZZZZZZZZZZZZMAINFLOOR_mesh_layer_1_tri_9
                0x0000000007081800                ccm_dl_ZZZZZZZZZZZZZMAINFLOOR_mesh_layer_1_vtx_9
                0x0000000007081dc0                ccm_dl_ZZZZZZZZZZZZZMAINFLOOR_mesh_layer_1_tri_8
                0x0000000007081e00                ccm_dl_ZZZZZZZZZZZZZMAINFLOOR_mesh_layer_1_vtx_8
                0x0000000007081f00                ccm_dl_ZZZZZZZZZZZZZMAINFLOOR_mesh_layer_1_tri_7
                0x0000000007081fc0                ccm_dl_ZZZZZZZZZZZZZMAINFLOOR_mesh_layer_1_vtx_7
                0x0000000007082340                ccm_dl_ZZZZZZZZZZZZZMAINFLOOR_mesh_layer_1_tri_6
                0x0000000007082418                ccm_dl_ZZZZZZZZZZZZZMAINFLOOR_mesh_layer_1_vtx_6
                0x00000000070826c8                ccm_dl_ZZZZZZZZZZZZZMAINFLOOR_mesh_layer_1_tri_5
                0x0000000007082730                ccm_dl_ZZZZZZZZZZZZZMAINFLOOR_mesh_layer_1_vtx_5
                0x00000000070828d0                ccm_dl_ZZZZZZZZZZZZZMAINFLOOR_mesh_layer_1_tri_4
                0x0000000007082910                ccm_dl_ZZZZZZZZZZZZZMAINFLOOR_mesh_layer_1_vtx_4
                0x00000000070829b0                ccm_dl_ZZZZZZZZZZZZZMAINFLOOR_mesh_layer_1_tri_3
                0x0000000007082b78                ccm_dl_ZZZZZZZZZZZZZMAINFLOOR_mesh_layer_1_vtx_3
                0x00000000070834f8                ccm_dl_ZZZZZZZZZZZZZMAINFLOOR_mesh_layer_1_tri_2
                0x0000000007083630                ccm_dl_ZZZZZZZZZZZZZMAINFLOOR_mesh_layer_1_vtx_2
                0x0000000007083ac0                ccm_dl_ZZZZZZZZZZZZZMAINFLOOR_mesh_layer_1_tri_1
                0x0000000007083c98                ccm_dl_ZZZZZZZZZZZZZMAINFLOOR_mesh_layer_1_vtx_1
                0x0000000007084518                ccm_dl_ZZZZZZZZZZZZZMAINFLOOR_mesh_layer_1_tri_0
                0x00000000070846f0                ccm_dl_ZZZZZZZZZZZZZMAINFLOOR_mesh_layer_1_vtx_0
                0x0000000007085000                ccm_dl_ZZZZWATERFALL_mesh_layer_6_tri_0
                0x0000000007085030                ccm_dl_ZZZZWATERFALL_mesh_layer_6_vtx_0
                0x00000000070850b0                ccm_dl_ZZZZWATERFALL_mesh_layer_5_tri_1
                0x00000000070850e8                ccm_dl_ZZZZWATERFALL_mesh_layer_5_vtx_1
                0x0000000007085188                ccm_dl_ZZZZWATERFALL_mesh_layer_5_tri_0
                0x00000000070851d8                ccm_dl_ZZZZWATERFALL_mesh_layer_5_vtx_0
                0x00000000070852b8                ccm_dl_zzzzpLANENOTCONVEX_mesh_layer_1_tri_0
                0x00000000070853f0                ccm_dl_zzzzpLANENOTCONVEX_mesh_layer_1_vtx_0
                0x00000000070858a0                ccm_dl_zzzzpLANECONVEXNOZBUFFER_mesh_layer_0_tri_0
                0x0000000007085988                ccm_dl_zzzzpLANECONVEXNOZBUFFER_mesh_layer_0_vtx_0
                0x0000000007085d68                ccm_dl_ZAAAAAAAAAChompCage_mesh_layer_1_tri_12
                0x0000000007085d90                ccm_dl_ZAAAAAAAAAChompCage_mesh_layer_1_vtx_12
                0x0000000007085e00                ccm_dl_ZAAAAAAAAAChompCage_mesh_layer_1_tri_11
                0x0000000007085e70                ccm_dl_ZAAAAAAAAAChompCage_mesh_layer_1_vtx_11
                0x0000000007085fd0                ccm_dl_ZAAAAAAAAAChompCage_mesh_layer_1_tri_10
                0x0000000007086078                ccm_dl_ZAAAAAAAAAChompCage_mesh_layer_1_vtx_10
                0x0000000007086238                ccm_dl_ZAAAAAAAAAChompCage_mesh_layer_1_tri_9
                0x00000000070862b8                ccm_dl_ZAAAAAAAAAChompCage_mesh_layer_1_vtx_9
                0x0000000007086598                ccm_dl_ZAAAAAAAAAChompCage_mesh_layer_1_tri_8
                0x0000000007086608                ccm_dl_ZAAAAAAAAAChompCage_mesh_layer_1_vtx_8
                0x0000000007086798                ccm_dl_ZAAAAAAAAAChompCage_mesh_layer_1_tri_7
                0x00000000070867f0                ccm_dl_ZAAAAAAAAAChompCage_mesh_layer_1_vtx_7
                0x0000000007086930                ccm_dl_ZAAAAAAAAAChompCage_mesh_layer_1_tri_6
                0x0000000007086a68                ccm_dl_ZAAAAAAAAAChompCage_mesh_layer_1_vtx_6
                0x0000000007087008                ccm_dl_ZAAAAAAAAAChompCage_mesh_layer_1_tri_5
                0x0000000007087040                ccm_dl_ZAAAAAAAAAChompCage_mesh_layer_1_vtx_5
                0x0000000007087120                ccm_dl_ZAAAAAAAAAChompCage_mesh_layer_1_tri_4
                0x0000000007087178                ccm_dl_ZAAAAAAAAAChompCage_mesh_layer_1_vtx_4
                0x0000000007087318                ccm_dl_ZAAAAAAAAAChompCage_mesh_layer_1_tri_3
                0x0000000007087378                ccm_dl_ZAAAAAAAAAChompCage_mesh_layer_1_vtx_3
                0x00000000070874b8                ccm_dl_ZAAAAAAAAAChompCage_mesh_layer_1_tri_2
                0x0000000007087518                ccm_dl_ZAAAAAAAAAChompCage_mesh_layer_1_vtx_2
                0x00000000070876c8                ccm_dl_ZAAAAAAAAAChompCage_mesh_layer_1_tri_1
                0x00000000070876e8                ccm_dl_ZAAAAAAAAAChompCage_mesh_layer_1_vtx_1
                0x0000000007087738                ccm_dl_ZAAAAAAAAAChompCage_mesh_layer_1_tri_0
                0x0000000007087770                ccm_dl_ZAAAAAAAAAChompCage_mesh_layer_1_vtx_0
                0x0000000007087870                ccm_dl_ZAAAAAAAAAChompCage_mesh_layer_1_vtx_cull
                0x00000000070878f0                ccm_dl_waterstill_mesh_layer_5_tri_1
                0x0000000007087908                ccm_dl_waterstill_mesh_layer_5_vtx_1
                0x0000000007087948                ccm_dl_waterstill_mesh_layer_5_tri_0
                0x0000000007087970                ccm_dl_waterstill_mesh_layer_5_vtx_0
                0x00000000070879f0                ccm_dl_WaterAnimation_mesh_layer_5_tri_0
                0x0000000007087a60                ccm_dl_WaterAnimation_mesh_layer_5_vtx_0
                0x0000000007087b70                ccm_dl_Plane_008_mesh_layer_1_tri_3
                0x0000000007087be0                ccm_dl_Plane_008_mesh_layer_1_vtx_3
                0x0000000007087dd0                ccm_dl_Plane_008_mesh_layer_1_tri_2
                0x0000000007087ed0                ccm_dl_Plane_008_mesh_layer_1_vtx_2
                0x0000000007088370                ccm_dl_Plane_008_mesh_layer_1_tri_1
                0x00000000070883f0                ccm_dl_Plane_008_mesh_layer_1_vtx_1
                0x0000000007088680                ccm_dl_Plane_008_mesh_layer_1_tri_0
                0x00000000070886c8                ccm_dl_Plane_008_mesh_layer_1_vtx_0
                0x0000000007088788                ccm_dl_Plane_008_mesh_layer_1_vtx_cull
                0x0000000007088808                ccm_dl_n14b8_001_mesh_layer_1_tri_0
                0x0000000007088920                ccm_dl_n14b8_001_mesh_layer_1_vtx_0
                0x0000000007088c20                ccm_dl_n14b8_001_mesh_layer_1_vtx_cull
                0x0000000007088ca0                ccm_dl_BackGround_mesh_layer_0_tri_1
                0x0000000007088d58                ccm_dl_BackGround_mesh_layer_0_vtx_1
                0x0000000007089038                ccm_dl_BackGround_mesh_layer_0_tri_0
                0x0000000007089670                ccm_dl_BackGround_mesh_layer_0_vtx_0
                0x0000000007089af0                ccm_dl_AWarioHouse_mesh_layer_1_tri_4
                0x0000000007089b08                ccm_dl_AWarioHouse_mesh_layer_1_vtx_4
                0x0000000007089b48                ccm_dl_AWarioHouse_mesh_layer_1_tri_3
                0x0000000007089cd0                ccm_dl_AWarioHouse_mesh_layer_1_vtx_3
                0x0000000007089e40                ccm_dl_AWarioHouse_mesh_layer_1_tri_2
                0x0000000007089e80                ccm_dl_AWarioHouse_mesh_layer_1_vtx_2
                0x0000000007089f60                ccm_dl_AWarioHouse_mesh_layer_1_tri_1
                0x0000000007089f78                ccm_dl_AWarioHouse_mesh_layer_1_vtx_1
                0x0000000007089fb8                ccm_dl_AWarioHouse_mesh_layer_1_tri_0
                0x000000000708a010                ccm_dl_AWarioHouse_mesh_layer_1_vtx_0
                0x000000000708a130                ccm_dl_AWarioHouse_mesh_layer_1_vtx_cull
                0x000000000708a1b0                ccm_dl_AStones_mesh_layer_4_tri_0
                0x000000000708a318                ccm_dl_AStones_mesh_layer_4_vtx_0
                0x000000000708a418                ccm_dl_AStones_mesh_layer_4_vtx_cull
                0x000000000708a498                ccm_dl_AStones_mesh_layer_1_tri_2
                0x000000000708a4e0                ccm_dl_AStones_mesh_layer_1_vtx_2
                0x000000000708a5f0                ccm_dl_AStones_mesh_layer_1_tri_1
                0x000000000708a610                ccm_dl_AStones_mesh_layer_1_vtx_1
                0x000000000708a670                ccm_dl_AStones_mesh_layer_1_tri_0
                0x000000000708a6c0                ccm_dl_AStones_mesh_layer_1_vtx_0
                0x000000000708a800                ccm_dl_AStones_mesh_layer_1_vtx_cull
                0x000000000708a880                ccm_dl_AAAAAAAAAGras_002_mesh_layer_4_tri_9
                0x000000000708a9b8                ccm_dl_AAAAAAAAAGras_002_mesh_layer_4_vtx_9
                0x000000000708b1f8                ccm_dl_AAAAAAAAAGras_002_mesh_layer_4_tri_8
                0x000000000708b278                ccm_dl_AAAAAAAAAGras_002_mesh_layer_4_vtx_8
                0x000000000708b6f8                ccm_dl_AAAAAAAAAGras_002_mesh_layer_4_tri_7
                0x000000000708b7d8                ccm_dl_AAAAAAAAAGras_002_mesh_layer_4_vtx_7
                0x000000000708bc58                ccm_dl_AAAAAAAAAGras_002_mesh_layer_4_tri_6
                0x000000000708bd10                ccm_dl_AAAAAAAAAGras_002_mesh_layer_4_vtx_6
                0x000000000708c3a0                ccm_dl_AAAAAAAAAGras_002_mesh_layer_4_tri_5
                0x000000000708c3d0                ccm_dl_AAAAAAAAAGras_002_mesh_layer_4_vtx_5
                0x000000000708c4d0                ccm_dl_AAAAAAAAAGras_002_mesh_layer_4_tri_4
                0x000000000708c530                ccm_dl_AAAAAAAAAGras_002_mesh_layer_4_vtx_4
                0x000000000708c6f0                ccm_dl_AAAAAAAAAGras_002_mesh_layer_4_tri_3
                0x000000000708c780                ccm_dl_AAAAAAAAAGras_002_mesh_layer_4_vtx_3
                0x000000000708ca00                ccm_dl_AAAAAAAAAGras_002_mesh_layer_4_tri_2
                0x000000000708ca58                ccm_dl_AAAAAAAAAGras_002_mesh_layer_4_vtx_2
                0x000000000708cbd8                ccm_dl_AAAAAAAAAGras_002_mesh_layer_4_tri_1
                0x000000000708cc38                ccm_dl_AAAAAAAAAGras_002_mesh_layer_4_vtx_1
                0x000000000708cda8                ccm_dl_AAAAAAAAAGras_002_mesh_layer_4_tri_0
                0x000000000708ce20                ccm_dl_AAAAAAAAAGras_002_mesh_layer_4_vtx_0
                0x000000000708d0d0                ccm_dl_AAAAAAAAAGras_001_mesh_layer_1_tri_12
                0x000000000708d100                ccm_dl_AAAAAAAAAGras_001_mesh_layer_1_vtx_12
                0x000000000708d170                ccm_dl_AAAAAAAAAGras_001_mesh_layer_1_tri_11
                0x000000000708d1e8                ccm_dl_AAAAAAAAAGras_001_mesh_layer_1_vtx_11
                0x000000000708d328                ccm_dl_AAAAAAAAAGras_001_mesh_layer_1_tri_10
                0x000000000708d378                ccm_dl_AAAAAAAAAGras_001_mesh_layer_1_vtx_10
                0x000000000708d4b8                ccm_dl_AAAAAAAAAGras_001_mesh_layer_1_tri_9
                0x000000000708d530                ccm_dl_AAAAAAAAAGras_001_mesh_layer_1_vtx_9
                0x000000000708d7a0                ccm_dl_AAAAAAAAAGras_001_mesh_layer_1_tri_8
                0x000000000708d830                ccm_dl_AAAAAAAAAGras_001_mesh_layer_1_vtx_8
                0x000000000708da90                ccm_dl_AAAAAAAAAGras_001_mesh_layer_1_tri_7
                0x000000000708daf0                ccm_dl_AAAAAAAAAGras_001_mesh_layer_1_vtx_7
                0x000000000708dc70                ccm_dl_AAAAAAAAAGras_001_mesh_layer_1_tri_6
                0x000000000708ddd0                ccm_dl_AAAAAAAAAGras_001_mesh_layer_1_vtx_6
                0x000000000708e450                ccm_dl_AAAAAAAAAGras_001_mesh_layer_1_tri_5
                0x000000000708e4a0                ccm_dl_AAAAAAAAAGras_001_mesh_layer_1_vtx_5
                0x000000000708e710                ccm_dl_AAAAAAAAAGras_001_mesh_layer_1_tri_4
                0x000000000708e798                ccm_dl_AAAAAAAAAGras_001_mesh_layer_1_vtx_4
                0x000000000708e9f8                ccm_dl_AAAAAAAAAGras_001_mesh_layer_1_tri_3
                0x000000000708ea40                ccm_dl_AAAAAAAAAGras_001_mesh_layer_1_vtx_3
                0x000000000708ec00                ccm_dl_AAAAAAAAAGras_001_mesh_layer_1_tri_2
                0x000000000708ed40                ccm_dl_AAAAAAAAAGras_001_mesh_layer_1_vtx_2
                0x000000000708f2c0                ccm_dl_AAAAAAAAAGras_001_mesh_layer_1_tri_1
                0x000000000708f2e0                ccm_dl_AAAAAAAAAGras_001_mesh_layer_1_vtx_1
                0x000000000708f350                ccm_dl_AAAAAAAAAGras_001_mesh_layer_1_tri_0
                0x000000000708f390                ccm_dl_AAAAAAAAAGras_001_mesh_layer_1_vtx_0
                0x000000000708f4b0                ccm_dl_AAAAAAAAAGras_001_mesh_layer_1_vtx_cull
                0x000000000708f530                ccm_dl_AAAAAAAAAGoombaCage_001_mesh_layer_6_tri_3
                0x000000000708f578                ccm_dl_AAAAAAAAAGoombaCage_001_mesh_layer_6_vtx_3
                0x000000000708f738                ccm_dl_AAAAAAAAAGoombaCage_001_mesh_layer_6_tri_2
                0x000000000708f8a0                ccm_dl_AAAAAAAAAGoombaCage_001_mesh_layer_6_vtx_2
                0x000000000708f9a0                ccm_dl_AAAAAAAAAGoombaCage_001_mesh_layer_6_tri_1
                0x000000000708f9c0                ccm_dl_AAAAAAAAAGoombaCage_001_mesh_layer_6_vtx_1
                0x000000000708fa40                ccm_dl_AAAAAAAAAGoombaCage_001_mesh_layer_6_tri_0
                0x000000000708fa60                ccm_dl_AAAAAAAAAGoombaCage_001_mesh_layer_6_vtx_0
                0x000000000708fae0                ccm_dl_AAAAAAAAAGoombaCage_mesh_layer_1_tri_10
                0x000000000708faf8                ccm_dl_AAAAAAAAAGoombaCage_mesh_layer_1_vtx_10
                0x000000000708fb38                ccm_dl_AAAAAAAAAGoombaCage_mesh_layer_1_tri_9
                0x000000000708fb68                ccm_dl_AAAAAAAAAGoombaCage_mesh_layer_1_vtx_9
                0x000000000708fc28                ccm_dl_AAAAAAAAAGoombaCage_mesh_layer_1_tri_8
                0x000000000708fc48                ccm_dl_AAAAAAAAAGoombaCage_mesh_layer_1_vtx_8
                0x000000000708fca8                ccm_dl_AAAAAAAAAGoombaCage_mesh_layer_1_tri_7
                0x000000000708fcd0                ccm_dl_AAAAAAAAAGoombaCage_mesh_layer_1_vtx_7
                0x000000000708fd30                ccm_dl_AAAAAAAAAGoombaCage_mesh_layer_1_tri_6
                0x000000000708fdd8                ccm_dl_AAAAAAAAAGoombaCage_mesh_layer_1_vtx_6
                0x000000000708ff98                ccm_dl_AAAAAAAAAGoombaCage_mesh_layer_1_tri_5
                0x000000000708ffc8                ccm_dl_AAAAAAAAAGoombaCage_mesh_layer_1_vtx_5
                0x0000000007090068                ccm_dl_AAAAAAAAAGoombaCage_mesh_layer_1_tri_4
                0x00000000070900d0                ccm_dl_AAAAAAAAAGoombaCage_mesh_layer_1_vtx_4
                0x00000000070902b0                ccm_dl_AAAAAAAAAGoombaCage_mesh_layer_1_tri_3
                0x00000000070902e8                ccm_dl_AAAAAAAAAGoombaCage_mesh_layer_1_vtx_3
                0x00000000070903f8                ccm_dl_AAAAAAAAAGoombaCage_mesh_layer_1_tri_2
                0x0000000007090428                ccm_dl_AAAAAAAAAGoombaCage_mesh_layer_1_vtx_2
                0x00000000070904a8                ccm_dl_AAAAAAAAAGoombaCage_mesh_layer_1_tri_1
                0x00000000070904c0                ccm_dl_AAAAAAAAAGoombaCage_mesh_layer_1_vtx_1
                0x0000000007090500                ccm_dl_AAAAAAAAAGoombaCage_mesh_layer_1_tri_0
                0x0000000007090520                ccm_dl_AAAAAAAAAGoombaCage_mesh_layer_1_vtx_0
                0x0000000007090580                ccm_dl_AAAAAAAAAGoombaCage_mesh_layer_1_vtx_cull
                0x0000000007090600                ccm_dl_AAAAAAAAAAAAAAAAAAAAAAAZipLine_003_mesh_layer_1_tri_12
                0x0000000007090648                ccm_dl_AAAAAAAAAAAAAAAAAAAAAAAZipLine_003_mesh_layer_1_vtx_12
                0x0000000007090788                ccm_dl_AAAAAAAAAAAAAAAAAAAAAAAZipLine_003_mesh_layer_1_tri_11
                0x00000000070907c0                ccm_dl_AAAAAAAAAAAAAAAAAAAAAAAZipLine_003_mesh_layer_1_vtx_11
                0x00000000070908c0                ccm_dl_AAAAAAAAAAAAAAAAAAAAAAAZipLine_003_mesh_layer_1_tri_10
                0x0000000007090a48                ccm_dl_AAAAAAAAAAAAAAAAAAAAAAAZipLine_003_mesh_layer_1_vtx_10
                0x0000000007090bc8                ccm_dl_AAAAAAAAAAAAAAAAAAAAAAAZipLine_003_mesh_layer_1_tri_9
                0x0000000007090c18                ccm_dl_AAAAAAAAAAAAAAAAAAAAAAAZipLine_003_mesh_layer_1_vtx_9
                0x0000000007090d98                ccm_dl_AAAAAAAAAAAAAAAAAAAAAAAZipLine_003_mesh_layer_1_tri_8
                0x0000000007090db0                ccm_dl_AAAAAAAAAAAAAAAAAAAAAAAZipLine_003_mesh_layer_1_vtx_8
                0x0000000007090df0                ccm_dl_AAAAAAAAAAAAAAAAAAAAAAAZipLine_003_mesh_layer_1_tri_7
                0x0000000007090e08                ccm_dl_AAAAAAAAAAAAAAAAAAAAAAAZipLine_003_mesh_layer_1_vtx_7
                0x0000000007090e48                ccm_dl_AAAAAAAAAAAAAAAAAAAAAAAZipLine_003_mesh_layer_1_tri_6
                0x0000000007090e60                ccm_dl_AAAAAAAAAAAAAAAAAAAAAAAZipLine_003_mesh_layer_1_vtx_6
                0x0000000007090ea0                ccm_dl_AAAAAAAAAAAAAAAAAAAAAAAZipLine_003_mesh_layer_1_tri_5
                0x0000000007090eb8                ccm_dl_AAAAAAAAAAAAAAAAAAAAAAAZipLine_003_mesh_layer_1_vtx_5
                0x0000000007090ef8                ccm_dl_AAAAAAAAAAAAAAAAAAAAAAAZipLine_003_mesh_layer_1_tri_4
                0x0000000007090f68                ccm_dl_AAAAAAAAAAAAAAAAAAAAAAAZipLine_003_mesh_layer_1_vtx_4
                0x00000000070911a8                ccm_dl_AAAAAAAAAAAAAAAAAAAAAAAZipLine_003_mesh_layer_1_tri_3
                0x00000000070912b8                ccm_dl_AAAAAAAAAAAAAAAAAAAAAAAZipLine_003_mesh_layer_1_vtx_3
                0x0000000007091758                ccm_dl_AAAAAAAAAAAAAAAAAAAAAAAZipLine_003_mesh_layer_1_tri_2
                0x0000000007091780                ccm_dl_AAAAAAAAAAAAAAAAAAAAAAAZipLine_003_mesh_layer_1_vtx_2
                0x0000000007091800                ccm_dl_AAAAAAAAAAAAAAAAAAAAAAAZipLine_003_mesh_layer_1_tri_1
                0x0000000007091828                ccm_dl_AAAAAAAAAAAAAAAAAAAAAAAZipLine_003_mesh_layer_1_vtx_1
                0x00000000070918c8                ccm_dl_AAAAAAAAAAAAAAAAAAAAAAAZipLine_003_mesh_layer_1_tri_0
                0x0000000007091958                ccm_dl_AAAAAAAAAAAAAAAAAAAAAAAZipLine_003_mesh_layer_1_vtx_0
                0x0000000007091c38                ccm_dl_AAAAAAAAAAAAAAAAAAAAAAAZipLine_003_mesh_layer_1_vtx_cull
                0x0000000007091cb8                ccm_dl_AAAAAAAAAAAAAAAAAAAAAAAZipLine_002_mesh_layer_1_tri_3
                0x0000000007091cd8                ccm_dl_AAAAAAAAAAAAAAAAAAAAAAAZipLine_002_mesh_layer_1_vtx_3
                0x0000000007091d38                ccm_dl_AAAAAAAAAAAAAAAAAAAAAAAZipLine_002_mesh_layer_1_tri_2
                0x0000000007091d60                ccm_dl_AAAAAAAAAAAAAAAAAAAAAAAZipLine_002_mesh_layer_1_vtx_2
                0x0000000007091e00                ccm_dl_AAAAAAAAAAAAAAAAAAAAAAAZipLine_002_mesh_layer_1_tri_1
                0x0000000007091e90                ccm_dl_AAAAAAAAAAAAAAAAAAAAAAAZipLine_002_mesh_layer_1_vtx_1
                0x0000000007092170                ccm_dl_AAAAAAAAAAAAAAAAAAAAAAAZipLine_002_mesh_layer_1_tri_0
                0x00000000070921a8                ccm_dl_AAAAAAAAAAAAAAAAAAAAAAAZipLine_002_mesh_layer_1_vtx_0
                0x0000000007092228                ccm_dl_AAAAAAAAAAAAAAAAAAAAAAAZipLine_002_mesh_layer_1_vtx_cull
                0x00000000070922a8                ccm_dl_window_ia8
                0x0000000007092aa8                ccm_dl_window_ia8_aligner
                0x0000000007092ab0                ccm_dl_spike_ia8
                0x0000000007092b30                ccm_dl_spike_ia8_aligner
                0x0000000007092b38                ccm_dl_bickbrick_i8
                0x0000000007092d38                ccm_dl_bickbrick_i8_aligner
                0x0000000007092d40                ccm_dl_goombabrick_i8
                0x0000000007092e40                ccm_dl_goombabrick_i8_aligner
                0x0000000007092e48                ccm_dl_bigbrick_i8
                0x0000000007093248                ccm_dl_bigbrick_i8_aligner
                0x0000000007093250                ccm_dl_bricks_i8
                0x0000000007093350                ccm_dl_bricks_i8_aligner
                0x0000000007093358                ccm_dl_lava_i8
                0x0000000007093758                ccm_dl_lava_i8_aligner
                0x0000000007093760                ccm_dl_piranha_ia8
                0x0000000007093860                ccm_dl_piranha_ia8_aligner
                0x0000000007093868                ccm_dl_pillar_ia8
                0x0000000007093968                ccm_dl_pillar_ia8_aligner
                0x0000000007093970                ccm_dl_PENGUINdsjhvgS_ia8
                0x0000000007094970                ccm_dl_PENGUINdsjhvgS_ia8_aligner
                0x0000000007094978                ccm_dl_Windfish_ci4_pal_rgba16
                0x0000000007094998                ccm_dl_Windfish_ci4_pal_rgba16_aligner
                0x00000000070949a0                ccm_dl_Windfish_ci4
                0x00000000070951a0                ccm_dl_Windfish_ci4_aligner
                0x00000000070951a8                ccm_dl_Block_04358_ci8_pal_rgba16
                0x0000000007095258                ccm_dl_Block_04358_ci8_pal_rgba16_aligner
                0x0000000007095260                ccm_dl_Block_04358_ci8
                0x0000000007095a60                ccm_dl_Block_04358_ci8_aligner
                0x0000000007095a68                ccm_dl_poggia_piedi_1_1_32x32_ci8_pal_rgba16
                0x0000000007095bd8                ccm_dl_poggia_piedi_1_1_32x32_ci8_pal_rgba16_aligner
                0x0000000007095be0                ccm_dl_poggia_piedi_1_1_32x32_ci8
                0x0000000007095fe0                ccm_dl_poggia_piedi_1_1_32x32_ci8_aligner
                0x0000000007095fe8                ccm_dl_black_i8
                0x00000000070967e8                ccm_dl_black_i8_aligner
                0x00000000070967f0                ccm_dl_tex1_64x64_1fbd8a6b46051e70_14_i8
                0x00000000070977f0                ccm_dl_tex1_64x64_1fbd8a6b46051e70_14_i8_aligner
                0x00000000070977f8                ccm_dl__1e4f2000_fmt0431_slice0_mip00_512x256_tm04_ci8_pal_rgba16
                0x0000000007097838                ccm_dl__1e4f2000_fmt0431_slice0_mip00_512x256_tm04_ci8_pal_rgba16_aligner
                0x0000000007097840                ccm_dl__1e4f2000_fmt0431_slice0_mip00_512x256_tm04_ci8
                0x0000000007098040                ccm_dl__1e4f2000_fmt0431_slice0_mip00_512x256_tm04_ci8_aligner
                0x0000000007098048                ccm_dl__756456GBA_ci8_pal_rgba16
                0x0000000007098088                ccm_dl__756456GBA_ci8_pal_rgba16_aligner
                0x0000000007098090                ccm_dl__756456GBA_ci8
                0x0000000007098490                ccm_dl__756456GBA_ci8_aligner
                0x0000000007098498                ccm_dl_M_BPdokan_ci8_pal_rgba16
                0x00000000070984f0                ccm_dl_M_BPdokan_ci8_pal_rgba16_aligner
                0x00000000070984f8                ccm_dl_M_BPdokan_ci8
                0x00000000070988f8                ccm_dl_M_BPdokan_ci8_aligner
                0x0000000007098900                ccm_dl__3743576_ci4_pal_rgba16
                0x0000000007098910                ccm_dl__3743576_ci4_pal_rgba16_aligner
                0x0000000007098918                ccm_dl__3743576_ci4
                0x0000000007099118                ccm_dl__3743576_ci4_aligner
                0x0000000007099120                ccm_dl_panelflame_spm_i8
                0x0000000007099920                ccm_dl_panelflame_spm_i8_aligner
                0x0000000007099928                ccm_dl_Glover_F2660A8A_0_0_88918D8D_ciByRGBA_ci4_pal_rgba16
                0x0000000007099930                ccm_dl_Glover_F2660A8A_0_0_88918D8D_ciByRGBA_ci4_pal_rgba16_aligner
                0x0000000007099938                ccm_dl_Glover_F2660A8A_0_0_88918D8D_ciByRGBA_ci4
                0x0000000007099b38                ccm_dl_Glover_F2660A8A_0_0_88918D8D_ciByRGBA_ci4_aligner
                0x0000000007099b40                ccm_dl_BOMBERMAN_HERO_4BC848B4_2_0_635EF901_ciByRGBA_ci4_pal_rgba16
                0x0000000007099b60                ccm_dl_BOMBERMAN_HERO_4BC848B4_2_0_635EF901_ciByRGBA_ci4_pal_rgba16_aligner
                0x0000000007099b68                ccm_dl_BOMBERMAN_HERO_4BC848B4_2_0_635EF901_ciByRGBA_ci4
                0x0000000007099d68                ccm_dl_BOMBERMAN_HERO_4BC848B4_2_0_635EF901_ciByRGBA_ci4_aligner
                0x0000000007099d70                ccm_dl_peach_star_alb_i8
                0x000000000709ad70                ccm_dl_peach_star_alb_i8_aligner
                0x000000000709ad78                ccm_dl_SCPStone04_i8
                0x000000000709bd78                ccm_dl_SCPStone04_i8_aligner
                0x000000000709bd80                ccm_dl__79B04EE1_c_ci4_pal_rgba16
                0x000000000709bda0                ccm_dl__79B04EE1_c_ci4_pal_rgba16_aligner
                0x000000000709bda8                ccm_dl__79B04EE1_c_ci4
                0x000000000709bdc8                ccm_dl__79B04EE1_c_ci4_aligner
                0x000000000709bdd0                ccm_dl__675E4625_c_ci8_pal_rgba16
                0x000000000709be58                ccm_dl__675E4625_c_ci8_pal_rgba16_aligner
                0x000000000709be60                ccm_dl__675E4625_c_ci8
                0x000000000709c260                ccm_dl__675E4625_c_ci8_aligner
                0x000000000709c268                ccm_dl__26771D38_c_ci8_pal_rgba16
                0x000000000709c330                ccm_dl__26771D38_c_ci8_pal_rgba16_aligner
                0x000000000709c338                ccm_dl__26771D38_c_ci8
                0x000000000709c738                ccm_dl__26771D38_c_ci8_aligner
                0x000000000709c740                ccm_dl__1D5BB80B_c_ci8_pal_rgba16
                0x000000000709c838                ccm_dl__1D5BB80B_c_ci8_pal_rgba16_aligner
                0x000000000709c840                ccm_dl__1D5BB80B_c_ci8
                0x000000000709cc40                ccm_dl__1D5BB80B_c_ci8_aligner
                0x000000000709cc48                ccm_dl_marine4_rgba16
                0x000000000709dc48                ccm_dl_marine4_rgba16_aligner
                0x000000000709dc50                ccm_dl_marine3_ci4_pal_rgba16
                0x000000000709dc60                ccm_dl_marine3_ci4_pal_rgba16_aligner
                0x000000000709dc68                ccm_dl_marine3_ci4
                0x000000000709dce8                ccm_dl_marine3_ci4_aligner
                0x000000000709dcf0                ccm_dl_Unbenannt_2_rgba16_copy
                0x000000000709e4f0                ccm_dl_Unbenannt_2_rgba16_copy_aligner
                0x000000000709e4f8                ccm_dl_submarine1_ci8_pal_rgba16
                0x000000000709e530                ccm_dl_submarine1_ci8_pal_rgba16_aligner
                0x000000000709e538                ccm_dl_submarine1_ci8
                0x000000000709e638                ccm_dl_submarine1_ci8_aligner
                0x000000000709e640                ccm_dl__3a89d000_fmt0034_slice0_mip00_512x512_tm04_ci4_pal_rgba16
                0x000000000709e650                ccm_dl__3a89d000_fmt0034_slice0_mip00_512x512_tm04_ci4_pal_rgba16_aligner
                0x000000000709e658                ccm_dl__3a89d000_fmt0034_slice0_mip00_512x512_tm04_ci4
                0x000000000709ee58                ccm_dl__3a89d000_fmt0034_slice0_mip00_512x512_tm04_ci4_aligner
                0x000000000709ee60                ccm_dl_GMSE01_3b7e570a_14_ci8_pal_rgba16
                0x000000000709eee0                ccm_dl_GMSE01_3b7e570a_14_ci8_pal_rgba16_aligner
                0x000000000709eee8                ccm_dl_GMSE01_3b7e570a_14_ci8
                0x000000000709f2e8                ccm_dl_GMSE01_3b7e570a_14_ci8_aligner
                0x000000000709f2f0                ccm_dl_tempImgEd041F_ci8_pal_rgba16
                0x000000000709f3e0                ccm_dl_tempImgEd041F_ci8_pal_rgba16_aligner
                0x000000000709f3e8                ccm_dl_tempImgEd041F_ci8
                0x000000000709fbe8                ccm_dl_tempImgEd041F_ci8_aligner
                0x000000000709fbf0                ccm_dl_t0115_0_ci4_pal_rgba16
                0x000000000709fc08                ccm_dl_t0115_0_ci4_pal_rgba16_aligner
                0x000000000709fc10                ccm_dl_t0115_0_ci4
                0x00000000070a0410                ccm_dl_t0115_0_ci4_aligner
                0x00000000070a0418                ccm_dl_ripple2_i4
                0x00000000070a0c18                ccm_dl_ripple2_i4_aligner
                0x00000000070a0c20                ccm_dl_ripple1_i4
                0x00000000070a1420                ccm_dl_ripple1_i4_aligner
                0x00000000070a1428                ccm_dl__9149b880_ci4_pal_rgba16
                0x00000000070a1448                ccm_dl__9149b880_ci4_pal_rgba16_aligner
                0x00000000070a1450                ccm_dl__9149b880_ci4
                0x00000000070a1850                ccm_dl__9149b880_ci4_aligner
                0x00000000070a1858                ccm_dl_f295fedb_ci4_pal_rgba16
                0x00000000070a1868                ccm_dl_f295fedb_ci4_pal_rgba16_aligner
                0x00000000070a1870                ccm_dl_f295fedb_ci4
                0x00000000070a18f0                ccm_dl_f295fedb_ci4_aligner
                0x00000000070a18f8                ccm_dl_coin_ci4_pal_rgba16
                0x00000000070a1918                ccm_dl_coin_ci4_pal_rgba16_aligner
                0x00000000070a1920                ccm_dl_coin_ci4
                0x00000000070a19a0                ccm_dl_coin_ci4_aligner
                0x00000000070a19a8                ccm_dl_GALE01_615c7f2c_9_ci4_pal_rgba16
                0x00000000070a19c8                ccm_dl_GALE01_615c7f2c_9_ci4_pal_rgba16_aligner
                0x00000000070a19d0                ccm_dl_GALE01_615c7f2c_9_ci4
                0x00000000070a21d0                ccm_dl_GALE01_615c7f2c_9_ci4_aligner
                0x00000000070a21d8                ccm_dl_dsaf_logs_ci8_pal_rgba16
                0x00000000070a2250                ccm_dl_dsaf_logs_ci8_pal_rgba16_aligner
                0x00000000070a2258                ccm_dl_dsaf_logs_ci8
                0x00000000070a2a58                ccm_dl_dsaf_logs_ci8_aligner
                0x00000000070a2a60                ccm_dl_tex1_128x128_m_8afdc43e9b2f4b63_14_ci4_pal_rgba16
                0x00000000070a2a80                ccm_dl_tex1_128x128_m_8afdc43e9b2f4b63_14_ci4_pal_rgba16_aligner
                0x00000000070a2a88                ccm_dl_tex1_128x128_m_8afdc43e9b2f4b63_14_ci4
                0x00000000070a3288                ccm_dl_tex1_128x128_m_8afdc43e9b2f4b63_14_ci4_aligner
                0x00000000070a3290                ccm_dl_RMGP01_55a4517a_14_i8
                0x00000000070a4290                ccm_dl_RMGP01_55a4517a_14_i8_aligner
                0x00000000070a4298                ccm_dl_beach_corail1_txy_nz_ia8
                0x00000000070a5298                ccm_dl_beach_corail1_txy_nz_ia8_aligner
                0x00000000070a52a0                ccm_dl__09F43646A102E86B01FCD62E8550FD44_ia8
                0x00000000070a62a0                ccm_dl__09F43646A102E86B01FCD62E8550FD44_ia8_aligner
                0x00000000070a62a8                ccm_dl_aquasign_bloop_ci8_pal_rgba16
                0x00000000070a6388                ccm_dl_aquasign_bloop_ci8_pal_rgba16_aligner
                0x00000000070a6390                ccm_dl_aquasign_bloop_ci8
                0x00000000070a6b90                ccm_dl_aquasign_bloop_ci8_aligner
                0x00000000070a6b98                ccm_dl_asdgdasgTxa_ita3mai_a_ci4_pal_rgba16
                0x00000000070a6bb8                ccm_dl_asdgdasgTxa_ita3mai_a_ci4_pal_rgba16_aligner
                0x00000000070a6bc0                ccm_dl_asdgdasgTxa_ita3mai_a_ci4
                0x00000000070a73c0                ccm_dl_asdgdasgTxa_ita3mai_a_ci4_aligner
                0x00000000070a73c8                ccm_dl__8_ci8_pal_rgba16
                0x00000000070a7410                ccm_dl__8_ci8_pal_rgba16_aligner
                0x00000000070a7418                ccm_dl__8_ci8
                0x00000000070a7818                ccm_dl__8_ci8_aligner
                0x00000000070a7820                ccm_dl__9_ci8_pal_rgba16
                0x00000000070a78d0                ccm_dl__9_ci8_pal_rgba16_aligner
                0x00000000070a78d8                ccm_dl__9_ci8
                0x00000000070a7cd8                ccm_dl__9_ci8_aligner
                0x00000000070a7ce0                ccm_dl_rock_b_ci8_pal_rgba16
                0x00000000070a7d50                ccm_dl_rock_b_ci8_pal_rgba16_aligner
                0x00000000070a7d58                ccm_dl_rock_b_ci8
                0x00000000070a8158                ccm_dl_rock_b_ci8_aligner
                0x00000000070a8160                ccm_dl_GrassTestie_i4
                0x00000000070a8960                ccm_dl_GrassTestie_i4_aligner
                0x00000000070a8968                ccm_dl_driftsand_alb_i4
                0x00000000070a9168                ccm_dl_driftsand_alb_i4_aligner
                0x00000000070a9170                ccm_dl_RMGP01_33981d99_14_i8_copy
                0x00000000070a9570                ccm_dl_RMGP01_33981d99_14_i8_copy_aligner
                0x00000000070a9578                ccm_dl_GrdSamus1Floor3_i4
                0x00000000070aa578                ccm_dl_GrdSamus1Floor3_i4_aligner
                0x00000000070aa580                ccm_dl__1e4c8000_fmt0431_slice0_mip00_256x256_tm04_i8
                0x00000000070ab580                ccm_dl__1e4c8000_fmt0431_slice0_mip00_256x256_tm04_i8_aligner
                0x00000000070ab588                ccm_dl_etc_my03_cloudnoise_dif_i8
                0x00000000070ac588                ccm_dl_etc_my03_cloudnoise_dif_i8_aligner
                0x00000000070ac590                ccm_dl__1e6e7000_fmt0431_slice0_mip00_64x64_tm04_ci4_pal_rgba16
                0x00000000070ac5a8                ccm_dl__1e6e7000_fmt0431_slice0_mip00_64x64_tm04_ci4_pal_rgba16_aligner
                0x00000000070ac5b0                ccm_dl__1e6e7000_fmt0431_slice0_mip00_64x64_tm04_ci4
                0x00000000070acdb0                ccm_dl__1e6e7000_fmt0431_slice0_mip00_64x64_tm04_ci4_aligner
                0x00000000070acdb8                ccm_dl_RMGP01_88dc0f53_14_ci8_pal_rgba16
                0x00000000070acde8                ccm_dl_RMGP01_88dc0f53_14_ci8_pal_rgba16_aligner
                0x00000000070acdf0                ccm_dl_RMGP01_88dc0f53_14_ci8
                0x00000000070ad1f0                ccm_dl_RMGP01_88dc0f53_14_ci8_aligner
                0x00000000070ad1f8                ccm_dl_tex1_128x128_m_b02c27165b9e7bde_5_mip2_ci8_pal_rgba16
                0x00000000070ad278                ccm_dl_tex1_128x128_m_b02c27165b9e7bde_5_mip2_ci8_pal_rgba16_aligner
                0x00000000070ad280                ccm_dl_tex1_128x128_m_b02c27165b9e7bde_5_mip2_ci8
                0x00000000070ad680                ccm_dl_tex1_128x128_m_b02c27165b9e7bde_5_mip2_ci8_aligner
                0x00000000070ad688                ccm_dl__3507736_ci4_pal_rgba16
                0x00000000070ad6a8                ccm_dl__3507736_ci4_pal_rgba16_aligner
                0x00000000070ad6b0                ccm_dl__3507736_ci4
                0x00000000070adeb0                ccm_dl__3507736_ci4_aligner
                0x00000000070adeb8                ccm_dl_LEGORacers_BCABA69C_2_0_CD4D6167_ci_i8
                0x00000000070aeeb8                ccm_dl_LEGORacers_BCABA69C_2_0_CD4D6167_ci_i8_aligner
                0x00000000070aeec0                ccm_dl_SUPER_MARIO_64_D10D7B85_0_2_all_no_borders_ci4_pal_rgba16
                0x00000000070aeee0                ccm_dl_SUPER_MARIO_64_D10D7B85_0_2_all_no_borders_ci4_pal_rgba16_aligner
                0x00000000070aeee8                ccm_dl_SUPER_MARIO_64_D10D7B85_0_2_all_no_borders_ci4
                0x00000000070af6e8                ccm_dl_SUPER_MARIO_64_D10D7B85_0_2_all_no_borders_ci4_aligner
                0x00000000070af6f0                ccm_dl_Fish_rgba16
                0x00000000070b3288                ccm_dl_Fish_rgba16_aligner
                0x00000000070b3290                ccm_dl_Unbenannt_6_ci8_pal_rgba16
                0x00000000070b3458                ccm_dl_Unbenannt_6_ci8_pal_rgba16_aligner
                0x00000000070b3460                ccm_dl_Unbenannt_6_ci8
                0x00000000070b3860                ccm_dl_Unbenannt_6_ci8_aligner
                0x00000000070b3868                ccm_dl_Unbenannt_5_rgba16
                0x00000000070b4868                ccm_dl_Unbenannt_5_rgba16_aligner
                0x00000000070b4870                ccm_dl_Unbenannt_4_rgba16
                0x00000000070b5870                ccm_dl_Unbenannt_4_rgba16_aligner
                0x00000000070b5878                ccm_dl_Unbenannt_3_rgba16
                0x00000000070b6878                ccm_dl_Unbenannt_3_rgba16_aligner
                0x00000000070b6880                ccm_dl_Unbenannt_2_rgba16
                0x00000000070b7880                ccm_dl_Unbenannt_2_rgba16_aligner
                0x00000000070b7888                ccm_dl_Unbenannt_1_rgba16
                0x00000000070b8888                ccm_dl_Unbenannt_1_rgba16_aligner
                0x00000000070b8890                ccm_dl_vmc_hazad_ci4_pal_rgba16
                0x00000000070b88b0                ccm_dl_vmc_hazad_ci4_pal_rgba16_aligner
                0x00000000070b88b8                ccm_dl_vmc_hazad_ci4
                0x00000000070b90b8                ccm_dl_vmc_hazad_ci4_aligner
                0x00000000070b90c0                ccm_dl__751EE1D2_c_ci4_pal_rgba16
                0x00000000070b90d8                ccm_dl__751EE1D2_c_ci4_pal_rgba16_aligner
                0x00000000070b90e0                ccm_dl__751EE1D2_c_ci4
                0x00000000070b98e0                ccm_dl__751EE1D2_c_ci4_aligner
                0x00000000070b98e8                ccm_dl__4E7A8FD0_c_ci8_pal_rgba16
                0x00000000070b9970                ccm_dl__4E7A8FD0_c_ci8_pal_rgba16_aligner
                0x00000000070b9978                ccm_dl__4E7A8FD0_c_ci8
                0x00000000070b9a78                ccm_dl__4E7A8FD0_c_ci8_aligner
                0x00000000070b9a80                ccm_dl_tuna_ia8
                0x00000000070b9e80                ccm_dl_tuna_ia8_aligner
                0x00000000070b9e88                ccm_dl_LightBeam2_ia8
                0x00000000070ba688                ccm_dl_LightBeam2_ia8_aligner
                0x00000000070ba690                ccm_dl_dfgsetgsdgh_dsita03_ci8_pal_rgba16
                0x00000000070ba6c0                ccm_dl_dfgsetgsdgh_dsita03_ci8_pal_rgba16_aligner
                0x00000000070ba6c8                ccm_dl_dfgsetgsdgh_dsita03_ci8
                0x00000000070baac8                ccm_dl_dfgsetgsdgh_dsita03_ci8_aligner
                0x00000000070baad0                ccm_dl_Trashcan_i8
                0x00000000070bb2d0                ccm_dl_Trashcan_i8_aligner
                0x00000000070bb2d8                ccm_dl_H3257_L96346172_i8
                0x00000000070bc2d8                ccm_dl_H3257_L96346172_i8_aligner
                0x00000000070bc2e0                ccm_dl_SUPER_MARIO_64_5D5BB4D6_0_2_rgb_i8
                0x00000000070bd2e0                ccm_dl_SUPER_MARIO_64_5D5BB4D6_0_2_rgb_i8_aligner
                0x00000000070bd2e8                ccm_dl__3817f000_fmt0431_slice0_mip00_256x256_tm04_i8
                0x00000000070be2e8                ccm_dl__3817f000_fmt0431_slice0_mip00_256x256_tm04_i8_aligner
                0x00000000070be2f0                ccm_dl_jail_plate_rgba16
                0x00000000070bf2f0                ccm_dl_jail_plate_rgba16_aligner
                0x00000000070bf2f8                ccm_dl_m_ami_b02_ia8
                0x00000000070c02f8                ccm_dl_m_ami_b02_ia8_aligner
                0x00000000070c0300                ccm_dl_MARIOKART64_09820848_0_2_all_ci4_pal_rgba16
                0x00000000070c0318                ccm_dl_MARIOKART64_09820848_0_2_all_ci4_pal_rgba16_aligner
                0x00000000070c0320                ccm_dl_MARIOKART64_09820848_0_2_all_ci4
                0x00000000070c0520                ccm_dl_MARIOKART64_09820848_0_2_all_ci4_aligner
                0x00000000070c0528                ccm_dl_j_renga01_ci8_pal_rgba16
                0x00000000070c05a8                ccm_dl_j_renga01_ci8_pal_rgba16_aligner
                0x00000000070c05b0                ccm_dl_j_renga01_ci8
                0x00000000070c09b0                ccm_dl_j_renga01_ci8_aligner
                0x00000000070c09b8                ccm_dl__1ecf4000_fmt0431_slice0_mip00_64x64_tm04_i8
                0x00000000070c19b8                ccm_dl__1ecf4000_fmt0431_slice0_mip00_64x64_tm04_i8_aligner
                0x00000000070c19c0                ccm_dl__3526840_ci4_pal_rgba16
                0x00000000070c19e0                ccm_dl__3526840_ci4_pal_rgba16_aligner
                0x00000000070c19e8                ccm_dl__3526840_ci4
                0x00000000070c21e8                ccm_dl__3526840_ci4_aligner
                0x00000000070c21f0                ccm_dl_m_enseki_ci4_pal_rgba16
                0x00000000070c2208                ccm_dl_m_enseki_ci4_pal_rgba16_aligner
                0x00000000070c2210                ccm_dl_m_enseki_ci4
                0x00000000070c2a10                ccm_dl_m_enseki_ci4_aligner
                0x00000000070c2a18                ccm_dl_BuildingStoneWall01_rep_alb_i8
                0x00000000070c3a18                ccm_dl_BuildingStoneWall01_rep_alb_i8_aligner
                0x00000000070c3a20                ccm_dl__0700A000_ia8
                0x00000000070c3e20                ccm_dl__0700A000_ia8_aligner
                0x00000000070c3e28                ccm_dl_exl_cpt_ci4_pal_rgba16
                0x00000000070c3e48                ccm_dl_exl_cpt_ci4_pal_rgba16_aligner
                0x00000000070c3e50                ccm_dl_exl_cpt_ci4
                0x00000000070c4650                ccm_dl_exl_cpt_ci4_aligner
                0x00000000070c4658                ccm_dl_poison_mush_ia8
                0x00000000070c5658                ccm_dl_poison_mush_ia8_aligner
                0x00000000070c5660                ccm_dl_DrainageCover00_alb_ci8_pal_rgba16
                0x00000000070c56d8                ccm_dl_DrainageCover00_alb_ci8_pal_rgba16_aligner
                0x00000000070c56e0                ccm_dl_DrainageCover00_alb_ci8
                0x00000000070c5ee0                ccm_dl_DrainageCover00_alb_ci8_aligner
                0x00000000070c5ee8                ccm_dl_he_commited_several_war_crimes_in_tomato_town_ia8
                0x00000000070c6ee8                ccm_dl_he_commited_several_war_crimes_in_tomato_town_ia8_aligner
                0x00000000070c6ef0                ccm_dl_wariotnite_ia8
                0x00000000070c7ef0                ccm_dl_wariotnite_ia8_aligner
                0x00000000070c7ef8                ccm_dl_UNFINISHED_ia8
                0x00000000070c8ef8                ccm_dl_UNFINISHED_ia8_aligner
                0x00000000070c8f00                ccm_dl_LOUSY_ia8
                0x00000000070c9f00                ccm_dl_LOUSY_ia8_aligner
                0x00000000070c9f08                ccm_dl_COUNTDOWN_ia8
                0x00000000070ca708                ccm_dl_COUNTDOWN_ia8_aligner
                0x00000000070ca710                ccm_dl_CURSED_ia8
                0x00000000070cb710                ccm_dl_CURSED_ia8_aligner
                0x00000000070cb718                ccm_dl_Glover_0741944B_0_0_E3816F34_ciByRGBA_i8
                0x00000000070cbb18                ccm_dl_Glover_0741944B_0_0_E3816F34_ciByRGBA_i8_aligner
                0x00000000070cbb20                ccm_dl__1ed7d000_fmt0431_slice0_mip00_128x128_tm204_ci4_pal_rgba16
                0x00000000070cbb40                ccm_dl__1ed7d000_fmt0431_slice0_mip00_128x128_tm204_ci4_pal_rgba16_aligner
                0x00000000070cbb48                ccm_dl__1ed7d000_fmt0431_slice0_mip00_128x128_tm204_ci4
                0x00000000070cc348                ccm_dl__1ed7d000_fmt0431_slice0_mip00_128x128_tm204_ci4_aligner
                0x00000000070cc350                ccm_dl__0x5C40_ia8
                0x00000000070cc750                ccm_dl__0x5C40_ia8_aligner
                0x00000000070cc758                ccm_dl_Glover_2564208B_0_0_D588C03B_ciByRGBA_ci4_pal_rgba16
                0x00000000070cc770                ccm_dl_Glover_2564208B_0_0_D588C03B_ciByRGBA_ci4_pal_rgba16_aligner
                0x00000000070cc778                ccm_dl_Glover_2564208B_0_0_D588C03B_ciByRGBA_ci4
                0x00000000070cc978                ccm_dl_Glover_2564208B_0_0_D588C03B_ciByRGBA_ci4_aligner
                0x00000000070cc980                ccm_dl_SUPER_MARIO_64_15D30589_0_2_rgb_rgba16
                0x00000000070cd980                ccm_dl_SUPER_MARIO_64_15D30589_0_2_rgb_rgba16_aligner
                0x00000000070cd988                ccm_dl__3550576_ci4_pal_rgba16
                0x00000000070cd9a8                ccm_dl__3550576_ci4_pal_rgba16_aligner
                0x00000000070cd9b0                ccm_dl__3550576_ci4
                0x00000000070cddb0                ccm_dl__3550576_ci4_aligner
                0x00000000070cddb8                ccm_dl_cs_metal05_spc_i8
                0x00000000070ce1b8                ccm_dl_cs_metal05_spc_i8_aligner
                0x00000000070ce1c0                ccm_dl_actualCake_ci8_pal_rgba16
                0x00000000070ce230                ccm_dl_actualCake_ci8_pal_rgba16_aligner
                0x00000000070ce238                ccm_dl_actualCake_ci8
                0x00000000070ce638                ccm_dl_actualCake_ci8_aligner
                0x00000000070ce640                ccm_dl_cherryXstrawberry_ci8_pal_rgba16
                0x00000000070ce6d8                ccm_dl_cherryXstrawberry_ci8_pal_rgba16_aligner
                0x00000000070ce6e0                ccm_dl_cherryXstrawberry_ci8
                0x00000000070ceae0                ccm_dl_cherryXstrawberry_ci8_aligner
                0x00000000070ceae8                ccm_dl_walldirtsmg_ci4_pal_rgba16
                0x00000000070ceb08                ccm_dl_walldirtsmg_ci4_pal_rgba16_aligner
                0x00000000070ceb10                ccm_dl_walldirtsmg_ci4
                0x00000000070cf310                ccm_dl_walldirtsmg_ci4_aligner
                0x00000000070cf318                ccm_dl_RMGP01_6b919354_14_ci8_pal_rgba16
                0x00000000070cf360                ccm_dl_RMGP01_6b919354_14_ci8_pal_rgba16_aligner
                0x00000000070cf368                ccm_dl_RMGP01_6b919354_14_ci8
                0x00000000070cf768                ccm_dl_RMGP01_6b919354_14_ci8_aligner
                0x00000000070cf770                ccm_dl__0x4720_ci4_pal_rgba16
                0x00000000070cf790                ccm_dl__0x4720_ci4_pal_rgba16_aligner
                0x00000000070cf798                ccm_dl__0x4720_ci4
                0x00000000070cff98                ccm_dl__0x4720_ci4_aligner
                0x00000000070cffa0                ccm_dl_kkj_kabekazaritif_ci4_pal_rgba16
                0x00000000070cffb0                ccm_dl_kkj_kabekazaritif_ci4_pal_rgba16_aligner
                0x00000000070cffb8                ccm_dl_kkj_kabekazaritif_ci4
                0x00000000070d01b8                ccm_dl_kkj_kabekazaritif_ci4_aligner
                0x00000000070d01c0                ccm_dl_PAPER_MARIO_BF1406F0_2_0_7EE1EACE_ciByRGBA_ci4_pal_rgba16
                0x00000000070d01e0                ccm_dl_PAPER_MARIO_BF1406F0_2_0_7EE1EACE_ciByRGBA_ci4_pal_rgba16_aligner
                0x00000000070d01e8                ccm_dl_PAPER_MARIO_BF1406F0_2_0_7EE1EACE_ciByRGBA_ci4
                0x00000000070d05e8                ccm_dl_PAPER_MARIO_BF1406F0_2_0_7EE1EACE_ciByRGBA_ci4_aligner
                0x00000000070d05f0                ccm_dl_metaldottoplate02_s_spc_i8
                0x00000000070d15f0                ccm_dl_metaldottoplate02_s_spc_i8_aligner
                0x00000000070d15f8                ccm_dl__3405808_ci4_pal_rgba16
                0x00000000070d1618                ccm_dl__3405808_ci4_pal_rgba16_aligner
                0x00000000070d1620                ccm_dl__3405808_ci4
                0x00000000070d1820                ccm_dl__3405808_ci4_aligner
                0x00000000070d1828                ccm_dl__3546416_ci4_pal_rgba16
                0x00000000070d1848                ccm_dl__3546416_ci4_pal_rgba16_aligner
                0x00000000070d1850                ccm_dl__3546416_ci4
                0x00000000070d2050                ccm_dl__3546416_ci4_aligner
                0x00000000070d2058                ccm_dl_GLME01_d933b8aa_14_ci8_pal_rgba16
                0x00000000070d2160                ccm_dl_GLME01_d933b8aa_14_ci8_pal_rgba16_aligner
                0x00000000070d2168                ccm_dl_GLME01_d933b8aa_14_ci8
                0x00000000070d2968                ccm_dl_GLME01_d933b8aa_14_ci8_aligner
                0x00000000070d2970                ccm_dl_OCTjMty_ci4_pal_rgba16
                0x00000000070d2990                ccm_dl_OCTjMty_ci4_pal_rgba16_aligner
                0x00000000070d2998                ccm_dl_OCTjMty_ci4
                0x00000000070d3198                ccm_dl_OCTjMty_ci4_aligner
                0x00000000070d31a0                ccm_dl_copperpipe_ci8_pal_rgba16
                0x00000000070d31c8                ccm_dl_copperpipe_ci8_pal_rgba16_aligner
                0x00000000070d31d0                ccm_dl_copperpipe_ci8
                0x00000000070d39d0                ccm_dl_copperpipe_ci8_aligner
                0x00000000070d39d8                ccm_dl_EARTHWORM_JIM_3D_0702965F_0_2_all_ci8_pal_rgba16
                0x00000000070d3a48                ccm_dl_EARTHWORM_JIM_3D_0702965F_0_2_all_ci8_pal_rgba16_aligner
                0x00000000070d3a50                ccm_dl_EARTHWORM_JIM_3D_0702965F_0_2_all_ci8
                0x00000000070d3e50                ccm_dl_EARTHWORM_JIM_3D_0702965F_0_2_all_ci8_aligner
                0x00000000070d3e58                ccm_dl_D301_tk_Chain_01_1_ia8
                0x00000000070d4658                ccm_dl_D301_tk_Chain_01_1_ia8_aligner
                0x00000000070d4660                ccm_dl_i_block_ci8_pal_rgba16
                0x00000000070d46d8                ccm_dl_i_block_ci8_pal_rgba16_aligner
                0x00000000070d46e0                ccm_dl_i_block_ci8
                0x00000000070d4ae0                ccm_dl_i_block_ci8_aligner
                0x00000000070d4ae8                ccm_dl__1ed7d000_fmt0431_slice0_mip00_128x128_tm04_ci4_pal_rgba16
                0x00000000070d4b08                ccm_dl__1ed7d000_fmt0431_slice0_mip00_128x128_tm04_ci4_pal_rgba16_aligner
                0x00000000070d4b10                ccm_dl__1ed7d000_fmt0431_slice0_mip00_128x128_tm04_ci4
                0x00000000070d5310                ccm_dl__1ed7d000_fmt0431_slice0_mip00_128x128_tm04_ci4_aligner
                0x00000000070d5318                ccm_dl__7129A41D2EBA195F2DAF40C9458B2D0A_ci4_pal_rgba16
                0x00000000070d5338                ccm_dl__7129A41D2EBA195F2DAF40C9458B2D0A_ci4_pal_rgba16_aligner
                0x00000000070d5340                ccm_dl__7129A41D2EBA195F2DAF40C9458B2D0A_ci4
                0x00000000070d5740                ccm_dl__7129A41D2EBA195F2DAF40C9458B2D0A_ci4_aligner
                0x00000000070d5748                ccm_dl_tex1_128x128_m_f6eca74a7e1d9487_14_mip1_i8
                0x00000000070d6748                ccm_dl_tex1_128x128_m_f6eca74a7e1d9487_14_mip1_i8_aligner
                0x00000000070d6750                ccm_dl_Brick64_i8
                0x00000000070d7750                ccm_dl_Brick64_i8_aligner
                0x00000000070d7758                ccm_dl__1e9f2000_fmt0431_slice0_mip00_128x128_tm04_i4
                0x00000000070d8758                ccm_dl__1e9f2000_fmt0431_slice0_mip00_128x128_tm04_i4_aligner
                0x00000000070d8760                ccm_dl__3596680_ci4_pal_rgba16
                0x00000000070d8780                ccm_dl__3596680_ci4_pal_rgba16_aligner
                0x00000000070d8788                ccm_dl__3596680_ci4
                0x00000000070d8f88                ccm_dl__3596680_ci4_aligner
                0x00000000070d8f90                ccm_dl__381c3000_fmt0431_slice0_mip00_128x128_tm04_i8
                0x00000000070d9f90                ccm_dl__381c3000_fmt0431_slice0_mip00_128x128_tm04_i8_aligner
                0x00000000070d9f98                ccm_dl__388c8000_fmt0431_slice0_mip00_256x256_tm04_i8
                0x00000000070daf98                ccm_dl__388c8000_fmt0431_slice0_mip00_256x256_tm04_i8_aligner
                0x00000000070dafa0                ccm_dl_panelflame_spm_ci8_pal_rgba16
                0x00000000070daff8                ccm_dl_panelflame_spm_ci8_pal_rgba16_aligner
                0x00000000070db000                ccm_dl_panelflame_spm_ci8
                0x00000000070db800                ccm_dl_panelflame_spm_ci8_aligner
                0x00000000070db808                ccm_dl_Rocky_3_ci8_pal_rgba16
                0x00000000070db860                ccm_dl_Rocky_3_ci8_pal_rgba16_aligner
                0x00000000070db868                ccm_dl_Rocky_3_ci8
                0x00000000070dbc68                ccm_dl_Rocky_3_ci8_aligner
                0x00000000070dbc70                ccm_dl_frs_step_01_3C680_ci8_pal_rgba16
                0x00000000070dbcf0                ccm_dl_frs_step_01_3C680_ci8_pal_rgba16_aligner
                0x00000000070dbcf8                ccm_dl_frs_step_01_3C680_ci8
                0x00000000070dc4f8                ccm_dl_frs_step_01_3C680_ci8_aligner
                0x00000000070dc500                ccm_dl_GZLE01_85f46339_14_i8
                0x00000000070dd500                ccm_dl_GZLE01_85f46339_14_i8_aligner
                0x00000000070dd508                ccm_dl_g_isibe00_ci4_pal_rgba16
                0x00000000070dd528                ccm_dl_g_isibe00_ci4_pal_rgba16_aligner
                0x00000000070dd530                ccm_dl_g_isibe00_ci4
                0x00000000070ddd30                ccm_dl_g_isibe00_ci4_aligner
                0x00000000070ddd38                ccm_dl_rock_xx01_Rock01_dif_i8
                0x00000000070ded38                ccm_dl_rock_xx01_Rock01_dif_i8_aligner
                0x00000000070ded40                ccm_dl_GroundTile00_alb_i8
                0x00000000070dfd40                ccm_dl_GroundTile00_alb_i8_aligner
                0x00000000070dfd48                ccm_dl_GTG_0x3E558_64x128_I4_i4
                0x00000000070e0d48                ccm_dl_GTG_0x3E558_64x128_I4_i4_aligner
                0x00000000070e0d50                ccm_dl_TRASH_rgba16
                0x00000000070e1d50                ccm_dl_TRASH_rgba16_aligner
                0x00000000070e1d58                ccm_dl_sdag_i4
                0x00000000070e2d58                ccm_dl_sdag_i4_aligner
                0x00000000070e2d60                ccm_dl__1e41e000_fmt0431_slice0_mip00_64x64_tm04_i8
                0x00000000070e3d60                ccm_dl__1e41e000_fmt0431_slice0_mip00_64x64_tm04_i8_aligner
                0x00000000070e3d68                ccm_dl_tekkinn_01_ia8
                0x00000000070e4d68                ccm_dl_tekkinn_01_ia8_aligner
                0x00000000070e4d70                ccm_dl_unnamed_ci4_pal_rgba16
                0x00000000070e4d80                ccm_dl_unnamed_ci4_pal_rgba16_aligner
                0x00000000070e4d88                ccm_dl_unnamed_ci4
                0x00000000070e5588                ccm_dl_unnamed_ci4_aligner
                0x00000000070e5590                ccm_dl_xx_9_ci8_pal_rgba16
                0x00000000070e55c8                ccm_dl_xx_9_ci8_pal_rgba16_aligner
                0x00000000070e55d0                ccm_dl_xx_9_ci8
                0x00000000070e59d0                ccm_dl_xx_9_ci8_aligner
                0x00000000070e59d8                ccm_dl__0xDDE0_ci4_pal_rgba16
                0x00000000070e59f8                ccm_dl__0xDDE0_ci4_pal_rgba16_aligner
                0x00000000070e5a00                ccm_dl__0xDDE0_ci4
                0x00000000070e6200                ccm_dl__0xDDE0_ci4_aligner
                0x00000000070e6208                ccm_dl_i8rzerztitziTxe_Ekaze2_rock_1_i8
                0x00000000070e7208                ccm_dl_i8rzerztitziTxe_Ekaze2_rock_1_i8_aligner
                0x00000000070e7210                ccm_dl__3272aa_ci8_pal_rgba16
                0x00000000070e72d0                ccm_dl__3272aa_ci8_pal_rgba16_aligner
                0x00000000070e72d8                ccm_dl__3272aa_ci8
                0x00000000070e7ad8                ccm_dl__3272aa_ci8_aligner
                0x00000000070e7ae0                ccm_dl_GrassTestie_i8
                0x00000000070e8ae0                ccm_dl_GrassTestie_i8_aligner
                0x00000000070e8ae8                ccm_dl_tempImgEd010C_i8
                0x00000000070e8ee8                ccm_dl_tempImgEd010C_i8_aligner
                0x00000000070e8ef0                ccm_dl__38_ci8_pal_rgba16
                0x00000000070e8f48                ccm_dl__38_ci8_pal_rgba16_aligner
                0x00000000070e8f50                ccm_dl__38_ci8
                0x00000000070e9350                ccm_dl__38_ci8_aligner
                0x00000000070e9358                ccm_dl_multtex1_i4
                0x00000000070e9b58                ccm_dl_multtex1_i4_aligner
                0x00000000070e9b60                ccm_dl_mult_i4
                0x00000000070ea360                ccm_dl_mult_i4_aligner
                0x00000000070ea368                ccm_dl__19E763D603106FE29AD4BD3A423C1B00_ci8_pal_rgba16
                0x00000000070ea3f8                ccm_dl__19E763D603106FE29AD4BD3A423C1B00_ci8_pal_rgba16_aligner
                0x00000000070ea400                ccm_dl__19E763D603106FE29AD4BD3A423C1B00_ci8
                0x00000000070ea800                ccm_dl__19E763D603106FE29AD4BD3A423C1B00_ci8_aligner
                0x00000000070ea808                ccm_dl_Willy_LaBeouf_ia4
                0x00000000070ea908                ccm_dl_Willy_LaBeouf_ia4_aligner
                0x00000000070ea910                ccm_dl_fleece264_i8
                0x00000000070eb910                ccm_dl_fleece264_i8_aligner
                0x00000000070eb918                ccm_dl_GZLE01_501c59a3_14_ci4_pal_rgba16
                0x00000000070eb938                ccm_dl_GZLE01_501c59a3_14_ci4_pal_rgba16_aligner
                0x00000000070eb940                ccm_dl_GZLE01_501c59a3_14_ci4
                0x00000000070ec140                ccm_dl_GZLE01_501c59a3_14_ci4_aligner
                0x00000000070ec148                ccm_dl_sdf34wetest_yuka_ci8_pal_rgba16
                0x00000000070ec1a8                ccm_dl_sdf34wetest_yuka_ci8_pal_rgba16_aligner
                0x00000000070ec1b0                ccm_dl_sdf34wetest_yuka_ci8
                0x00000000070ec9b0                ccm_dl_sdf34wetest_yuka_ci8_aligner
                0x00000000070ec9b8                ccm_dl_Zr_main01_ci4_pal_rgba16
                0x00000000070ec9d0                ccm_dl_Zr_main01_ci4_pal_rgba16_aligner
                0x00000000070ec9d8                ccm_dl_Zr_main01_ci4
                0x00000000070ed1d8                ccm_dl_Zr_main01_ci4_aligner
                0x00000000070ed1e0                ccm_dl_kibako_ci8_pal_rgba16
                0x00000000070ed228                ccm_dl_kibako_ci8_pal_rgba16_aligner
                0x00000000070ed230                ccm_dl_kibako_ci8
                0x00000000070ed630                ccm_dl_kibako_ci8_aligner
                0x00000000070ed638                ccm_dl_mizu_ci4_pal_rgba16
                0x00000000070ed650                ccm_dl_mizu_ci4_pal_rgba16_aligner
                0x00000000070ed658                ccm_dl_mizu_ci4
                0x00000000070ed858                ccm_dl_mizu_ci4_aligner
                0x00000000070ed860                ccm_dl_WaterInner00_alb_ci4_pal_rgba16
                0x00000000070ed878                ccm_dl_WaterInner00_alb_ci4_pal_rgba16_aligner
                0x00000000070ed880                ccm_dl_WaterInner00_alb_ci4
                0x00000000070ee080                ccm_dl_WaterInner00_alb_ci4_aligner
                0x00000000070ee088                ccm_dl_firefox_2018_03_03_07_54_19L_i4
                0x00000000070ee888                ccm_dl_firefox_2018_03_03_07_54_19L_i4_aligner
                0x00000000070ee890                ccm_dl_firefox_2018_03_03_07_54_19_i4
                0x00000000070ef090                ccm_dl_firefox_2018_03_03_07_54_19_i4_aligner
                0x00000000070ef098                ccm_dl_tzu5675tfrhzTxm_DDR00kb04_ci4_pal_rgba16
                0x00000000070ef0b8                ccm_dl_tzu5675tfrhzTxm_DDR00kb04_ci4_pal_rgba16_aligner
                0x00000000070ef0c0                ccm_dl_tzu5675tfrhzTxm_DDR00kb04_ci4
                0x00000000070ef8c0                ccm_dl_tzu5675tfrhzTxm_DDR00kb04_ci4_aligner
                0x00000000070ef8c8                ccm_dl_sdfsdgweterwtertTxy_koori6_ci8_pal_rgba16
                0x00000000070ef930                ccm_dl_sdfsdgweterwtertTxy_koori6_ci8_pal_rgba16_aligner
                0x00000000070ef938                ccm_dl_sdfsdgweterwtertTxy_koori6_ci8
                0x00000000070f0138                ccm_dl_sdfsdgweterwtertTxy_koori6_ci8_aligner
                0x00000000070f0140                ccm_dl_is_iceTile_ci8_pal_rgba16
                0x00000000070f0278                ccm_dl_is_iceTile_ci8_pal_rgba16_aligner
                0x00000000070f0280                ccm_dl_is_iceTile_ci8
                0x00000000070f0680                ccm_dl_is_iceTile_ci8_aligner
                0x00000000070f0688                ccm_dl_RMGP01_f7fc1e5f_14_ci4_pal_rgba16
                0x00000000070f06a8                ccm_dl_RMGP01_f7fc1e5f_14_ci4_pal_rgba16_aligner
                0x00000000070f06b0                ccm_dl_RMGP01_f7fc1e5f_14_ci4
                0x00000000070f0eb0                ccm_dl_RMGP01_f7fc1e5f_14_ci4_aligner
                0x00000000070f0eb8                ccm_dl__0x10C40_ci4_pal_rgba16
                0x00000000070f0ed8                ccm_dl__0x10C40_ci4_pal_rgba16_aligner
                0x00000000070f0ee0                ccm_dl__0x10C40_ci4
                0x00000000070f16e0                ccm_dl__0x10C40_ci4_aligner
                0x00000000070f16e8                ccm_dl_skyboxFinal_rgba16
                0x00000000071016e8                ccm_dl_skyboxFinal_rgba16_aligner
                0x00000000071016f0                ccm_dl_the_cooler_wata_rgba16
                0x0000000007105208                ccm_dl_the_cooler_wata_rgba16_aligner
                0x0000000007105210                ccm_dl_woodenplankssupport_ci8_pal_rgba16
                0x0000000007105390                ccm_dl_woodenplankssupport_ci8_pal_rgba16_aligner
                0x0000000007105398                ccm_dl_woodenplankssupport_ci8
                0x0000000007105b98                ccm_dl_woodenplankssupport_ci8_aligner
                0x0000000007105ba0                ccm_dl_smol_i8
                0x0000000007106ba0                ccm_dl_smol_i8_aligner
                0x0000000007106ba8                ccm_dl_darkishyellow_ci4_pal_rgba16
                0x0000000007106bc8                ccm_dl_darkishyellow_ci4_pal_rgba16_aligner
                0x0000000007106bd0                ccm_dl_darkishyellow_ci4
                0x00000000071073d0                ccm_dl_darkishyellow_ci4_aligner
                0x00000000071073d8                ccm_dl_ZootZootZooSign_rgba16
                0x000000000710b0e0                ccm_dl_ZootZootZooSign_rgba16_aligner
                0x000000000710b0e8                ccm_dl_tex1_64x64_m_a0599d30bc5b0097_4_i8
                0x000000000710c0e8                ccm_dl_tex1_64x64_m_a0599d30bc5b0097_4_i8_aligner
                0x000000000710c0f0                ccm_dl_cs_brick05_alb_ci8_pal_rgba16
                0x000000000710c150                ccm_dl_cs_brick05_alb_ci8_pal_rgba16_aligner
                0x000000000710c158                ccm_dl_cs_brick05_alb_ci8
                0x000000000710c558                ccm_dl_cs_brick05_alb_ci8_aligner
                0x000000000710c560                ccm_dl_PalmTree_01_ia8
                0x000000000710d560                ccm_dl_PalmTree_01_ia8_aligner
                0x000000000710d568                ccm_dl_GZLE01_93b622fe_14_ia8
                0x000000000710e568                ccm_dl_GZLE01_93b622fe_14_ia8_aligner
                0x000000000710e570                ccm_dl_rrow_asset_1258_ci4_pal_rgba16
                0x000000000710e590                ccm_dl_rrow_asset_1258_ci4_pal_rgba16_aligner
                0x000000000710e598                ccm_dl_rrow_asset_1258_ci4
                0x000000000710ed98                ccm_dl_rrow_asset_1258_ci4_aligner
                0x000000000710eda0                ccm_dl_vine_body_ci8_pal_rgba16
                0x000000000710ee70                ccm_dl_vine_body_ci8_pal_rgba16_aligner
                0x000000000710ee78                ccm_dl_vine_body_ci8
                0x000000000710f278                ccm_dl_vine_body_ci8_aligner
                0x000000000710f280                ccm_dl__0x4C20_ci8_pal_rgba16
                0x000000000710f308                ccm_dl__0x4C20_ci8_pal_rgba16_aligner
                0x000000000710f310                ccm_dl__0x4C20_ci8
                0x000000000710f710                ccm_dl__0x4C20_ci8_aligner
                0x000000000710f718                ccm_dl_nowhiteoutline_ci8_pal_rgba16
                0x000000000710f800                ccm_dl_nowhiteoutline_ci8_pal_rgba16_aligner
                0x000000000710f808                ccm_dl_nowhiteoutline_ci8
                0x000000000710fc08                ccm_dl_nowhiteoutline_ci8_aligner
                0x000000000710fc10                ccm_dl_F000_Straw_rgba16
                0x0000000007110410                ccm_dl_F000_Straw_rgba16_aligner
                0x0000000007110418                ccm_dl__0x00_ci8_pal_rgba16
                0x0000000007110458                ccm_dl__0x00_ci8_pal_rgba16_aligner
                0x0000000007110460                ccm_dl__0x00_ci8
                0x0000000007110860                ccm_dl__0x00_ci8_aligner
                0x0000000007110868                ccm_dl_gridfence_ci8_pal_rgba16
                0x00000000071108c8                ccm_dl_gridfence_ci8_pal_rgba16_aligner
                0x00000000071108d0                ccm_dl_gridfence_ci8
                0x00000000071110d0                ccm_dl_gridfence_ci8_aligner
                0x00000000071110d8                ccm_dl_doro_422_rgba16
                0x00000000071118d8                ccm_dl_doro_422_rgba16_aligner
                0x00000000071118e0                ccm_dl_coarse_dirt_rgba16
                0x00000000071120e0                ccm_dl_coarse_dirt_rgba16_aligner
                0x00000000071120e8                ccm_dl_IslBar_kago01_ci8_pal_rgba16
                0x00000000071121f8                ccm_dl_IslBar_kago01_ci8_pal_rgba16_aligner
                0x0000000007112200                ccm_dl_IslBar_kago01_ci8
                0x0000000007112a00                ccm_dl_IslBar_kago01_ci8_aligner
                0x0000000007112a08                ccm_dl_ScoreAttackManInd_i8
                0x0000000007113a08                ccm_dl_ScoreAttackManInd_i8_aligner
                0x0000000007113a10                ccm_dl_n64ktb_logs_ci4_pal_rgba16
                0x0000000007113a30                ccm_dl_n64ktb_logs_ci4_pal_rgba16_aligner
                0x0000000007113a38                ccm_dl_n64ktb_logs_ci4
                0x0000000007114238                ccm_dl_n64ktb_logs_ci4_aligner
                0x0000000007114240                ccm_dl_Grain01Gray_i4
                0x0000000007115240                ccm_dl_Grain01Gray_i4_aligner
                0x0000000007115248                ccm_dl_Glover_2D2C5628_0_0_6729E1B3_ciByRGBA_ci4_pal_rgba16
                0x0000000007115268                ccm_dl_Glover_2D2C5628_0_0_6729E1B3_ciByRGBA_ci4_pal_rgba16_aligner
                0x0000000007115270                ccm_dl_Glover_2D2C5628_0_0_6729E1B3_ciByRGBA_ci4
                0x0000000007115a70                ccm_dl_Glover_2D2C5628_0_0_6729E1B3_ciByRGBA_ci4_aligner
                0x0000000007115a78                ccm_dl_GALE01_524885ab_14_ci8_pal_rgba16
                0x0000000007115ac0                ccm_dl_GALE01_524885ab_14_ci8_pal_rgba16_aligner
                0x0000000007115ac8                ccm_dl_GALE01_524885ab_14_ci8
                0x0000000007115ec8                ccm_dl_GALE01_524885ab_14_ci8_aligner
                0x0000000007115ed0                ccm_dl_E391CC66ADC1F4C2F421CBB084F28CF4_ci4_pal_rgba16
                0x0000000007115ee0                ccm_dl_E391CC66ADC1F4C2F421CBB084F28CF4_ci4_pal_rgba16_aligner
                0x0000000007115ee8                ccm_dl_E391CC66ADC1F4C2F421CBB084F28CF4_ci4
                0x00000000071162e8                ccm_dl_E391CC66ADC1F4C2F421CBB084F28CF4_ci4_aligner
                0x00000000071162f0                ccm_dl_bambou1_plathalf_ci8_pal_rgba16
                0x0000000007116370                ccm_dl_bambou1_plathalf_ci8_pal_rgba16_aligner
                0x0000000007116378                ccm_dl_bambou1_plathalf_ci8
                0x0000000007116b78                ccm_dl_bambou1_plathalf_ci8_aligner
                0x0000000007116b80                ccm_dl__45656786978645320Txo_ita3mai_ci4_pal_rgba16
                0x0000000007116ba0                ccm_dl__45656786978645320Txo_ita3mai_ci4_pal_rgba16_aligner
                0x0000000007116ba8                ccm_dl__45656786978645320Txo_ita3mai_ci4
                0x00000000071173a8                ccm_dl__45656786978645320Txo_ita3mai_ci4_aligner
                0x00000000071173b0                ccm_dl_rrow_asset_277_i8
                0x00000000071177b0                ccm_dl_rrow_asset_277_i8_aligner
                0x00000000071177b8                ccm_dl_tacostand_rgba16
                0x000000000711b3c8                ccm_dl_tacostand_rgba16_aligner
                0x000000000711b3d0                ccm_dl_snacks_ci4_pal_rgba16
                0x000000000711b3f0                ccm_dl_snacks_ci4_pal_rgba16_aligner
                0x000000000711b3f8                ccm_dl_snacks_ci4
                0x000000000711bbf8                ccm_dl_snacks_ci4_aligner
                0x000000000711bc00                ccm_dl__0000E508_32x32_rgba16_rgba16
                0x000000000711c400                ccm_dl__0000E508_32x32_rgba16_rgba16_aligner
                0x000000000711c408                ccm_dl_ki_mizu_ci8_pal_rgba16
                0x000000000711c4f8                ccm_dl_ki_mizu_ci8_pal_rgba16_aligner
                0x000000000711c500                ccm_dl_ki_mizu_ci8
                0x000000000711c900                ccm_dl_ki_mizu_ci8_aligner
                0x000000000711c908                ccm_dl_FxpafPT_ci4_pal_rgba16
                0x000000000711c928                ccm_dl_FxpafPT_ci4_pal_rgba16_aligner
                0x000000000711c930                ccm_dl_FxpafPT_ci4
                0x000000000711d130                ccm_dl_FxpafPT_ci4_aligner
                0x000000000711d138                ccm_dl_LeafTest64_ci4_pal_rgba16
                0x000000000711d158                ccm_dl_LeafTest64_ci4_pal_rgba16_aligner
                0x000000000711d160                ccm_dl_LeafTest64_ci4
                0x000000000711d960                ccm_dl_LeafTest64_ci4_aligner
                0x000000000711d968                ccm_dl_LEGORacers_BDD1EE23_2_0_402C3A7D_ci_i8
                0x000000000711e968                ccm_dl_LEGORacers_BDD1EE23_2_0_402C3A7D_ci_i8_aligner
                0x000000000711e970                ccm_dl__4E3155144D1FE19635A054912608B1BD_ci4_pal_rgba16
                0x000000000711e990                ccm_dl__4E3155144D1FE19635A054912608B1BD_ci4_pal_rgba16_aligner
                0x000000000711e998                ccm_dl__4E3155144D1FE19635A054912608B1BD_ci4
                0x000000000711f198                ccm_dl__4E3155144D1FE19635A054912608B1BD_ci4_aligner
                0x000000000711f1a0                ccm_dl_RMGP01_a61320b6_14_ci8_pal_rgba16
                0x000000000711f1e8                ccm_dl_RMGP01_a61320b6_14_ci8_pal_rgba16_aligner
                0x000000000711f1f0                ccm_dl_RMGP01_a61320b6_14_ci8
                0x000000000711f5f0                ccm_dl_RMGP01_a61320b6_14_ci8_aligner
                0x000000000711f5f8                ccm_dl_Kw4_Carpet02_ci8_pal_rgba16
                0x000000000711f668                ccm_dl_Kw4_Carpet02_ci8_pal_rgba16_aligner
                0x000000000711f670                ccm_dl_Kw4_Carpet02_ci8
                0x000000000711fe70                ccm_dl_Kw4_Carpet02_ci8_aligner
                0x000000000711fe78                ccm_dl_grass_toplight_i8
                0x0000000007120e78                ccm_dl_grass_toplight_i8_aligner
                0x0000000007120e80                ccm_dl_ng_flower_rCI4_ci4_pal_rgba16
                0x0000000007120ea0                ccm_dl_ng_flower_rCI4_ci4_pal_rgba16_aligner
                0x0000000007120ea8                ccm_dl_ng_flower_rCI4_ci4
                0x00000000071216a8                ccm_dl_ng_flower_rCI4_ci4_aligner
                0x00000000071216b0                ccm_dl_Texture0205_RGB_ci8_pal_rgba16
                0x0000000007121790                ccm_dl_Texture0205_RGB_ci8_pal_rgba16_aligner
                0x0000000007121798                ccm_dl_Texture0205_RGB_ci8
                0x0000000007121998                ccm_dl_Texture0205_RGB_ci8_aligner
                0x00000000071219a0                ccm_dl_straw_rgba16
                0x00000000071221a0                ccm_dl_straw_rgba16_aligner
                0x00000000071221a8                ccm_dl_legno_corrimano_1_32x32_ci8_pal_rgba16
                0x00000000071221d8                ccm_dl_legno_corrimano_1_32x32_ci8_pal_rgba16_aligner
                0x00000000071221e0                ccm_dl_legno_corrimano_1_32x32_ci8
                0x00000000071225e0                ccm_dl_legno_corrimano_1_32x32_ci8_aligner
                0x00000000071225e8                ccm_dl_dorriesnack_rgba16
                0x0000000007126100                ccm_dl_dorriesnack_rgba16_aligner
                0x0000000007126108                ccm_dl__3481232_ci4_pal_rgba16
                0x0000000007126128                ccm_dl__3481232_ci4_pal_rgba16_aligner
                0x0000000007126130                ccm_dl__3481232_ci4
                0x0000000007126930                ccm_dl__3481232_ci4_aligner
                0x0000000007126938                ccm_dl_chomp_love_ci4_pal_rgba16
                0x0000000007126958                ccm_dl_chomp_love_ci4_pal_rgba16_aligner
                0x0000000007126960                ccm_dl_chomp_love_ci4
                0x0000000007127160                ccm_dl_chomp_love_ci4_aligner
                0x0000000007127168                ccm_dl_PENGUINS_i8
                0x0000000007128168                ccm_dl_PENGUINS_i8_aligner
                0x0000000007128170                ccm_dl_peng2uins_ci4_pal_rgba16
                0x0000000007128190                ccm_dl_peng2uins_ci4_pal_rgba16_aligner
                0x0000000007128198                ccm_dl_peng2uins_ci4
                0x0000000007128998                ccm_dl_peng2uins_ci4_aligner
                0x00000000071289a0                ccm_dl_goomba_rgba16
                0x00000000071299a0                ccm_dl_goomba_rgba16_aligner
                0x00000000071299a8                ccm_dl__0x12AA0_ci4_pal_rgba16
                0x00000000071299c8                ccm_dl__0x12AA0_ci4_pal_rgba16_aligner
                0x00000000071299d0                ccm_dl__0x12AA0_ci4
                0x000000000712a1d0                ccm_dl__0x12AA0_ci4_aligner
                0x000000000712a1d8                ccm_dl_GZLE01_ce05cd90_14_ci4_pal_rgba16
                0x000000000712a1f8                ccm_dl_GZLE01_ce05cd90_14_ci4_pal_rgba16_aligner
                0x000000000712a200                ccm_dl_GZLE01_ce05cd90_14_ci4
                0x000000000712aa00                ccm_dl_GZLE01_ce05cd90_14_ci4_aligner
                0x000000000712aa08                ccm_dl_RMGP01_33981d99_14_i8
                0x000000000712ae08                ccm_dl_RMGP01_33981d99_14_i8_aligner
                0x000000000712ae10                ccm_dl_xx_6_ci8_pal_rgba16
                0x000000000712aea8                ccm_dl_xx_6_ci8_pal_rgba16_aligner
                0x000000000712aeb0                ccm_dl_xx_6_ci8
                0x000000000712b2b0                ccm_dl_xx_6_ci8_aligner
                0x000000000712b2b8                ccm_dl_xx_10_ci8_pal_rgba16
                0x000000000712b2f8                ccm_dl_xx_10_ci8_pal_rgba16_aligner
                0x000000000712b300                ccm_dl_xx_10_ci8
                0x000000000712b700                ccm_dl_xx_10_ci8_aligner
                0x000000000712b708                ccm_dl_hqvrcikci4_ci4_pal_rgba16
                0x000000000712b728                ccm_dl_hqvrcikci4_ci4_pal_rgba16_aligner
                0x000000000712b730                ccm_dl_hqvrcikci4_ci4
                0x000000000712bf30                ccm_dl_hqvrcikci4_ci4_aligner
                0x000000000712bf38                ccm_dl_f3d_material_196_lights
                0x000000000712bf50                ccm_dl_f3d_material_199_lights
                0x000000000712bf68                ccm_dl_f3d_material_200_lights
                0x000000000712bf80                ccm_dl_f3d_material_197_lights
                0x000000000712bf98                ccm_dl_f3d_material_194_lights
                0x000000000712bfb0                ccm_dl_f3d_material_195_lights
                0x000000000712bfc8                ccm_dl_LAVA_lights
                0x000000000712bfe0                ccm_dl_f3d_material_201_lights
                0x000000000712bff8                ccm_dl_f3d_material_202_lights
                0x000000000712c010                ccm_dl_f3d_material_206_lights
                0x000000000712c028                ccm_dl_f3d_material_182_lights
                0x000000000712c040                ccm_dl_f3d_material_180_lights
                0x000000000712c058                ccm_dl_f3d_material_043_lights
                0x000000000712c070                ccm_dl_f3d_material_023_lights
                0x000000000712c088                ccm_dl_f3d_material_169_lights
                0x000000000712c0a0                ccm_dl_f3d_material_158_lights
                0x000000000712c0b8                ccm_dl_f3d_material_153_lights
                0x000000000712c0d0                ccm_dl_f3d_material_177_lights
                0x000000000712c0e8                ccm_dl_sm64_material_007_lights
                0x000000000712c100                ccm_dl_sm64_material_002_lights
                0x000000000712c118                ccm_dl_f3d_material_151_lights
                0x000000000712c130                ccm_dl_f3d_material_179_lights
                0x000000000712c148                ccm_dl_f3d_material_178_lights
                0x000000000712c160                ccm_dl_f3d_material_193_lights
                0x000000000712c178                ccm_dl_f3d_material_150_lights
                0x000000000712c190                ccm_dl_f3d_material_188_lights
                0x000000000712c1a8                ccm_dl_f3d_material_155_lights
                0x000000000712c1c0                ccm_dl_f3d_material_152_lights
                0x000000000712c1d8                ccm_dl_f3d_material_161_lights
                0x000000000712c1f0                ccm_dl_f3d_material_154_lights
                0x000000000712c208                ccm_dl_GLASBACK_lights
                0x000000000712c220                ccm_dl_GLASFRONT_lights
                0x000000000712c238                ccm_dl_VMtl046_f3d_v4_lights
                0x000000000712c250                ccm_dl_VMtl040_f3d_v4_lights
                0x000000000712c268                ccm_dl_VMtl043_f3d_v4_lights
                0x000000000712c280                ccm_dl_VMtl047_f3d_v4_lights
                0x000000000712c298                ccm_dl_sm64_material_005_lights
                0x000000000712c2b0                ccm_dl_sm64_material_004_lights
                0x000000000712c2c8                ccm_dl_sm64_material_003_lights
                0x000000000712c2e0                ccm_dl_sm64_material_006_lights
                0x000000000712c2f8                ccm_dl_f3d_material_001_lights
                0x000000000712c310                ccm_dl_f3d_material_181_lights
                0x000000000712c328                ccm_dl_mesh0115mat_f3d_lights
                0x000000000712c340                ccm_dl_WATERRIPPLE_layer6_lights
                0x000000000712c358                ccm_dl_trasurechest_chest_f3d_lights
                0x000000000712c370                ccm_dl_treasurechest_lock_f3d_lights
                0x000000000712c388                ccm_dl_f3d_material_167_lights
                0x000000000712c3a0                ccm_dl_f3d_material_168_lights
                0x000000000712c3b8                ccm_dl_f3d_material_166_lights
                0x000000000712c3d0                ccm_dl_f3d_material_165_lights
                0x000000000712c3e8                ccm_dl_f3d_material_164_lights
                0x000000000712c400                ccm_dl_f3d_material_189_lights
                0x000000000712c418                ccm_dl_f3d_material_186_lights
                0x000000000712c430                ccm_dl_f3d_material_190_lights
                0x000000000712c448                ccm_dl_f3d_material_187_lights
                0x000000000712c460                ccm_dl_f3d_material_185_lights
                0x000000000712c478                ccm_dl_f3d_material_184_lights
                0x000000000712c490                ccm_dl_f3d_material_183_lights
                0x000000000712c4a8                ccm_dl_f3d_material_149_layer1_lights
                0x000000000712c4c0                ccm_dl_f3d_material_148_lights
                0x000000000712c4d8                ccm_dl_f3d_material_191_lights
                0x000000000712c4f0                ccm_dl_f3d_material_192_lights
                0x000000000712c508                ccm_dl_f3d_material_156_lights
                0x000000000712c520                ccm_dl_f3d_material_147_lights
                0x000000000712c538                ccm_dl_f3d_material_160_lights
                0x000000000712c550                ccm_dl_f3d_material_162_lights
                0x000000000712c568                ccm_dl_woodbugged_lights
                0x000000000712c580                ccm_dl_f3d_material_163_lights
                0x000000000712c598                ccm_dl_f3d_material_159_lights
                0x000000000712c5b0                ccm_dl_f3d_material_146_lights
                0x000000000712c5c8                ccm_dl_f3d_material_176_lights
                0x000000000712c5e0                ccm_dl_f3d_material_175_lights
                0x000000000712c5f8                ccm_dl_f3d_material_174_lights
                0x000000000712c610                ccm_dl_f3d_material_173_lights
                0x000000000712c628                ccm_dl_f3d_material_172_lights
                0x000000000712c640                ccm_dl_f3d_material_171_lights
                0x000000000712c658                ccm_dl_f3d_material_170_lights
                0x000000000712c670                ccm_dl_f3d_material_004_lights
                0x000000000712c688                ccm_dl_VMtl073_f3d_v4_lights
                0x000000000712c6a0                ccm_dl_VMtl074_f3d_v4_lights
                0x000000000712c6b8                ccm_dl_f3d_material_055_lights
                0x000000000712c6d0                ccm_dl_sm64_material_001_lights
                0x000000000712c6e8                ccm_dl_f3d_material_132_lights
                0x000000000712c700                ccm_dl_f3d_material_128_lights
                0x000000000712c718                ccm_dl_f3d_material_127_lights
                0x000000000712c730                ccm_dl_f3d_material_122_lights
                0x000000000712c748                ccm_dl_f3d_material_120_lights
                0x000000000712c760                ccm_dl_f3d_material_129_lights
                0x000000000712c778                ccm_dl_f3d_material_121_lights
                0x000000000712c790                ccm_dl_f3d_material_130_lights
                0x000000000712c7a8                ccm_dl_f3d_material_123_lights
                0x000000000712c7c0                ccm_dl_f3d_material_125_lights
                0x000000000712c7d8                ccm_dl_f3d_material_117_lights
                0x000000000712c7f0                ccm_dl_f3d_material_119_lights
                0x000000000712c808                ccm_dl_f3d_material_118_lights
                0x000000000712c820                ccm_dl_f3d_material_139_lights
                0x000000000712c838                ccm_dl_f3d_material_113_lights
                0x000000000712c850                ccm_dl_f3d_material_099_lights
                0x000000000712c868                ccm_dl_f3d_material_106_lights
                0x000000000712c880                ccm_dl_f3d_material_103_lights
                0x000000000712c898                ccm_dl_f3d_material_098_lights
                0x000000000712c8b0                ccm_dl_f3d_material_096_lights
                0x000000000712c8c8                ccm_dl_f3d_material_094_lights
                0x000000000712c8e0                ccm_dl_f3d_material_101_lights
                0x000000000712c8f8                ccm_dl_f3d_material_100_lights
                0x000000000712c910                ccm_dl_f3d_material_097_lights
                0x000000000712c928                ccm_dl_f3d_material_141_lights
                0x000000000712c940                ccm_dl_f3d_material_140_lights
                0x000000000712c958                ccm_dl_f3d_material_137_lights
                0x000000000712c970                ccm_dl_f3d_material_138_lights
                0x000000000712c988                ccm_dl_actualCake_SG_f3d_v3_lights
                0x000000000712c9a0                ccm_dl_cherryXstrawberry_SG_f3d_v3_lights
                0x000000000712c9b8                ccm_dl_f3d_material_135_lights
                0x000000000712c9d0                ccm_dl_f3d_material_134_lights
                0x000000000712c9e8                ccm_dl_f3d_material_133_lights
                0x000000000712ca00                ccm_dl_f3d_material_084_lights
                0x000000000712ca18                ccm_dl_f3d_material_083_lights
                0x000000000712ca30                ccm_dl_chair_seat_f3d_lights
                0x000000000712ca48                ccm_dl_chair_wood_f3d_lights
                0x000000000712ca60                ccm_dl_f3d_material_081_lights
                0x000000000712ca78                ccm_dl_f3d_material_082_lights
                0x000000000712ca90                ccm_dl_mesh0218mat_f3d_lights
                0x000000000712caa8                ccm_dl_f3d_material_142_lights
                0x000000000712cac0                ccm_dl_f3d_material_093_lights
                0x000000000712cad8                ccm_dl_f3d_material_088_lights
                0x000000000712caf0                ccm_dl_f3d_material_090_lights
                0x000000000712cb08                ccm_dl_f3d_material_089_lights
                0x000000000712cb20                ccm_dl_f3d_material_086_lights
                0x000000000712cb38                ccm_dl_f3d_material_087_lights
                0x000000000712cb50                ccm_dl_f3d_material_091_lights
                0x000000000712cb68                ccm_dl_f3d_material_080_lights
                0x000000000712cb80                ccm_dl_f3d_material_085_lights
                0x000000000712cb98                ccm_dl_f3d_material_111_lights
                0x000000000712cbb0                ccm_dl_f3d_material_115_lights
                0x000000000712cbc8                ccm_dl_f3d_material_102_lights
                0x000000000712cbe0                ccm_dl_f3d_material_092_lights
                0x000000000712cbf8                ccm_dl_f3d_material_104_lights
                0x000000000712cc10                ccm_dl_f3d_material_105_lights
                0x000000000712cc28                ccm_dl_f3d_material_114_lights
                0x000000000712cc40                ccm_dl_f3d_material_112_lights
                0x000000000712cc58                ccm_dl_f3d_material_110_lights
                0x000000000712cc70                ccm_dl_f3d_material_109_lights
                0x000000000712cc88                ccm_dl_f3d_material_136_lights
                0x000000000712cca0                ccm_dl_f3d_material_107_lights
                0x000000000712ccb8                ccm_dl_f3d_material_095_lights
                0x000000000712ccd0                ccm_dl_f3d_material_116_lights
                0x000000000712cce8                ccm_dl_f3d_material_131_lights
                0x000000000712cd00                ccm_dl_f3d_material_010_lights
                0x000000000712cd18                ccm_dl_f3d_material_067_lights
                0x000000000712cd30                ccm_dl_AF9Water_lights
                0x000000000712cd48                ccm_dl_f3d_material_012_lights
                0x000000000712cd60                ccm_dl_f3d_material_070_lights
                0x000000000712cd78                ccm_dl_ZZFloor_lights
                0x000000000712cd90                ccm_dl_f3d_material_021_lights
                0x000000000712cda8                ccm_dl_f3d_material_020_lights
                0x000000000712cdc0                ccm_dl_f3d_material_019_lights
                0x000000000712cdd8                ccm_dl_multitexwithZ_layer1_lights
                0x000000000712cdf0                ccm_dl_multitexnoZ_layer0_lights
                0x000000000712ce08                ccm_dl_f3d_material_045_lights
                0x000000000712ce20                ccm_dl_f3d_material_044_lights
                0x000000000712ce38                ccm_dl_f3d_material_040_lights
                0x000000000712ce50                ccm_dl_initialShadingGroup_f3d_lights
                0x000000000712ce68                ccm_dl_f3d_material_039_lights
                0x000000000712ce80                ccm_dl_f3d_material_038_lights
                0x000000000712ce98                ccm_dl_f3d_material_037_lights
                0x000000000712ceb0                ccm_dl_f3d_material_036_lights
                0x000000000712cec8                ccm_dl_f3d_material_062_lights
                0x000000000712cee0                ccm_dl_f3d_material_033_lights
                0x000000000712cef8                ccm_dl_ZOOWATER_layer5_lights
                0x000000000712cf10                ccm_dl_f3d_material_032_lights
                0x000000000712cf28                ccm_dl_f3d_material_047_lights
                0x000000000712cf40                ccm_dl_f3d_material_006_lights
                0x000000000712cf58                ccm_dl_ZF8Water_lights
                0x000000000712cf70                ccm_dl_m0_f3d_lights
                0x000000000712cf88                ccm_dl_f3d_material_015_layer0_lights
                0x000000000712cfa0                ccm_dl_f3d_material_079_lights
                0x000000000712cfb8                ccm_dl_f3d_material_078_lights
                0x000000000712cfd0                ccm_dl_f3d_material_011_lights
                0x000000000712cfe8                ccm_dl_f3d_material_076_lights
                0x000000000712d000                ccm_dl_f3d_material_075_lights
                0x000000000712d018                ccm_dl_f3d_material_073_lights
                0x000000000712d030                ccm_dl_f3d_material_065_lights
                0x000000000712d048                ccm_dl_f3d_material_063_lights
                0x000000000712d060                ccm_dl_f3d_material_314_lights
                0x000000000712d078                ccm_dl_f3d_material_312_lights
                0x000000000712d090                ccm_dl_f3d_material_313_lights
                0x000000000712d0a8                ccm_dl_f3d_material_310_lights
                0x000000000712d0c0                ccm_dl_f3d_material_058_lights
                0x000000000712d0d8                ccm_dl_f3d_material_013_lights
                0x000000000712d0f0                ccm_dl_f3d_material_068_lights
                0x000000000712d108                ccm_dl_Material_003_F000_Straw_png_001_f3d_001_lights
                0x000000000712d120                ccm_dl_f3d_material_lights
                0x000000000712d138                ccm_dl_f3d_material_050_lights
                0x000000000712d150                ccm_dl_ZZDirt_002_layer1_lights
                0x000000000712d168                ccm_dl_ZZDirt_001_lights
                0x000000000712d180                ccm_dl_f3d_material_057_lights
                0x000000000712d198                ccm_dl_m14_f3d_lights
                0x000000000712d1b0                ccm_dl_f3d_material_056_lights
                0x000000000712d1c8                ccm_dl_f3d_material_059_lights
                0x000000000712d1e0                ccm_dl_f3d_material_053_lights
                0x000000000712d1f8                ccm_dl_f3d_material_052_lights
                0x000000000712d210                ccm_dl_f3d_material_061_lights
                0x000000000712d228                ccm_dl_f3d_material_060_lights
                0x000000000712d240                ccm_dl_f3d_material_051_lights
                0x000000000712d258                ccm_dl_f3d_material_311_lights
                0x000000000712d270                ccm_dl_f3d_material_048_lights
                0x000000000712d288                ccm_dl_f3d_material_144_lights
                0x000000000712d2a0                ccm_dl_f3d_material_027_lights
                0x000000000712d2b8                ccm_dl_f3d_material_028_lights
                0x000000000712d2d0                ccm_dl_f3d_material_041_lights
                0x000000000712d2e8                ccm_dl_f3d_material_042_lights
                0x000000000712d300                ccm_dl_f3d_material_026_lights
                0x000000000712d318                ccm_dl_f3d_material_022_lights
                0x000000000712d330                ccm_dl_f3d_material_018_lights
                0x000000000712d348                ccm_dl_f3d_material_017_lights
                0x000000000712d360                ccm_dl_f3d_material_029_lights
                0x000000000712d378                ccm_dl_ZZDirt_lights
                0x000000000712d390                ccm_dl_f3d_material_024_lights
                0x000000000712d3a8                ccm_dl_f3d_material_025_lights
                0x000000000712d3c0                ccm_dl_Material_001_f3d_002_lights
                0x000000000712d3d8                ccm_dl_f3d_material_049_lights
                0x000000000712d3f0                ccm_dl_f3d_material_074_lights
                0x000000000712d408                ccm_dl_f3d_material_143_lights
                0x000000000712d420                ccm_dl_f3d_material_207_lights
                0x000000000712d438                ccm_dl_f3d_material_205_lights
                0x000000000712d450                ccm_dl_f3d_material_203_lights
                0x000000000712d468                ccm_dl_f3d_material_204_lights
                0x000000000712d480                ccm_dl_f3d_material_066_lights
                0x000000000712d498                ccm_dl_Material_003_track_png_001_f3d_lights
                0x000000000712d4b0                ccm_dl_Material_003_RMGP01_33981d99_14_png_001_f3d_lights
                0x000000000712d4c8                ccm_dl_Material_003_xx_6_png_001_f3d_lights
                0x000000000712d4e0                ccm_dl_Material_003_xx_10_png_001_f3d_lights
                0x000000000712d4f8                ccm_dl_f3d_material_002_lights
                0x000000000712d510                ccm_area_4_macro_objs
                0x000000000712d514                ccm_area_4_collision
                0x000000000712fed4                ccm_area_3_spline_TURTLEPOINTS
                0x000000000712ff18                ccm_area_3_spline_SHARKPOINTS
                0x000000000712ff94                ccm_area_3_spline_MANTAPOINTS
                0x000000000712ffd0                ccm_area_3_spline_CHEEPPOINTS
                0x000000000713002c                ccm_area_3_macro_objs
                0x0000000007130030                ccm_area_3_collision
                0x0000000007134360                ccm_area_2_macro_objs
                0x0000000007134364                ccm_area_2_collision
                0x0000000007138dac                ccm_area_1_spline_PENGUPOINTS
                0x0000000007138de8                ccm_area_1_spline_MonkeyMidPoints
                0x0000000007138e08                ccm_area_1_spline_MonkeyLowPoints
                0x0000000007138e50                ccm_area_1_spline_MonkeyHighPoints
                0x0000000007138e68                ccm_area_1_spline_IntroCutscenePos_003
                0x0000000007138e80                ccm_area_1_spline_IntroCutscenePos_002
                0x0000000007138e90                ccm_area_1_spline_IntroCutscenePos_001
                0x0000000007138ea0                ccm_area_1_spline_IntroCutscenePos
                0x0000000007138eb0                ccm_area_1_spline_IntroCutsceneFoc_003
                0x0000000007138ec8                ccm_area_1_spline_IntroCutsceneFoc_002
                0x0000000007138ed8                ccm_area_1_spline_IntroCutsceneFoc_001
                0x0000000007138ee8                ccm_area_1_spline_IntroCutsceneFoc
                0x0000000007138ef8                ccm_area_1_macro_objs
                0x0000000007138efc                ccm_area_1_collision
                0x000000000713e1b8                dorriehappy

.data1
 *(.data1)

.got.plt
 *(.got.plt)
                0x000000000713e2b8                . = .
                0x00000000071462b0                _gp = (ALIGN (0x10) + 0x7ff0)

.got
 *(.got)

.sdata
 *(.sdata .sdata.* .gnu.linkonce.s.*)

.lit8
 *(.lit8)

.lit4
 *(.lit4)
                0x000000000713e2b8                _edata = .
                [!provide]                        PROVIDE (edata = .)
                0x000000000713e2b8                . = .
                0x000000000713e2b8                __bss_start = .
                0x000000000713e2b8                _fbss = .

.sbss
 *(.dynsbss)
 *(.sbss .sbss.* .gnu.linkonce.sb.*)
 *(.scommon)

.bss            0x000000000713e2b8        0x0
 *(.dynbss)
 *(.bss .bss.* .gnu.linkonce.b.*)
 .bss           0x000000000713e2b8        0x0 build/us/levels/ccm/leveldata.o
 *(COMMON)
                0x000000000713e2b8                . = ALIGN ((. != 0x0)?0x4:0x1)
                0x000000000713e2b8                . = ALIGN (0x4)
                0x000000000713e2b8                . = SEGMENT_START ("ldata-segment", .)
                0x000000000713e2b8                . = ALIGN (0x4)
                0x000000000713e2b8                _end = .
                [!provide]                        PROVIDE (end = .)
                0x000000000713e2b8                . = DATA_SEGMENT_END (.)

.stab
 *(.stab)

.stabstr
 *(.stabstr)

.stab.excl
 *(.stab.excl)

.stab.exclstr
 *(.stab.exclstr)

.stab.index
 *(.stab.index)

.stab.indexstr
 *(.stab.indexstr)

.comment        0x0000000000000000       0x12
 *(.comment)
 .comment       0x0000000000000000       0x12 build/us/levels/ccm/leveldata.o
                                         0x13 (size before relaxing)

.pdr            0x0000000000000000        0x0
 .pdr           0x0000000000000000        0x0 build/us/levels/ccm/leveldata.o

.gnu.build.attributes
 *(.gnu.build.attributes .gnu.build.attributes.*)

.debug
 *(.debug)

.line
 *(.line)

.debug_srcinfo
 *(.debug_srcinfo)

.debug_sfnames
 *(.debug_sfnames)

.debug_aranges
 *(.debug_aranges)

.debug_pubnames
 *(.debug_pubnames)

.debug_info
 *(.debug_info .gnu.linkonce.wi.*)

.debug_abbrev
 *(.debug_abbrev)

.debug_line
 *(.debug_line .debug_line.* .debug_line_end)

.debug_frame
 *(.debug_frame)

.debug_str
 *(.debug_str)

.debug_loc
 *(.debug_loc)

.debug_macinfo
 *(.debug_macinfo)

.debug_weaknames
 *(.debug_weaknames)

.debug_funcnames
 *(.debug_funcnames)

.debug_typenames
 *(.debug_typenames)

.debug_varnames
 *(.debug_varnames)

.debug_pubtypes
 *(.debug_pubtypes)

.debug_ranges
 *(.debug_ranges)

.debug_addr
 *(.debug_addr)

.debug_line_str
 *(.debug_line_str)

.debug_loclists
 *(.debug_loclists)

.debug_macro
 *(.debug_macro)

.debug_names
 *(.debug_names)

.debug_rnglists
 *(.debug_rnglists)

.debug_str_offsets
 *(.debug_str_offsets)

.debug_sup
 *(.debug_sup)

.gnu.attributes
                0x0000000000000000       0x10
 *(.gnu.attributes)
 .gnu.attributes
                0x0000000000000000       0x10 build/us/levels/ccm/leveldata.o

.gptab.sdata
 *(.gptab.data)
 *(.gptab.sdata)

.gptab.sbss
 *(.gptab.bss)
 *(.gptab.sbss)

.mdebug.abi32   0x0000000000000000        0x0
 *(.mdebug.abi32)
 .mdebug.abi32  0x0000000000000000        0x0 build/us/levels/ccm/leveldata.o

.mdebug.abiN32
 *(.mdebug.abiN32)

.mdebug.abi64
 *(.mdebug.abi64)

.mdebug.abiO64
 *(.mdebug.abiO64)

.mdebug.eabi32
 *(.mdebug.eabi32)

.mdebug.eabi64
 *(.mdebug.eabi64)

.gcc_compiled_long32
 *(.gcc_compiled_long32)

.gcc_compiled_long64
 *(.gcc_compiled_long64)

/DISCARD/
 *(.note.GNU-stack)
 *(.gnu_debuglink)
 *(.gnu.lto_*)
OUTPUT(build/us/levels/ccm/leveldata.elf elf32-bigmips)
