
Memory Configuration

Name             Origin             Length             Attributes
*default*        0x0000000000000000 0xffffffffffffffff

Linker script and memory map

Address of section .text set to 0x7000000
LOAD build/us/bin/generic.elf
LOAD build/us/levels/bob/leveldata.o
                [!provide]                        PROVIDE (__executable_start = SEGMENT_START ("text-segment", 0x400000))
                0x0000000000400000                . = SEGMENT_START ("text-segment", 0x400000)

.interp
 *(.interp)

.MIPS.abiflags  0x0000000000400000       0x18
 *(.MIPS.abiflags)
 .MIPS.abiflags
                0x0000000000400000       0x18 build/us/levels/bob/leveldata.o

.reginfo        0x0000000000400018       0x18
 *(.reginfo)
 .reginfo       0x0000000000400018       0x18 build/us/levels/bob/leveldata.o

.MIPS.xhash
 *(.MIPS.xhash)

.note.gnu.build-id
 *(.note.gnu.build-id)

.dynamic
 *(.dynamic)

.hash
 *(.hash)

.gnu.hash
 *(.gnu.hash)

.dynsym
 *(.dynsym)

.dynstr
 *(.dynstr)

.gnu.version
 *(.gnu.version)

.gnu.version_d
 *(.gnu.version_d)

.gnu.version_r
 *(.gnu.version_r)

.rel.dyn        0x0000000000400018        0x0
 *(.rel.init)
 *(.rel.text .rel.text.* .rel.gnu.linkonce.t.*)
 *(.rel.fini)
 *(.rel.rodata .rel.rodata.* .rel.gnu.linkonce.r.*)
 *(.rel.data.rel.ro .rel.data.rel.ro.* .rel.gnu.linkonce.d.rel.ro.*)
 *(.rel.data .rel.data.* .rel.gnu.linkonce.d.*)
 *(.rel.tdata .rel.tdata.* .rel.gnu.linkonce.td.*)
 *(.rel.tbss .rel.tbss.* .rel.gnu.linkonce.tb.*)
 *(.rel.ctors)
 *(.rel.dtors)
 *(.rel.got)
 *(.rel.dyn)
 .rel.dyn       0x0000000000400018        0x0 build/us/levels/bob/leveldata.o
 *(.rel.sdata .rel.sdata.* .rel.gnu.linkonce.s.*)
 *(.rel.sbss .rel.sbss.* .rel.gnu.linkonce.sb.*)
 *(.rel.sdata2 .rel.sdata2.* .rel.gnu.linkonce.s2.*)
 *(.rel.sbss2 .rel.sbss2.* .rel.gnu.linkonce.sb2.*)
 *(.rel.bss .rel.bss.* .rel.gnu.linkonce.b.*)
                [!provide]                        PROVIDE (__rel_iplt_start = .)
 *(.rel.iplt)
                [!provide]                        PROVIDE (__rel_iplt_end = .)

.rela.dyn       0x0000000000400018        0x0
 *(.rela.init)
 *(.rela.text .rela.text.* .rela.gnu.linkonce.t.*)
 *(.rela.fini)
 *(.rela.rodata .rela.rodata.* .rela.gnu.linkonce.r.*)
 *(.rela.data .rela.data.* .rela.gnu.linkonce.d.*)
 *(.rela.tdata .rela.tdata.* .rela.gnu.linkonce.td.*)
 *(.rela.tbss .rela.tbss.* .rela.gnu.linkonce.tb.*)
 *(.rela.ctors)
 *(.rela.dtors)
 *(.rela.got)
 *(.rela.sdata .rela.sdata.* .rela.gnu.linkonce.s.*)
 *(.rela.sbss .rela.sbss.* .rela.gnu.linkonce.sb.*)
 *(.rela.sdata2 .rela.sdata2.* .rela.gnu.linkonce.s2.*)
 *(.rela.sbss2 .rela.sbss2.* .rela.gnu.linkonce.sb2.*)
 *(.rela.bss .rela.bss.* .rela.gnu.linkonce.b.*)
                [!provide]                        PROVIDE (__rela_iplt_start = .)
 *(.rela.iplt)
                [!provide]                        PROVIDE (__rela_iplt_end = .)

.rel.plt
 *(.rel.plt)

.rela.plt
 *(.rela.plt)

.init
 *(SORT_NONE(.init))

.plt
 *(.plt)

.iplt
 *(.iplt)

.text           0x0000000007000000        0x0
                0x0000000007000000                _ftext = .
 *(.text.unlikely .text.*_unlikely .text.unlikely.*)
 *(.text.exit .text.exit.*)
 *(.text.startup .text.startup.*)
 *(.text.hot .text.hot.*)
 *(SORT_BY_NAME(.text.sorted.*))
 *(.text .stub .text.* .gnu.linkonce.t.*)
 .text          0x0000000007000000        0x0 build/us/levels/bob/leveldata.o
 *(.gnu.warning)
 *(.mips16.fn.*)
 *(.mips16.call.*)

.fini
 *(SORT_NONE(.fini))
                [!provide]                        PROVIDE (__etext = .)
                [!provide]                        PROVIDE (_etext = .)
                [!provide]                        PROVIDE (etext = .)

.rodata
 *(.rodata .rodata.* .gnu.linkonce.r.*)

.rodata1
 *(.rodata1)

.sdata2
 *(.sdata2 .sdata2.* .gnu.linkonce.s2.*)

.sbss2
 *(.sbss2 .sbss2.* .gnu.linkonce.sb2.*)

.eh_frame_hdr
 *(.eh_frame_hdr)
 *(.eh_frame_entry .eh_frame_entry.*)

.eh_frame
 *(.eh_frame)
 *(.eh_frame.*)

.gcc_except_table
 *(.gcc_except_table .gcc_except_table.*)

.gnu_extab
 *(.gnu_extab*)

.exception_ranges
 *(.exception_ranges*)
                0x0000000007000000                . = DATA_SEGMENT_ALIGN (CONSTANT (MAXPAGESIZE), CONSTANT (COMMONPAGESIZE))

.eh_frame
 *(.eh_frame)
 *(.eh_frame.*)

.gnu_extab
 *(.gnu_extab)

.gcc_except_table
 *(.gcc_except_table .gcc_except_table.*)

.exception_ranges
 *(.exception_ranges*)

.tdata          0x0000000007000000        0x0
                [!provide]                        PROVIDE (__tdata_start = .)
 *(.tdata .tdata.* .gnu.linkonce.td.*)

.tbss
 *(.tbss .tbss.* .gnu.linkonce.tb.*)
 *(.tcommon)

.preinit_array  0x0000000007000000        0x0
                [!provide]                        PROVIDE (__preinit_array_start = .)
 *(.preinit_array)
                [!provide]                        PROVIDE (__preinit_array_end = .)

.init_array     0x0000000007000000        0x0
                [!provide]                        PROVIDE (__init_array_start = .)
 *(SORT_BY_INIT_PRIORITY(.init_array.*) SORT_BY_INIT_PRIORITY(.ctors.*))
 *(.init_array EXCLUDE_FILE(*crtend?.o *crtend.o *crtbegin?.o *crtbegin.o) .ctors)
                [!provide]                        PROVIDE (__init_array_end = .)

.fini_array     0x0000000007000000        0x0
                [!provide]                        PROVIDE (__fini_array_start = .)
 *(SORT_BY_INIT_PRIORITY(.fini_array.*) SORT_BY_INIT_PRIORITY(.dtors.*))
 *(.fini_array EXCLUDE_FILE(*crtend?.o *crtend.o *crtbegin?.o *crtbegin.o) .dtors)
                [!provide]                        PROVIDE (__fini_array_end = .)

.ctors
 *crtbegin.o(.ctors)
 *crtbegin?.o(.ctors)
 *(EXCLUDE_FILE(*crtend?.o *crtend.o) .ctors)
 *(SORT_BY_NAME(.ctors.*))
 *(.ctors)

.dtors
 *crtbegin.o(.dtors)
 *crtbegin?.o(.dtors)
 *(EXCLUDE_FILE(*crtend?.o *crtend.o) .dtors)
 *(SORT_BY_NAME(.dtors.*))
 *(.dtors)

.jcr
 *(.jcr)

.data.rel.ro
 *(.data.rel.ro.local* .gnu.linkonce.d.rel.ro.local.*)
 *(.data.rel.ro .data.rel.ro.* .gnu.linkonce.d.rel.ro.*)
                0x0000000007000000                . = DATA_SEGMENT_RELRO_END (., 0x0)

.data           0x0000000007000000    0x64128
                0x0000000007000000                _fdata = .
 *(.data .data.* .gnu.linkonce.d.*)
 .data          0x0000000007000000    0x64128 build/us/levels/bob/leveldata.o
                0x0000000007000000                bunny_anims
                0x0000000007002e10                bunny_material_revert_render_settings
                0x0000000007002e50                bunny_tip_r_mesh_layer_1
                0x0000000007002e70                bunny_tip_r_skinned_mesh_layer_1
                0x0000000007002e88                bunny_foot_r_mesh_layer_1
                0x0000000007002ea0                bunny_foot_r_skinned_mesh_layer_1
                0x0000000007002eb8                bunny_leg_r_mesh_layer_1
                0x0000000007002ed0                bunny_tip_l_mesh_layer_1
                0x0000000007002ef0                bunny_tip_l_skinned_mesh_layer_1
                0x0000000007002f08                bunny_foot_l_mesh_layer_1
                0x0000000007002f20                bunny_foot_l_skinned_mesh_layer_1
                0x0000000007002f38                bunny_leg_l_mesh_layer_1
                0x0000000007002f50                bunny_ear3_r_mesh_layer_1
                0x0000000007002f70                bunny_ear3_r_skinned_mesh_layer_1
                0x0000000007002f88                bunny_ear2_r_mesh_layer_1
                0x0000000007002fa0                bunny_ear3_l_mesh_layer_1
                0x0000000007002fc0                bunny_ear3_l_skinned_mesh_layer_1
                0x0000000007002fd8                bunny_ear2_l_mesh_layer_1
                0x0000000007002ff0                bunny_head_mesh_layer_1
                0x0000000007003020                bunny_Bone_006_mesh_layer_1
                0x0000000007003038                bunny_Bone_mesh_layer_1
                0x0000000007003050                mat_revert_bunny_sm64_material_006
                0x0000000007003068                mat_bunny_sm64_material_006
                0x0000000007003118                mat_bunny_MIPSFACE
                0x0000000007003190                bunny_tip_r_mesh_layer_1_tri_1
                0x00000000070031b0                bunny_tip_r_mesh_layer_1_vtx_1
                0x0000000007003200                bunny_tip_r_mesh_layer_1_tri_0
                0x0000000007003230                bunny_tip_r_mesh_layer_1_vtx_0
                0x0000000007003270                bunny_tip_r_skinned_mesh_layer_1_tri_0
                0x0000000007003280                bunny_tip_r_skinned_mesh_layer_1_vtx_0
                0x00000000070032c0                bunny_foot_r_mesh_layer_1_tri_0
                0x0000000007003300                bunny_foot_r_mesh_layer_1_vtx_0
                0x0000000007003340                bunny_foot_r_skinned_mesh_layer_1_tri_0
                0x0000000007003350                bunny_foot_r_skinned_mesh_layer_1_vtx_0
                0x00000000070033a0                bunny_leg_r_mesh_layer_1_tri_0
                0x00000000070033c0                bunny_leg_r_mesh_layer_1_vtx_0
                0x0000000007003420                bunny_tip_l_mesh_layer_1_tri_1
                0x0000000007003440                bunny_tip_l_mesh_layer_1_vtx_1
                0x0000000007003490                bunny_tip_l_mesh_layer_1_tri_0
                0x00000000070034c0                bunny_tip_l_mesh_layer_1_vtx_0
                0x0000000007003500                bunny_tip_l_skinned_mesh_layer_1_tri_0
                0x0000000007003510                bunny_tip_l_skinned_mesh_layer_1_vtx_0
                0x0000000007003550                bunny_foot_l_mesh_layer_1_tri_0
                0x0000000007003588                bunny_foot_l_mesh_layer_1_vtx_0
                0x00000000070035c8                bunny_foot_l_skinned_mesh_layer_1_tri_0
                0x00000000070035d8                bunny_foot_l_skinned_mesh_layer_1_vtx_0
                0x0000000007003628                bunny_leg_l_mesh_layer_1_tri_0
                0x0000000007003648                bunny_leg_l_mesh_layer_1_vtx_0
                0x00000000070036a8                bunny_ear3_r_mesh_layer_1_tri_1
                0x00000000070036c8                bunny_ear3_r_mesh_layer_1_vtx_1
                0x0000000007003708                bunny_ear3_r_mesh_layer_1_tri_0
                0x0000000007003730                bunny_ear3_r_mesh_layer_1_vtx_0
                0x0000000007003760                bunny_ear3_r_skinned_mesh_layer_1_tri_0
                0x0000000007003770                bunny_ear3_r_skinned_mesh_layer_1_vtx_0
                0x00000000070037a0                bunny_ear2_r_mesh_layer_1_tri_0
                0x00000000070037c8                bunny_ear2_r_mesh_layer_1_vtx_0
                0x0000000007003828                bunny_ear3_l_mesh_layer_1_tri_1
                0x0000000007003848                bunny_ear3_l_mesh_layer_1_vtx_1
                0x0000000007003888                bunny_ear3_l_mesh_layer_1_tri_0
                0x00000000070038b0                bunny_ear3_l_mesh_layer_1_vtx_0
                0x00000000070038e0                bunny_ear3_l_skinned_mesh_layer_1_tri_0
                0x00000000070038f0                bunny_ear3_l_skinned_mesh_layer_1_vtx_0
                0x0000000007003920                bunny_ear2_l_mesh_layer_1_tri_0
                0x0000000007003948                bunny_ear2_l_mesh_layer_1_vtx_0
                0x00000000070039a8                bunny_head_mesh_layer_1_tri_1
                0x00000000070039c0                bunny_head_mesh_layer_1_vtx_1
                0x0000000007003a00                bunny_head_mesh_layer_1_tri_0
                0x0000000007003aa8                bunny_head_mesh_layer_1_vtx_0
                0x0000000007003d78                bunny_Bone_006_mesh_layer_1_tri_0
                0x0000000007003da8                bunny_Bone_006_mesh_layer_1_vtx_0
                0x0000000007003e08                bunny_Bone_mesh_layer_1_tri_0
                0x0000000007003ea8                bunny_Bone_mesh_layer_1_vtx_0
                0x0000000007003fe8                bunny_rabbittooth_ci8_pal_rgba16
                0x0000000007004048                bunny_rabbittooth_ci8_pal_rgba16_aligner
                0x0000000007004050                bunny_rabbittooth_ci8
                0x0000000007004150                bunny_rabbittooth_ci8_aligner
                0x0000000007004158                bunny__0600FC70_rgba16
                0x0000000007005158                bunny__0600FC70_rgba16_aligner
                0x0000000007005160                bunny_sm64_material_006_lights
                0x0000000007005178                bunny_MIPSFACE_lights
                0x0000000007005190                windmill_anims
                0x0000000007005268                windmill_material_revert_render_settings
                0x00000000070052a0                windmill_Bone_001_mesh_layer_1
                0x00000000070052c0                windmill_Bone_001_mesh_layer_5
                0x00000000070052e0                windmill_Bone_mesh_layer_5
                0x0000000007005318                mat_revert_windmill_f3d_material_002
                0x0000000007005338                mat_windmill_f3d_material_002
                0x00000000070053f0                mat_revert_windmill_f3d_material_001
                0x0000000007005410                mat_windmill_f3d_material_001
                0x00000000070054c8                mat_revert_windmill_f3d_material
                0x00000000070054e0                mat_windmill_f3d_material
                0x0000000007005560                windmill_Bone_001_mesh_layer_1_tri_0
                0x0000000007005590                windmill_Bone_001_mesh_layer_1_vtx_0
                0x0000000007005690                windmill_Bone_001_mesh_layer_5_tri_0
                0x00000000070056b8                windmill_Bone_001_mesh_layer_5_vtx_0
                0x0000000007005748                windmill_Bone_mesh_layer_5_tri_1
                0x0000000007005760                windmill_Bone_mesh_layer_5_vtx_1
                0x00000000070057b0                windmill_Bone_mesh_layer_5_tri_0
                0x0000000007005820                windmill_Bone_mesh_layer_5_vtx_0
                0x00000000070059c0                windmill__811A8D780A209094C9D7FBBEB854F3A1_ci4_pal_rgba16
                0x00000000070059e0                windmill__811A8D780A209094C9D7FBBEB854F3A1_ci4_pal_rgba16_aligner
                0x00000000070059e8                windmill__811A8D780A209094C9D7FBBEB854F3A1_ci4
                0x0000000007005e08                windmill__811A8D780A209094C9D7FBBEB854F3A1_ci4_aligner
                0x0000000007005e10                windmill_KKIIDDZZ_DAT_2264__p00_ci4_pal_rgba16
                0x0000000007005e30                windmill_KKIIDDZZ_DAT_2264__p00_ci4_pal_rgba16_aligner
                0x0000000007005e38                windmill_KKIIDDZZ_DAT_2264__p00_ci4
                0x0000000007006638                windmill_KKIIDDZZ_DAT_2264__p00_ci4_aligner
                0x0000000007006640                windmill_WindmillTextureTest_i8
                0x0000000007007640                windmill_WindmillTextureTest_i8_aligner
                0x0000000007007648                windmill_f3d_material_002_lights
                0x0000000007007660                windmill_f3d_material_001_lights
                0x0000000007007678                windmill_f3d_material_lights
                0x0000000007007690                bunnyarrows_collision
                0x00000000070077e0                bunnyarrows_material_revert_render_settings
                0x0000000007007820                bunnyarrows_Cube_mesh_layer_1
                0x0000000007007860                mat_revert_bunnyarrows_f3d_material
                0x0000000007007878                mat_bunnyarrows_f3d_material
                0x00000000070078f8                bunnyarrows_Cube_mesh_layer_1_tri_0
                0x0000000007007980                bunnyarrows_Cube_mesh_layer_1_vtx_0
                0x0000000007007b00                bunnyarrows_Cube_mesh_layer_1_vtx_cull
                0x0000000007007b80                bunnyarrows_Grain01Gray_i4
                0x0000000007007f80                bunnyarrows_Grain01Gray_i4_aligner
                0x0000000007007f88                bunnyarrows_f3d_material_lights
                0x0000000007007fa0                goombabunny_anims
                0x0000000007008678                goombabunny_material_revert_render_settings
                0x00000000070086b8                goombabunny_Bone_002_mesh_layer_4
                0x00000000070086d8                goombabunny_Bone_006_r_mesh_layer_1
                0x0000000007008700                goombabunny_Bone_006_r_skinned_mesh_layer_1
                0x0000000007008720                goombabunny_Bone_005_r_mesh_layer_1
                0x0000000007008740                goombabunny_Bone_006_l_mesh_layer_1
                0x0000000007008768                goombabunny_Bone_006_l_skinned_mesh_layer_1
                0x0000000007008788                goombabunny_Bone_005_l_mesh_layer_1
                0x00000000070087a8                goombabunny_Bone_003_l_mesh_layer_1
                0x00000000070087c0                goombabunny_Bone_001_mesh_layer_4
                0x0000000007008808                mat_revert_goombabunny_sm64_material_007
                0x0000000007008820                mat_goombabunny_sm64_material_007
                0x00000000070088a0                mat_goombabunny_sm64_material_005
                0x00000000070088d8                mat_revert_goombabunny_sm64_material
                0x00000000070088f8                mat_goombabunny_sm64_material
                0x00000000070089b0                mat_revert_goombabunny_g002m00_png_f3d
                0x00000000070089c8                mat_goombabunny_g002m00_png_f3d
                0x0000000007008a78                mat_goombabunny_g002m004_png_f3d
                0x0000000007008af0                goombabunny_Bone_002_mesh_layer_4_tri_0
                0x0000000007008b08                goombabunny_Bone_002_mesh_layer_4_vtx_0
                0x0000000007008b38                goombabunny_Bone_006_r_mesh_layer_1_tri_1
                0x0000000007008b58                goombabunny_Bone_006_r_mesh_layer_1_vtx_1
                0x0000000007008b98                goombabunny_Bone_006_r_mesh_layer_1_tri_0
                0x0000000007008bc0                goombabunny_Bone_006_r_mesh_layer_1_vtx_0
                0x0000000007008bf0                goombabunny_Bone_006_r_skinned_mesh_layer_1_tri_0
                0x0000000007008c00                goombabunny_Bone_006_r_skinned_mesh_layer_1_vtx_0
                0x0000000007008c30                goombabunny_Bone_005_r_mesh_layer_1_tri_0
                0x0000000007008c58                goombabunny_Bone_005_r_mesh_layer_1_vtx_0
                0x0000000007008cb8                goombabunny_Bone_006_l_mesh_layer_1_tri_1
                0x0000000007008cd8                goombabunny_Bone_006_l_mesh_layer_1_vtx_1
                0x0000000007008d18                goombabunny_Bone_006_l_mesh_layer_1_tri_0
                0x0000000007008d40                goombabunny_Bone_006_l_mesh_layer_1_vtx_0
                0x0000000007008d70                goombabunny_Bone_006_l_skinned_mesh_layer_1_tri_0
                0x0000000007008d80                goombabunny_Bone_006_l_skinned_mesh_layer_1_vtx_0
                0x0000000007008db0                goombabunny_Bone_005_l_mesh_layer_1_tri_0
                0x0000000007008dd8                goombabunny_Bone_005_l_mesh_layer_1_vtx_0
                0x0000000007008e38                goombabunny_Bone_003_l_mesh_layer_1_tri_0
                0x0000000007008ef8                goombabunny_Bone_003_l_mesh_layer_1_vtx_0
                0x0000000007009098                goombabunny_Bone_001_mesh_layer_4_tri_2
                0x00000000070090b0                goombabunny_Bone_001_mesh_layer_4_vtx_2
                0x0000000007009110                goombabunny_Bone_001_mesh_layer_4_tri_1
                0x0000000007009210                goombabunny_Bone_001_mesh_layer_4_vtx_1
                0x0000000007009410                goombabunny_Bone_001_mesh_layer_4_tri_0
                0x0000000007009428                goombabunny_Bone_001_mesh_layer_4_vtx_0
                0x0000000007009488                goombabunny_YOSHIS_ISLAND_64_0BB7A749_3_1_all_ia8
                0x000000000700a488                goombabunny_YOSHIS_ISLAND_64_0BB7A749_3_1_all_ia8_aligner
                0x000000000700a490                goombabunny_YOSHIS_ISLAND_64_EDDC79F1_2_0_0D052120_ciByRGBA_ci4_pal_rgba16
                0x000000000700a4a8                goombabunny_YOSHIS_ISLAND_64_EDDC79F1_2_0_0D052120_ciByRGBA_ci4_pal_rgba16_aligner
                0x000000000700a4b0                goombabunny_YOSHIS_ISLAND_64_EDDC79F1_2_0_0D052120_ciByRGBA_ci4
                0x000000000700a5b0                goombabunny_YOSHIS_ISLAND_64_EDDC79F1_2_0_0D052120_ciByRGBA_ci4_aligner
                0x000000000700a5b8                goombabunny_YOSHIS_ISLAND_64_A06F03FB_2_1_ci_ci8_pal_rgba16
                0x000000000700a608                goombabunny_YOSHIS_ISLAND_64_A06F03FB_2_1_ci_ci8_pal_rgba16_aligner
                0x000000000700a610                goombabunny_YOSHIS_ISLAND_64_A06F03FB_2_1_ci_ci8
                0x000000000700ae10                goombabunny_YOSHIS_ISLAND_64_A06F03FB_2_1_ci_ci8_aligner
                0x000000000700ae18                goombabunny_YOSHIS_ISLAND_64_ABF26B3E_3_0_all_ia8
                0x000000000700be18                goombabunny_YOSHIS_ISLAND_64_ABF26B3E_3_0_all_ia8_aligner
                0x000000000700be20                goombabunny_sm64_material_007_lights
                0x000000000700be38                goombabunny_sm64_material_005_lights
                0x000000000700be50                goombabunny_sm64_material_lights
                0x000000000700be68                goombabunny_g002m00_png_f3d_lights
                0x000000000700be80                goombabunny_g002m004_png_f3d_lights
                0x000000000700be98                goombaking_collision
                0x000000000700bf00                goombaking_anims
                0x000000000700e430                goombaking_material_revert_render_settings
                0x000000000700e470                goombaking_000_offset_004_mesh_layer_1
                0x000000000700e498                goombaking_000_offset_003_mesh_layer_1
                0x000000000700e4c0                goombaking_000_offset_002_mesh_layer_4_mat_override_eyesclosed_0
                0x000000000700e510                goombaking_000_offset_002_mesh_layer_4
                0x000000000700e558                goombaking_000_displaylist_mesh_layer_1
                0x000000000700e578                mat_goombaking_sm64_material_011
                0x000000000700e5b0                mat_goombaking_sm64_material_012
                0x000000000700e5e8                mat_revert_goombaking_eyesclosed
                0x000000000700e600                mat_goombaking_eyesclosed
                0x000000000700e6b0                mat_revert_goombaking_mat_other_f3d
                0x000000000700e6c8                mat_goombaking_mat_other_f3d
                0x000000000700e778                mat_revert_goombaking_sm64_material_013
                0x000000000700e790                mat_goombaking_sm64_material_013
                0x000000000700e810                mat_goombaking_eyesopen
                0x000000000700e888                mat_revert_goombaking_sm64_material_010
                0x000000000700e8a0                mat_goombaking_sm64_material_010
                0x000000000700e950                goombaking_000_offset_004_mesh_layer_1_tri_1
                0x000000000700e9d8                goombaking_000_offset_004_mesh_layer_1_vtx_1
                0x000000000700eb18                goombaking_000_offset_004_mesh_layer_1_tri_0
                0x000000000700eb40                goombaking_000_offset_004_mesh_layer_1_vtx_0
                0x000000000700ebc0                goombaking_000_offset_003_mesh_layer_1_tri_1
                0x000000000700ebe8                goombaking_000_offset_003_mesh_layer_1_vtx_1
                0x000000000700ec68                goombaking_000_offset_003_mesh_layer_1_tri_0
                0x000000000700ecf0                goombaking_000_offset_003_mesh_layer_1_vtx_0
                0x000000000700ee30                goombaking_000_offset_002_mesh_layer_4_tri_2
                0x000000000700ef58                goombaking_000_offset_002_mesh_layer_4_vtx_2
                0x000000000700f3e8                goombaking_000_offset_002_mesh_layer_4_tri_1
                0x000000000700f408                goombaking_000_offset_002_mesh_layer_4_vtx_1
                0x000000000700f4c8                goombaking_000_offset_002_mesh_layer_4_tri_0
                0x000000000700f5e8                goombaking_000_offset_002_mesh_layer_4_vtx_0
                0x000000000700f978                goombaking_000_displaylist_mesh_layer_1_tri_0
                0x000000000700f9b8                goombaking_000_displaylist_mesh_layer_1_vtx_0
                0x000000000700fa48                goombaking__19173_asleep_ci8_pal_rgba16
                0x000000000700fbf0                goombaking__19173_asleep_ci8_pal_rgba16_aligner
                0x000000000700fbf8                goombaking__19173_asleep_ci8
                0x00000000070103f8                goombaking__19173_asleep_ci8_aligner
                0x0000000007010400                goombaking_mat_other_ci4_pal_rgba16
                0x0000000007010420                goombaking_mat_other_ci4_pal_rgba16_aligner
                0x0000000007010428                goombaking_mat_other_ci4
                0x0000000007010c28                goombaking_mat_other_ci4_aligner
                0x0000000007010c30                goombaking_beard_ia8
                0x0000000007011030                goombaking_beard_ia8_aligner
                0x0000000007011038                goombaking__19173_rgba16
                0x0000000007012038                goombaking__19173_rgba16_aligner
                0x0000000007012040                goombaking_tempImgEd051822_ci4_pal_rgba16
                0x0000000007012048                goombaking_tempImgEd051822_ci4_pal_rgba16_aligner
                0x0000000007012050                goombaking_tempImgEd051822_ci4
                0x0000000007012250                goombaking_tempImgEd051822_ci4_aligner
                0x0000000007012258                goombaking_sm64_material_011_lights
                0x0000000007012270                goombaking_sm64_material_012_lights
                0x0000000007012288                goombaking_eyesclosed_lights
                0x00000000070122a0                goombaking_mat_other_f3d_lights
                0x00000000070122b8                goombaking_sm64_material_013_lights
                0x00000000070122d0                goombaking_eyesopen_lights
                0x00000000070122e8                goombaking_sm64_material_010_lights
                0x0000000007012300                bob_dl_material_revert_render_settings
                0x0000000007012340                bob_dl_Plane_011_mesh
                0x0000000007012390                bob_dl_Plane_010_mesh
                0x0000000007012410                bob_dl_Cube_013_mesh
                0x0000000007012460                bob_dl_NurbsPath_004_mesh_layer_1
                0x00000000070124a0                bob_dl_NurbsPath_003_mesh_layer_1
                0x00000000070124e0                bob_dl_NurbsPath_002_mesh_layer_1
                0x0000000007012520                bob_dl_NurbsPath_001_mesh_layer_1
                0x0000000007012560                bob_dl_NurbsPath_mesh_layer_4
                0x0000000007012580                bob_dl_NurbsPath_mesh_layer_1
                0x00000000070125a0                bob_dl_NurbsPath_mesh_layer_0
                0x00000000070125f0                bob_dl_grindspots_002_mesh
                0x0000000007012610                bob_dl_grindspots_mesh
                0x0000000007012650                bob_dl_Cube_014_mesh
                0x0000000007012670                bob_dl_Cube_012_mesh
                0x00000000070126e0                bob_dl_Cube_011_mesh
                0x0000000007012720                bob_dl_Cube_007_mesh
                0x0000000007012758                bob_dl_Cube_006_mesh
                0x00000000070127c8                bob_dl_cavewalls_005_mesh
                0x0000000007012820                bob_dl_Cube_005_mesh
                0x0000000007012858                bob_dl_Cube_mesh
                0x0000000007012908                bob_dl_Cube_mesh_layer_1
                0x0000000007012928                bob_dl_Circle_027_mesh
                0x0000000007012948                bob_dl_Circle_026_mesh
                0x00000000070129a0                bob_dl_ZZZZZZZZZMain_mesh
                0x0000000007012a08                bob_dl_ZZZZZZMain_mesh
                0x0000000007012a48                bob_dl_ZZZCanyon_mesh
                0x0000000007012ab0                bob_dl_ornament_mesh
                0x0000000007012ad0                bob_dl_Circle_006_mesh
                0x0000000007012b28                bob_dl_carrotleaves_mesh
                0x0000000007012b48                bob_dl_carrot_001_mesh
                0x0000000007012b88                bob_dl_carrot_mesh
                0x0000000007012bf8                bob_dl_Astumps_001_mesh
                0x0000000007012c38                bob_dl_Astumps_001_mesh_layer_1
                0x0000000007012c78                bob_dl_Astumps_mesh
                0x0000000007012ce8                bob_dl_Astump2_mesh
                0x0000000007012d40                bob_dl_Astump_001_mesh
                0x0000000007012dc8                bob_dl_Astump_001_mesh_layer_1
                0x0000000007012e08                bob_dl_Astump_mesh
                0x0000000007012e60                bob_dl_AShroom_mesh
                0x0000000007012eb8                bob_dl_ANOZBUFFERBG_mesh_layer_4
                0x0000000007012f20                bob_dl_ANOZBUFFERBBG_002_mesh_layer_5
                0x0000000007012f40                bob_dl_AMushroom_mesh
                0x0000000007012fc8                bob_dl_ABridge_mesh
                0x0000000007013008                bob_dl_AAlpha_mesh
                0x0000000007013028                bob_dl_AAAANOZBUFFERAG_001_mesh_layer_0
                0x0000000007013048                mat_revert_bob_dl_sm64_material_043
                0x0000000007013070                mat_bob_dl_sm64_material_043
                0x0000000007013130                mat_revert_bob_dl_sm64_material_041
                0x0000000007013158                mat_bob_dl_sm64_material_041
                0x0000000007013218                mat_revert_bob_dl_sm64_material_042
                0x0000000007013238                mat_bob_dl_sm64_material_042
                0x00000000070132f0                mat_revert_bob_dl_sm64_material_040
                0x0000000007013310                mat_bob_dl_sm64_material_040
                0x00000000070133c8                mat_revert_bob_dl_sm64_material_039
                0x00000000070133e8                mat_bob_dl_sm64_material_039
                0x00000000070134a0                mat_revert_bob_dl_sm64_material_038
                0x00000000070134c0                mat_bob_dl_sm64_material_038
                0x0000000007013578                mat_revert_bob_dl_sm64_material_037
                0x0000000007013598                mat_bob_dl_sm64_material_037
                0x0000000007013650                mat_revert_bob_dl_sm64_material_048
                0x0000000007013678                mat_bob_dl_sm64_material_048
                0x0000000007013720                mat_revert_bob_dl_sm64_material_047
                0x0000000007013748                mat_bob_dl_sm64_material_047
                0x00000000070137f0                mat_revert_bob_dl_sm64_material_044
                0x0000000007013818                mat_bob_dl_sm64_material_044
                0x00000000070138c0                mat_revert_bob_dl_f3d_material_011
                0x00000000070138e0                mat_bob_dl_f3d_material_011
                0x0000000007013998                mat_revert_bob_dl_f3d_material_009
                0x00000000070139b0                mat_bob_dl_f3d_material_009
                0x0000000007013a18                mat_revert_bob_dl_f3d_material_012_layer0
                0x0000000007013a38                mat_bob_dl_f3d_material_012_layer0
                0x0000000007013a80                mat_revert_bob_dl_f3d_material_014_layer0
                0x0000000007013aa0                mat_bob_dl_f3d_material_014_layer0
                0x0000000007013ae8                mat_revert_bob_dl_f3d_material_010
                0x0000000007013b00                mat_bob_dl_f3d_material_010
                0x0000000007013b80                mat_revert_bob_dl_f3d_material_015_layer0
                0x0000000007013ba0                mat_bob_dl_f3d_material_015_layer0
                0x0000000007013c28                mat_revert_bob_dl_sm64_material_053
                0x0000000007013c40                mat_bob_dl_sm64_material_053
                0x0000000007013cc0                mat_revert_bob_dl_sm64_material_036
                0x0000000007013ce0                mat_bob_dl_sm64_material_036
                0x0000000007013d98                mat_revert_bob_dl_sm64_material_034
                0x0000000007013db8                mat_bob_dl_sm64_material_034
                0x0000000007013e70                mat_revert_bob_dl_sm64_material_033
                0x0000000007013e88                mat_bob_dl_sm64_material_033
                0x0000000007013f08                mat_revert_bob_dl_sm64_material_001
                0x0000000007013f20                mat_bob_dl_sm64_material_001
                0x0000000007013fa0                mat_revert_bob_dl_sm64_material_051
                0x0000000007013fc0                mat_bob_dl_sm64_material_051
                0x0000000007014078                mat_revert_bob_dl_buttonanimationbob
                0x0000000007014090                mat_bob_dl_buttonanimationbob
                0x0000000007014110                mat_revert_bob_dl_sm64_material_056
                0x0000000007014128                mat_bob_dl_sm64_material_056
                0x0000000007014190                mat_revert_bob_dl_sm64_material_026
                0x00000000070141a8                mat_bob_dl_sm64_material_026
                0x00000000070141e8                mat_revert_bob_dl_sm64_material_002_v3_002_layer1
                0x0000000007014210                mat_bob_dl_sm64_material_002_v3_002_layer1
                0x00000000070142e0                mat_revert_bob_dl_sm64_material_029
                0x0000000007014300                mat_bob_dl_sm64_material_029
                0x00000000070143b8                mat_revert_bob_dl_sm64_material_028
                0x00000000070143d8                mat_bob_dl_sm64_material_028
                0x0000000007014490                mat_revert_bob_dl_sm64_material_032
                0x00000000070144b0                mat_bob_dl_sm64_material_032
                0x0000000007014568                mat_revert_bob_dl_sm64_material_031
                0x0000000007014588                mat_bob_dl_sm64_material_031
                0x0000000007014640                mat_revert_bob_dl_sm64_material_027
                0x0000000007014660                mat_bob_dl_sm64_material_027
                0x0000000007014718                mat_revert_bob_dl_sm64_material_024
                0x0000000007014738                mat_bob_dl_sm64_material_024
                0x00000000070147f0                mat_revert_bob_dl_multitexwithZ_layer1
                0x0000000007014818                mat_bob_dl_multitexwithZ_layer1
                0x00000000070148e8                mat_revert_bob_dl_sm64_material_055
                0x0000000007014908                mat_bob_dl_sm64_material_055
                0x00000000070149c0                mat_revert_bob_dl_sm64_material_018
                0x00000000070149e0                mat_bob_dl_sm64_material_018
                0x0000000007014a98                mat_revert_bob_dl_sm64_material_045_layer1_area1
                0x0000000007014ac0                mat_bob_dl_sm64_material_045_layer1_area1
                0x0000000007014ba0                mat_revert_bob_dl_sm64_material_016
                0x0000000007014bb8                mat_bob_dl_sm64_material_016
                0x0000000007014c38                mat_revert_bob_dl_sm64_material_019
                0x0000000007014c50                mat_bob_dl_sm64_material_019
                0x0000000007014cd0                mat_revert_bob_dl_sm64_material_011
                0x0000000007014ce8                mat_bob_dl_sm64_material_011
                0x0000000007014d68                mat_revert_bob_dl_sm64_material_010
                0x0000000007014d80                mat_bob_dl_sm64_material_010
                0x0000000007014e00                mat_revert_bob_dl_sm64_material_054
                0x0000000007014e18                mat_bob_dl_sm64_material_054
                0x0000000007014e98                mat_revert_bob_dl_sm64_material_012
                0x0000000007014eb8                mat_bob_dl_sm64_material_012
                0x0000000007014f70                mat_revert_bob_dl_sm64_material_003
                0x0000000007014f90                mat_bob_dl_sm64_material_003
                0x0000000007015048                mat_revert_bob_dl_sm64_material_009
                0x0000000007015060                mat_bob_dl_sm64_material_009
                0x00000000070150e0                mat_revert_bob_dl_sm64_material_005
                0x0000000007015100                mat_bob_dl_sm64_material_005
                0x00000000070151b8                mat_revert_bob_dl_sm64_material_020
                0x00000000070151d0                mat_bob_dl_sm64_material_020
                0x0000000007015250                mat_revert_bob_dl_sm64_material_021
                0x0000000007015268                mat_bob_dl_sm64_material_021
                0x00000000070152e8                mat_revert_bob_dl_LOGS
                0x0000000007015308                mat_bob_dl_LOGS
                0x00000000070153c0                mat_revert_bob_dl_f3d_material_004
                0x00000000070153d8                mat_bob_dl_f3d_material_004
                0x0000000007015458                mat_revert_bob_dl_f3d_material_005
                0x0000000007015470                mat_bob_dl_f3d_material_005
                0x00000000070154f0                mat_revert_bob_dl_f3d_material_006
                0x0000000007015508                mat_bob_dl_f3d_material_006
                0x0000000007015588                mat_revert_bob_dl_sm64_material_014_v4_001
                0x00000000070155a0                mat_bob_dl_sm64_material_014_v4_001
                0x0000000007015620                mat_revert_bob_dl_f3d_material_007
                0x0000000007015638                mat_bob_dl_f3d_material_007
                0x00000000070156b8                mat_revert_bob_dl_sm64_material_002
                0x00000000070156d0                mat_bob_dl_sm64_material_002
                0x0000000007015750                mat_revert_bob_dl_sm64_material_004
                0x0000000007015770                mat_bob_dl_sm64_material_004
                0x0000000007015828                mat_revert_bob_dl_sm64_material_007
                0x0000000007015840                mat_bob_dl_sm64_material_007
                0x00000000070158c0                mat_revert_bob_dl_sm64_material_008
                0x00000000070158e0                mat_bob_dl_sm64_material_008
                0x0000000007015998                mat_revert_bob_dl_sm64_material_017
                0x00000000070159b8                mat_bob_dl_sm64_material_017
                0x0000000007015a70                mat_revert_bob_dl_sm64_material_006
                0x0000000007015a90                mat_bob_dl_sm64_material_006
                0x0000000007015b48                mat_revert_bob_dl_f3d_material_003_layer0
                0x0000000007015b68                mat_bob_dl_f3d_material_003_layer0
                0x0000000007015bb0                bob_dl_Plane_011_mesh_tri_2
                0x0000000007015c98                bob_dl_Plane_011_mesh_vtx_2
                0x0000000007016398                bob_dl_Plane_011_mesh_tri_1
                0x0000000007016458                bob_dl_Plane_011_mesh_vtx_1
                0x0000000007016958                bob_dl_Plane_011_mesh_tri_0
                0x00000000070169c0                bob_dl_Plane_011_mesh_vtx_0
                0x0000000007016c40                bob_dl_Plane_010_mesh_tri_4
                0x0000000007016cd8                bob_dl_Plane_010_mesh_vtx_4
                0x00000000070170d8                bob_dl_Plane_010_mesh_tri_3
                0x0000000007017128                bob_dl_Plane_010_mesh_vtx_3
                0x00000000070172a8                bob_dl_Plane_010_mesh_tri_2
                0x00000000070174c0                bob_dl_Plane_010_mesh_vtx_2
                0x0000000007018300                bob_dl_Plane_010_mesh_tri_1
                0x0000000007018390                bob_dl_Plane_010_mesh_vtx_1
                0x0000000007018650                bob_dl_Plane_010_mesh_tri_0
                0x0000000007018720                bob_dl_Plane_010_mesh_vtx_0
                0x0000000007018ca0                bob_dl_Cube_013_mesh_tri_2
                0x0000000007018cd8                bob_dl_Cube_013_mesh_vtx_2
                0x0000000007018e18                bob_dl_Cube_013_mesh_tri_1
                0x0000000007018e50                bob_dl_Cube_013_mesh_vtx_1
                0x0000000007018f90                bob_dl_Cube_013_mesh_tri_0
                0x00000000070190b0                bob_dl_Cube_013_mesh_vtx_0
                0x0000000007019870                bob_dl_NurbsPath_004_mesh_layer_1_tri_0
                0x0000000007019c10                bob_dl_NurbsPath_004_mesh_layer_1_vtx_0
                0x000000000701adc0                bob_dl_NurbsPath_004_mesh_layer_1_vtx_cull
                0x000000000701ae40                bob_dl_NurbsPath_003_mesh_layer_1_tri_0
                0x000000000701b1e8                bob_dl_NurbsPath_003_mesh_layer_1_vtx_0
                0x000000000701c348                bob_dl_NurbsPath_003_mesh_layer_1_vtx_cull
                0x000000000701c3c8                bob_dl_NurbsPath_002_mesh_layer_1_tri_0
                0x000000000701c830                bob_dl_NurbsPath_002_mesh_layer_1_vtx_0
                0x000000000701dde0                bob_dl_NurbsPath_002_mesh_layer_1_vtx_cull
                0x000000000701de60                bob_dl_NurbsPath_001_mesh_layer_1_tri_0
                0x000000000701e4b8                bob_dl_NurbsPath_001_mesh_layer_1_vtx_0
                0x0000000007020298                bob_dl_NurbsPath_001_mesh_layer_1_vtx_cull
                0x0000000007020318                bob_dl_NurbsPath_mesh_layer_4_tri_0
                0x0000000007020368                bob_dl_NurbsPath_mesh_layer_4_vtx_0
                0x0000000007020488                bob_dl_NurbsPath_mesh_layer_1_tri_0
                0x00000000070204d8                bob_dl_NurbsPath_mesh_layer_1_vtx_0
                0x00000000070205f8                bob_dl_NurbsPath_mesh_layer_0_tri_2
                0x0000000007020980                bob_dl_NurbsPath_mesh_layer_0_vtx_2
                0x0000000007021180                bob_dl_NurbsPath_mesh_layer_0_tri_1
                0x00000000070211a8                bob_dl_NurbsPath_mesh_layer_0_vtx_1
                0x0000000007021228                bob_dl_NurbsPath_mesh_layer_0_tri_0
                0x0000000007021290                bob_dl_NurbsPath_mesh_layer_0_vtx_0
                0x0000000007021410                bob_dl_grindspots_002_mesh_tri_0
                0x00000000070214a8                bob_dl_grindspots_002_mesh_vtx_0
                0x0000000007021648                bob_dl_grindspots_mesh_tri_0
                0x0000000007021720                bob_dl_grindspots_mesh_vtx_0
                0x00000000070219e0                bob_dl_grindspots_mesh_vtx_cull
                0x0000000007021a60                bob_dl_Cube_014_mesh_tri_0
                0x0000000007021a78                bob_dl_Cube_014_mesh_vtx_0
                0x0000000007021ab8                bob_dl_Cube_012_mesh_tri_2
                0x0000000007021ae0                bob_dl_Cube_012_mesh_vtx_2
                0x0000000007021b80                bob_dl_Cube_012_mesh_tri_1
                0x0000000007021ba8                bob_dl_Cube_012_mesh_vtx_1
                0x0000000007021c48                bob_dl_Cube_012_mesh_tri_0
                0x0000000007021c98                bob_dl_Cube_012_mesh_vtx_0
                0x0000000007021db8                bob_dl_Cube_012_mesh_vtx_cull
                0x0000000007021e38                bob_dl_Cube_011_mesh_tri_0
                0x0000000007021f58                bob_dl_Cube_011_mesh_vtx_0
                0x0000000007022328                bob_dl_Cube_011_mesh_vtx_cull
                0x00000000070223a8                bob_dl_Cube_007_mesh_tri_1
                0x0000000007022aa0                bob_dl_Cube_007_mesh_vtx_1
                0x0000000007024920                bob_dl_Cube_007_mesh_tri_0
                0x00000000070250a0                bob_dl_Cube_007_mesh_vtx_0
                0x0000000007027180                bob_dl_Cube_006_mesh_tri_2
                0x00000000070271a8                bob_dl_Cube_006_mesh_vtx_2
                0x0000000007027248                bob_dl_Cube_006_mesh_tri_1
                0x0000000007027270                bob_dl_Cube_006_mesh_vtx_1
                0x0000000007027310                bob_dl_Cube_006_mesh_tri_0
                0x0000000007027360                bob_dl_Cube_006_mesh_vtx_0
                0x00000000070274a0                bob_dl_Cube_006_mesh_vtx_cull
                0x0000000007027520                bob_dl_cavewalls_005_mesh_tri_1
                0x0000000007027548                bob_dl_cavewalls_005_mesh_vtx_1
                0x00000000070275a8                bob_dl_cavewalls_005_mesh_tri_0
                0x00000000070275e8                bob_dl_cavewalls_005_mesh_vtx_0
                0x0000000007027668                bob_dl_cavewalls_005_mesh_vtx_cull
                0x00000000070276e8                bob_dl_Cube_005_mesh_tri_1
                0x0000000007027700                bob_dl_Cube_005_mesh_vtx_1
                0x0000000007027740                bob_dl_Cube_005_mesh_tri_0
                0x0000000007027778                bob_dl_Cube_005_mesh_vtx_0
                0x0000000007027878                bob_dl_Cube_mesh_tri_6
                0x00000000070279b8                bob_dl_Cube_mesh_vtx_6
                0x0000000007027d18                bob_dl_Cube_mesh_tri_5
                0x0000000007027d58                bob_dl_Cube_mesh_vtx_5
                0x0000000007027e28                bob_dl_Cube_mesh_tri_4
                0x0000000007027e70                bob_dl_Cube_mesh_vtx_4
                0x0000000007027f70                bob_dl_Cube_mesh_tri_3
                0x0000000007027fb0                bob_dl_Cube_mesh_vtx_3
                0x00000000070280a0                bob_dl_Cube_mesh_tri_2
                0x0000000007028150                bob_dl_Cube_mesh_vtx_2
                0x0000000007028440                bob_dl_Cube_mesh_tri_1
                0x00000000070284a0                bob_dl_Cube_mesh_vtx_1
                0x0000000007028630                bob_dl_Cube_mesh_tri_0
                0x0000000007028788                bob_dl_Cube_mesh_vtx_0
                0x0000000007028d88                bob_dl_Cube_mesh_layer_1_tri_0
                0x0000000007028f60                bob_dl_Cube_mesh_layer_1_vtx_0
                0x0000000007029670                bob_dl_Circle_027_mesh_tri_0
                0x0000000007029688                bob_dl_Circle_027_mesh_vtx_0
                0x00000000070296e8                bob_dl_Circle_026_mesh_tri_1
                0x0000000007029738                bob_dl_Circle_026_mesh_vtx_1
                0x0000000007029858                bob_dl_Circle_026_mesh_tri_0
                0x00000000070298a8                bob_dl_Circle_026_mesh_vtx_0
                0x0000000007029968                bob_dl_Circle_026_mesh_vtx_cull
                0x00000000070299e8                bob_dl_ZZZZZZZZZMain_mesh_tri_3
                0x0000000007029a18                bob_dl_ZZZZZZZZZMain_mesh_vtx_3
                0x0000000007029ab8                bob_dl_ZZZZZZZZZMain_mesh_tri_2
                0x0000000007029b30                bob_dl_ZZZZZZZZZMain_mesh_vtx_2
                0x0000000007029c90                bob_dl_ZZZZZZZZZMain_mesh_tri_1
                0x0000000007029ce0                bob_dl_ZZZZZZZZZMain_mesh_vtx_1
                0x0000000007029e10                bob_dl_ZZZZZZZZZMain_mesh_tri_0
                0x000000000702a060                bob_dl_ZZZZZZZZZMain_mesh_vtx_0
                0x000000000702a8b0                bob_dl_ZZZZZZMain_mesh_tri_0
                0x000000000702a970                bob_dl_ZZZZZZMain_mesh_vtx_0
                0x000000000702aca0                bob_dl_ZZZZZZMain_mesh_vtx_cull
                0x000000000702ad20                bob_dl_ZZZCanyon_mesh_tri_3
                0x000000000702add8                bob_dl_ZZZCanyon_mesh_vtx_3
                0x000000000702b0b8                bob_dl_ZZZCanyon_mesh_tri_2
                0x000000000702b118                bob_dl_ZZZCanyon_mesh_vtx_2
                0x000000000702b2b8                bob_dl_ZZZCanyon_mesh_tri_1
                0x000000000702b320                bob_dl_ZZZCanyon_mesh_vtx_1
                0x000000000702b540                bob_dl_ZZZCanyon_mesh_tri_0
                0x000000000702b610                bob_dl_ZZZCanyon_mesh_vtx_0
                0x000000000702b9f0                bob_dl_ornament_mesh_tri_0
                0x000000000702ba08                bob_dl_ornament_mesh_vtx_0
                0x000000000702ba38                bob_dl_Circle_006_mesh_tri_1
                0x000000000702ba88                bob_dl_Circle_006_mesh_vtx_1
                0x000000000702bba8                bob_dl_Circle_006_mesh_tri_0
                0x000000000702bbf8                bob_dl_Circle_006_mesh_vtx_0
                0x000000000702bcf8                bob_dl_Circle_006_mesh_vtx_cull
                0x000000000702bd78                bob_dl_carrotleaves_mesh_tri_0
                0x000000000702bda8                bob_dl_carrotleaves_mesh_vtx_0
                0x000000000702bea8                bob_dl_carrot_001_mesh_tri_0
                0x000000000702bec0                bob_dl_carrot_001_mesh_vtx_0
                0x000000000702bef0                bob_dl_carrot_001_mesh_vtx_cull
                0x000000000702bf70                bob_dl_carrot_mesh_tri_2
                0x000000000702bf88                bob_dl_carrot_mesh_vtx_2
                0x000000000702bfc8                bob_dl_carrot_mesh_tri_1
                0x000000000702bff8                bob_dl_carrot_mesh_vtx_1
                0x000000000702c0d8                bob_dl_carrot_mesh_tri_0
                0x000000000702c1c8                bob_dl_carrot_mesh_vtx_0
                0x000000000702c538                bob_dl_carrot_mesh_vtx_cull
                0x000000000702c5b8                bob_dl_Astumps_001_mesh_tri_0
                0x000000000702c5f8                bob_dl_Astumps_001_mesh_vtx_0
                0x000000000702c778                bob_dl_Astumps_001_mesh_vtx_cull
                0x000000000702c7f8                bob_dl_Astumps_001_mesh_layer_1_tri_0
                0x000000000702c868                bob_dl_Astumps_001_mesh_layer_1_vtx_0
                0x000000000702ca68                bob_dl_Astumps_001_mesh_layer_1_vtx_cull
                0x000000000702cae8                bob_dl_Astumps_mesh_tri_2
                0x000000000702cb30                bob_dl_Astumps_mesh_vtx_2
                0x000000000702cc30                bob_dl_Astumps_mesh_tri_1
                0x000000000702ccd8                bob_dl_Astumps_mesh_vtx_1
                0x000000000702d078                bob_dl_Astumps_mesh_tri_0
                0x000000000702d0b0                bob_dl_Astumps_mesh_vtx_0
                0x000000000702d170                bob_dl_Astumps_mesh_vtx_cull
                0x000000000702d1f0                bob_dl_Astump2_mesh_tri_1
                0x000000000702d250                bob_dl_Astump2_mesh_vtx_1
                0x000000000702d450                bob_dl_Astump2_mesh_tri_0
                0x000000000702d478                bob_dl_Astump2_mesh_vtx_0
                0x000000000702d4d8                bob_dl_Astump2_mesh_vtx_cull
                0x000000000702d558                bob_dl_Astump_001_mesh_tri_3
                0x000000000702d658                bob_dl_Astump_001_mesh_vtx_3
                0x000000000702dab8                bob_dl_Astump_001_mesh_tri_2
                0x000000000702db30                bob_dl_Astump_001_mesh_vtx_2
                0x000000000702ddb0                bob_dl_Astump_001_mesh_tri_1
                0x000000000702de20                bob_dl_Astump_001_mesh_vtx_1
                0x000000000702e000                bob_dl_Astump_001_mesh_tri_0
                0x000000000702e060                bob_dl_Astump_001_mesh_vtx_0
                0x000000000702e2a0                bob_dl_Astump_001_mesh_vtx_cull
                0x000000000702e320                bob_dl_Astump_001_mesh_layer_1_tri_0
                0x000000000702e378                bob_dl_Astump_001_mesh_layer_1_vtx_0
                0x000000000702e4f8                bob_dl_Astump_001_mesh_layer_1_vtx_cull
                0x000000000702e578                bob_dl_Astump_mesh_tri_1
                0x000000000702e5a0                bob_dl_Astump_mesh_vtx_1
                0x000000000702e600                bob_dl_Astump_mesh_tri_0
                0x000000000702e660                bob_dl_Astump_mesh_vtx_0
                0x000000000702e860                bob_dl_Astump_mesh_vtx_cull
                0x000000000702e8e0                bob_dl_AShroom_mesh_tri_1
                0x000000000702e930                bob_dl_AShroom_mesh_vtx_1
                0x000000000702ea50                bob_dl_AShroom_mesh_tri_0
                0x000000000702eaa0                bob_dl_AShroom_mesh_vtx_0
                0x000000000702eb60                bob_dl_AShroom_mesh_vtx_cull
                0x000000000702ebe0                bob_dl_ANOZBUFFERBG_mesh_layer_4_tri_3
                0x000000000702ecc0                bob_dl_ANOZBUFFERBG_mesh_layer_4_vtx_3
                0x000000000702f1a0                bob_dl_ANOZBUFFERBG_mesh_layer_4_tri_2
                0x000000000702f280                bob_dl_ANOZBUFFERBG_mesh_layer_4_vtx_2
                0x000000000702f760                bob_dl_ANOZBUFFERBG_mesh_layer_4_tri_1
                0x000000000702f840                bob_dl_ANOZBUFFERBG_mesh_layer_4_vtx_1
                0x000000000702fd20                bob_dl_ANOZBUFFERBG_mesh_layer_4_tri_0
                0x000000000702fe00                bob_dl_ANOZBUFFERBG_mesh_layer_4_vtx_0
                0x00000000070302e0                bob_dl_ANOZBUFFERBBG_002_mesh_layer_5_tri_0
                0x0000000007030300                bob_dl_ANOZBUFFERBBG_002_mesh_layer_5_vtx_0
                0x0000000007030350                bob_dl_AMushroom_mesh_tri_3
                0x0000000007030368                bob_dl_AMushroom_mesh_vtx_3
                0x00000000070303a8                bob_dl_AMushroom_mesh_tri_2
                0x00000000070303d8                bob_dl_AMushroom_mesh_vtx_2
                0x0000000007030478                bob_dl_AMushroom_mesh_tri_1
                0x00000000070304c8                bob_dl_AMushroom_mesh_vtx_1
                0x00000000070305e8                bob_dl_AMushroom_mesh_tri_0
                0x0000000007030638                bob_dl_AMushroom_mesh_vtx_0
                0x0000000007030708                bob_dl_AMushroom_mesh_vtx_cull
                0x0000000007030788                bob_dl_ABridge_mesh_tri_0
                0x0000000007030820                bob_dl_ABridge_mesh_vtx_0
                0x0000000007030aa0                bob_dl_ABridge_mesh_vtx_cull
                0x0000000007030b20                bob_dl_AAlpha_mesh_tri_0
                0x0000000007030c28                bob_dl_AAlpha_mesh_vtx_0
                0x00000000070310a8                bob_dl_AAAANOZBUFFERAG_001_mesh_layer_0_tri_0
                0x0000000007031140                bob_dl_AAAANOZBUFFERAG_001_mesh_layer_0_vtx_0
                0x0000000007031380                bob_dl_mountaingras2_ci4_pal_rgba16
                0x0000000007031388                bob_dl_mountaingras2_ci4_pal_rgba16_aligner
                0x0000000007031390                bob_dl_mountaingras2_ci4
                0x0000000007031410                bob_dl_mountaingras2_ci4_aligner
                0x0000000007031418                bob_dl_fence_ci4_pal_rgba16
                0x0000000007031420                bob_dl_fence_ci4_pal_rgba16_aligner
                0x0000000007031428                bob_dl_fence_ci4
                0x00000000070314a8                bob_dl_fence_ci4_aligner
                0x00000000070314b0                bob_dl_mountain_ci4_pal_rgba16
                0x00000000070314b8                bob_dl_mountain_ci4_pal_rgba16_aligner
                0x00000000070314c0                bob_dl_mountain_ci4
                0x0000000007031540                bob_dl_mountain_ci4_aligner
                0x0000000007031548                bob_dl_cloud1_ci4_pal_rgba16
                0x0000000007031550                bob_dl_cloud1_ci4_pal_rgba16_aligner
                0x0000000007031558                bob_dl_cloud1_ci4
                0x0000000007031958                bob_dl_cloud1_ci4_aligner
                0x0000000007031960                bob_dl_bkocj5_ci4_pal_rgba16
                0x0000000007031968                bob_dl_bkocj5_ci4_pal_rgba16_aligner
                0x0000000007031970                bob_dl_bkocj5_ci4
                0x00000000070319f0                bob_dl_bkocj5_ci4_aligner
                0x00000000070319f8                bob_dl_bush2_ci8_pal_rgba16
                0x0000000007031a88                bob_dl_bush2_ci8_pal_rgba16_aligner
                0x0000000007031a90                bob_dl_bush2_ci8
                0x0000000007032290                bob_dl_bush2_ci8_aligner
                0x0000000007032298                bob_dl_block_ci4_pal_rgba16
                0x00000000070322a0                bob_dl_block_ci4_pal_rgba16_aligner
                0x00000000070322a8                bob_dl_block_ci4
                0x0000000007032328                bob_dl_block_ci4_aligner
                0x0000000007032330                bob_dl_pipegreens_ci4_pal_rgba16
                0x0000000007032338                bob_dl_pipegreens_ci4_pal_rgba16_aligner
                0x0000000007032340                bob_dl_pipegreens_ci4
                0x0000000007032540                bob_dl_pipegreens_ci4_aligner
                0x0000000007032548                bob_dl_greenpipe2_ci4_pal_rgba16
                0x0000000007032550                bob_dl_greenpipe2_ci4_pal_rgba16_aligner
                0x0000000007032558                bob_dl_greenpipe2_ci4
                0x0000000007032658                bob_dl_greenpipe2_ci4_aligner
                0x0000000007032660                bob_dl_cloud12424_ci4_pal_rgba16
                0x0000000007032668                bob_dl_cloud12424_ci4_pal_rgba16_aligner
                0x0000000007032670                bob_dl_cloud12424_ci4
                0x0000000007032870                bob_dl_cloud12424_ci4_aligner
                0x0000000007032878                bob_dl_tex1_64x64_609fbb13cf5f67b7_14_ci4_pal_rgba16
                0x0000000007032890                bob_dl_tex1_64x64_609fbb13cf5f67b7_14_ci4_pal_rgba16_aligner
                0x0000000007032898                bob_dl_tex1_64x64_609fbb13cf5f67b7_14_ci4
                0x0000000007033098                bob_dl_tex1_64x64_609fbb13cf5f67b7_14_ci4_aligner
                0x00000000070330a0                bob_dl_ng_mount_back_rgba16
                0x000000000703a4e8                bob_dl_ng_mount_back_rgba16_aligner
                0x000000000703a4f0                bob_dl_d64_iwakabe2_rgba16
                0x000000000703b4f0                bob_dl_d64_iwakabe2_rgba16_aligner
                0x000000000703b4f8                bob_dl_clouds_ia8
                0x000000000703c4f8                bob_dl_clouds_ia8_aligner
                0x000000000703c500                bob_dl_yoshigraffiti_ia8
                0x000000000703d500                bob_dl_yoshigraffiti_ia8_aligner
                0x000000000703d508                bob_dl__31_ci8_pal_rgba16
                0x000000000703d540                bob_dl__31_ci8_pal_rgba16_aligner
                0x000000000703d548                bob_dl__31_ci8
                0x000000000703dd48                bob_dl__31_ci8_aligner
                0x000000000703dd50                bob_dl_BigTreeCourse_ci4_pal_rgba16
                0x000000000703dd70                bob_dl_BigTreeCourse_ci4_pal_rgba16_aligner
                0x000000000703dd78                bob_dl_BigTreeCourse_ci4
                0x000000000703e578                bob_dl_BigTreeCourse_ci4_aligner
                0x000000000703e580                bob_dl_rrow_asset_911_i4
                0x000000000703f580                bob_dl_rrow_asset_911_i4_aligner
                0x000000000703f588                bob_dl_tex1_64x64_3ecb72f26797c6dc_14_i8
                0x0000000007040588                bob_dl_tex1_64x64_3ecb72f26797c6dc_14_i8_aligner
                0x0000000007040590                bob_dl_dg_dod_hasi_02_30380CI4_ci4_pal_rgba16
                0x00000000070405b0                bob_dl_dg_dod_hasi_02_30380CI4_ci4_pal_rgba16_aligner
                0x00000000070405b8                bob_dl_dg_dod_hasi_02_30380CI4_ci4
                0x0000000007040db8                bob_dl_dg_dod_hasi_02_30380CI4_ci4_aligner
                0x0000000007040dc0                bob_dl_button1bob_rgba16
                0x0000000007041dc0                bob_dl_button1bob_rgba16_aligner
                0x0000000007041dc8                bob_dl_bunny_ia8
                0x0000000007042dc8                bob_dl_bunny_ia8_aligner
                0x0000000007042dd0                bob_dl_GrassTestie3_i8
                0x00000000070431d0                bob_dl_GrassTestie3_i8_aligner
                0x00000000070431d8                bob_dl_Bctrwi3_combinedI8_i8
                0x00000000070435d8                bob_dl_Bctrwi3_combinedI8_i8_aligner
                0x00000000070435e0                bob_dl_Dandielions_Final_Texture_ci4_pal_rgba16
                0x0000000007043600                bob_dl_Dandielions_Final_Texture_ci4_pal_rgba16_aligner
                0x0000000007043608                bob_dl_Dandielions_Final_Texture_ci4
                0x0000000007043e08                bob_dl_Dandielions_Final_Texture_ci4_aligner
                0x0000000007043e10                bob_dl_PNIDSNE_ci4_pal_rgba16
                0x0000000007043e30                bob_dl_PNIDSNE_ci4_pal_rgba16_aligner
                0x0000000007043e38                bob_dl_PNIDSNE_ci4
                0x0000000007044638                bob_dl_PNIDSNE_ci4_aligner
                0x0000000007044640                bob_dl_CarrotTextureHD_ci4_pal_rgba16
                0x0000000007044660                bob_dl_CarrotTextureHD_ci4_pal_rgba16_aligner
                0x0000000007044668                bob_dl_CarrotTextureHD_ci4
                0x0000000007044e68                bob_dl_CarrotTextureHD_ci4_aligner
                0x0000000007044e70                bob_dl_soillayer00_albDARKER_ci8_pal_rgba16
                0x0000000007044f28                bob_dl_soillayer00_albDARKER_ci8_pal_rgba16_aligner
                0x0000000007044f30                bob_dl_soillayer00_albDARKER_ci8
                0x0000000007045730                bob_dl_soillayer00_albDARKER_ci8_aligner
                0x0000000007045738                bob_dl_F210_GobHouse01_ci8_pal_rgba16
                0x0000000007045790                bob_dl_F210_GobHouse01_ci8_pal_rgba16_aligner
                0x0000000007045798                bob_dl_F210_GobHouse01_ci8
                0x0000000007045b98                bob_dl_F210_GobHouse01_ci8_aligner
                0x0000000007045ba0                bob_dl__6__2__ci4_pal_rgba16
                0x0000000007045bc0                bob_dl__6__2__ci4_pal_rgba16_aligner
                0x0000000007045bc8                bob_dl__6__2__ci4
                0x00000000070463c8                bob_dl__6__2__ci4_aligner
                0x00000000070463d0                bob_dl_addme2_rgba16
                0x0000000007046bd0                bob_dl_addme2_rgba16_aligner
                0x0000000007046bd8                bob_dl_GT2DPSoil01SMALL_rgba16
                0x00000000070473d8                bob_dl_GT2DPSoil01SMALL_rgba16_aligner
                0x00000000070473e0                bob_dl_bnbnuy_ci8_pal_rgba16
                0x0000000007047528                bob_dl_bnbnuy_ci8_pal_rgba16_aligner
                0x0000000007047530                bob_dl_bnbnuy_ci8
                0x0000000007047d30                bob_dl_bnbnuy_ci8_aligner
                0x0000000007047d38                bob_dl__2EB6628BD0351A22F3163295E64E9B63_ci4_pal_rgba16
                0x0000000007047d58                bob_dl__2EB6628BD0351A22F3163295E64E9B63_ci4_pal_rgba16_aligner
                0x0000000007047d60                bob_dl__2EB6628BD0351A22F3163295E64E9B63_ci4
                0x0000000007048560                bob_dl__2EB6628BD0351A22F3163295E64E9B63_ci4_aligner
                0x0000000007048568                bob_dl_NEWON0E223_i4
                0x0000000007048d68                bob_dl_NEWON0E223_i4_aligner
                0x0000000007048d70                bob_dl_mulittex1_i4
                0x0000000007049570                bob_dl_mulittex1_i4_aligner
                0x0000000007049578                bob_dl__12donebpyro2ycdi_rgba16
                0x000000000704a578                bob_dl__12donebpyro2ycdi_rgba16_aligner
                0x000000000704a580                bob_dl_stone_granite_rgba16
                0x000000000704ad80                bob_dl_stone_granite_rgba16_aligner
                0x000000000704ad88                bob_dl_flo_panji02tif_rgba16
                0x000000000704bd88                bob_dl_flo_panji02tif_rgba16_aligner
                0x000000000704bd90                bob_dl_leaf_half_rgba16
                0x000000000704cd90                bob_dl_leaf_half_rgba16_aligner
                0x000000000704cd98                bob_dl_houseidea_ia4
                0x000000000704dd98                bob_dl_houseidea_ia4_aligner
                0x000000000704dda0                bob_dl_frs_step_01_3C680_ci8_pal_rgba16
                0x000000000704de20                bob_dl_frs_step_01_3C680_ci8_pal_rgba16_aligner
                0x000000000704de28                bob_dl_frs_step_01_3C680_ci8
                0x000000000704e628                bob_dl_frs_step_01_3C680_ci8_aligner
                0x000000000704e630                bob_dl__7_ci8_pal_rgba16
                0x000000000704e788                bob_dl__7_ci8_pal_rgba16_aligner
                0x000000000704e790                bob_dl__7_ci8
                0x000000000704ef90                bob_dl__7_ci8_aligner
                0x000000000704ef98                bob_dl_CarrotTexture_Details_i8
                0x000000000704ff98                bob_dl_CarrotTexture_Details_i8_aligner
                0x000000000704ffa0                bob_dl_Block_07_ci8_pal_rgba16
                0x0000000007050080                bob_dl_Block_07_ci8_pal_rgba16_aligner
                0x0000000007050088                bob_dl_Block_07_ci8
                0x0000000007050488                bob_dl_Block_07_ci8_aligner
                0x0000000007050490                bob_dl_Texture0566_RGB_rgba16
                0x0000000007050c90                bob_dl_Texture0566_RGB_rgba16_aligner
                0x0000000007050c98                bob_dl_Texture0567_RGB_rgba16
                0x0000000007051498                bob_dl_Texture0567_RGB_rgba16_aligner
                0x00000000070514a0                bob_dl_BigTreeWoodA_ci4_pal_rgba16
                0x00000000070514b8                bob_dl_BigTreeWoodA_ci4_pal_rgba16_aligner
                0x00000000070514c0                bob_dl_BigTreeWoodA_ci4
                0x0000000007051cc0                bob_dl_BigTreeWoodA_ci4_aligner
                0x0000000007051cc8                bob_dl_flowers1_rgba16
                0x0000000007052cc8                bob_dl_flowers1_rgba16_aligner
                0x0000000007052cd0                bob_dl_flowers2_rgba16
                0x0000000007053cd0                bob_dl_flowers2_rgba16_aligner
                0x0000000007053cd8                bob_dl_flowers3_rgba16
                0x0000000007054cd8                bob_dl_flowers3_rgba16_aligner
                0x0000000007054ce0                bob_dl_flowers4_rgba16
                0x0000000007055ce0                bob_dl_flowers4_rgba16_aligner
                0x0000000007055ce8                bob_dl_thefuckingsun_i8
                0x0000000007056ce8                bob_dl_thefuckingsun_i8_aligner
                0x0000000007056cf0                bob_dl_KKIIDDZZ_DAT_826__p00_i8
                0x0000000007057cf0                bob_dl_KKIIDDZZ_DAT_826__p00_i8_aligner
                0x0000000007057cf8                bob_dl_YukkinaTreeBreak00_ci4_pal_rgba16
                0x0000000007057d18                bob_dl_YukkinaTreeBreak00_ci4_pal_rgba16_aligner
                0x0000000007057d20                bob_dl_YukkinaTreeBreak00_ci4
                0x0000000007058520                bob_dl_YukkinaTreeBreak00_ci4_aligner
                0x0000000007058528                bob_dl_woodI8_i8
                0x0000000007059528                bob_dl_woodI8_i8_aligner
                0x0000000007059530                bob_dl__11111texKinokoRed_ci4_pal_rgba16
                0x0000000007059550                bob_dl__11111texKinokoRed_ci4_pal_rgba16_aligner
                0x0000000007059558                bob_dl__11111texKinokoRed_ci4
                0x0000000007059d58                bob_dl__11111texKinokoRed_ci4_aligner
                0x0000000007059d60                bob_dl_wooden_bridge_by_xpm_ci4_pal_rgba16
                0x0000000007059d80                bob_dl_wooden_bridge_by_xpm_ci4_pal_rgba16_aligner
                0x0000000007059d88                bob_dl_wooden_bridge_by_xpm_ci4
                0x000000000705a588                bob_dl_wooden_bridge_by_xpm_ci4_aligner
                0x000000000705a590                bob_dl__1chain_ci4_pal_rgba16
                0x000000000705a5b0                bob_dl__1chain_ci4_pal_rgba16_aligner
                0x000000000705a5b8                bob_dl__1chain_ci4
                0x000000000705adb8                bob_dl__1chain_ci4_aligner
                0x000000000705adc0                bob_dl_sm64_material_043_lights
                0x000000000705add8                bob_dl_sm64_material_041_lights
                0x000000000705adf0                bob_dl_sm64_material_042_lights
                0x000000000705ae08                bob_dl_sm64_material_040_lights
                0x000000000705ae20                bob_dl_sm64_material_039_lights
                0x000000000705ae38                bob_dl_sm64_material_038_lights
                0x000000000705ae50                bob_dl_sm64_material_037_lights
                0x000000000705ae68                bob_dl_f3d_material_011_lights
                0x000000000705ae80                bob_dl_f3d_material_012_layer0_lights
                0x000000000705ae98                bob_dl_f3d_material_014_layer0_lights
                0x000000000705aeb0                bob_dl_f3d_material_010_lights
                0x000000000705aec8                bob_dl_f3d_material_015_layer0_lights
                0x000000000705aee0                bob_dl_sm64_material_053_lights
                0x000000000705aef8                bob_dl_sm64_material_036_lights
                0x000000000705af10                bob_dl_sm64_material_034_lights
                0x000000000705af28                bob_dl_sm64_material_033_lights
                0x000000000705af40                bob_dl_sm64_material_001_lights
                0x000000000705af58                bob_dl_sm64_material_051_lights
                0x000000000705af70                bob_dl_buttonanimationbob_lights
                0x000000000705af88                bob_dl_sm64_material_026_lights
                0x000000000705afa0                bob_dl_sm64_material_002_v3_002_layer1_lights
                0x000000000705afb8                bob_dl_sm64_material_029_lights
                0x000000000705afd0                bob_dl_sm64_material_028_lights
                0x000000000705afe8                bob_dl_sm64_material_032_lights
                0x000000000705b000                bob_dl_sm64_material_031_lights
                0x000000000705b018                bob_dl_sm64_material_027_lights
                0x000000000705b030                bob_dl_sm64_material_024_lights
                0x000000000705b048                bob_dl_multitexwithZ_layer1_lights
                0x000000000705b060                bob_dl_sm64_material_055_lights
                0x000000000705b078                bob_dl_sm64_material_018_lights
                0x000000000705b090                bob_dl_sm64_material_045_layer1_area1_lights
                0x000000000705b0a8                bob_dl_sm64_material_016_lights
                0x000000000705b0c0                bob_dl_sm64_material_019_lights
                0x000000000705b0d8                bob_dl_sm64_material_011_lights
                0x000000000705b0f0                bob_dl_sm64_material_010_lights
                0x000000000705b108                bob_dl_sm64_material_054_lights
                0x000000000705b120                bob_dl_sm64_material_012_lights
                0x000000000705b138                bob_dl_sm64_material_003_lights
                0x000000000705b150                bob_dl_sm64_material_009_lights
                0x000000000705b168                bob_dl_sm64_material_005_lights
                0x000000000705b180                bob_dl_sm64_material_020_lights
                0x000000000705b198                bob_dl_sm64_material_021_lights
                0x000000000705b1b0                bob_dl_LOGS_lights
                0x000000000705b1c8                bob_dl_f3d_material_004_lights
                0x000000000705b1e0                bob_dl_f3d_material_005_lights
                0x000000000705b1f8                bob_dl_f3d_material_006_lights
                0x000000000705b210                bob_dl_sm64_material_014_v4_001_lights
                0x000000000705b228                bob_dl_f3d_material_007_lights
                0x000000000705b240                bob_dl_sm64_material_002_lights
                0x000000000705b258                bob_dl_sm64_material_004_lights
                0x000000000705b270                bob_dl_sm64_material_007_lights
                0x000000000705b288                bob_dl_sm64_material_008_lights
                0x000000000705b2a0                bob_dl_sm64_material_017_lights
                0x000000000705b2b8                bob_dl_sm64_material_006_lights
                0x000000000705b2d0                bob_dl_f3d_material_003_layer0_lights
                0x000000000705b2e8                bob_area_4_macro_objs
                0x000000000705b2ec                bob_area_4_collision
                0x000000000705c164                bob_area_3_macro_objs
                0x000000000705c168                bob_area_3_collision
                0x000000000705e56c                bob_area_2_macro_objs
                0x000000000705e570                bob_area_2_collision
                0x000000000705f580                bob_area_1_spline_IntroCutscenePos_003
                0x000000000705f598                bob_area_1_spline_IntroCutscenePos_002
                0x000000000705f5b0                bob_area_1_spline_IntroCutscenePos_001
                0x000000000705f5c8                bob_area_1_spline_IntroCutscenePos
                0x000000000705f5e0                bob_area_1_spline_IntroCutsceneFoc_003
                0x000000000705f5f8                bob_area_1_spline_IntroCutsceneFoc_002
                0x000000000705f610                bob_area_1_spline_IntroCutsceneFoc_001
                0x000000000705f628                bob_area_1_spline_IntroCutsceneFoc
                0x000000000705f638                bob_area_1_macro_objs
                0x000000000705f63c                bob_area_1_collision
                0x0000000007062128                mipshappy
                0x0000000007063128                button2bob

.data1
 *(.data1)

.got.plt
 *(.got.plt)
                0x0000000007064128                . = .
                0x000000000706c120                _gp = (ALIGN (0x10) + 0x7ff0)

.got
 *(.got)

.sdata
 *(.sdata .sdata.* .gnu.linkonce.s.*)

.lit8
 *(.lit8)

.lit4
 *(.lit4)
                0x0000000007064128                _edata = .
                [!provide]                        PROVIDE (edata = .)
                0x0000000007064128                . = .
                0x0000000007064128                __bss_start = .
                0x0000000007064128                _fbss = .

.sbss
 *(.dynsbss)
 *(.sbss .sbss.* .gnu.linkonce.sb.*)
 *(.scommon)

.bss            0x0000000007064128        0x0
 *(.dynbss)
 *(.bss .bss.* .gnu.linkonce.b.*)
 .bss           0x0000000007064128        0x0 build/us/levels/bob/leveldata.o
 *(COMMON)
                0x0000000007064128                . = ALIGN ((. != 0x0)?0x4:0x1)
                0x0000000007064128                . = ALIGN (0x4)
                0x0000000007064128                . = SEGMENT_START ("ldata-segment", .)
                0x0000000007064128                . = ALIGN (0x4)
                0x0000000007064128                _end = .
                [!provide]                        PROVIDE (end = .)
                0x0000000007064128                . = DATA_SEGMENT_END (.)

.stab
 *(.stab)

.stabstr
 *(.stabstr)

.stab.excl
 *(.stab.excl)

.stab.exclstr
 *(.stab.exclstr)

.stab.index
 *(.stab.index)

.stab.indexstr
 *(.stab.indexstr)

.comment        0x0000000000000000       0x12
 *(.comment)
 .comment       0x0000000000000000       0x12 build/us/levels/bob/leveldata.o
                                         0x13 (size before relaxing)

.pdr            0x0000000000000000        0x0
 .pdr           0x0000000000000000        0x0 build/us/levels/bob/leveldata.o

.gnu.build.attributes
 *(.gnu.build.attributes .gnu.build.attributes.*)

.debug
 *(.debug)

.line
 *(.line)

.debug_srcinfo
 *(.debug_srcinfo)

.debug_sfnames
 *(.debug_sfnames)

.debug_aranges
 *(.debug_aranges)

.debug_pubnames
 *(.debug_pubnames)

.debug_info
 *(.debug_info .gnu.linkonce.wi.*)

.debug_abbrev
 *(.debug_abbrev)

.debug_line
 *(.debug_line .debug_line.* .debug_line_end)

.debug_frame
 *(.debug_frame)

.debug_str
 *(.debug_str)

.debug_loc
 *(.debug_loc)

.debug_macinfo
 *(.debug_macinfo)

.debug_weaknames
 *(.debug_weaknames)

.debug_funcnames
 *(.debug_funcnames)

.debug_typenames
 *(.debug_typenames)

.debug_varnames
 *(.debug_varnames)

.debug_pubtypes
 *(.debug_pubtypes)

.debug_ranges
 *(.debug_ranges)

.debug_addr
 *(.debug_addr)

.debug_line_str
 *(.debug_line_str)

.debug_loclists
 *(.debug_loclists)

.debug_macro
 *(.debug_macro)

.debug_names
 *(.debug_names)

.debug_rnglists
 *(.debug_rnglists)

.debug_str_offsets
 *(.debug_str_offsets)

.debug_sup
 *(.debug_sup)

.gnu.attributes
                0x0000000000000000       0x10
 *(.gnu.attributes)
 .gnu.attributes
                0x0000000000000000       0x10 build/us/levels/bob/leveldata.o

.gptab.sdata
 *(.gptab.data)
 *(.gptab.sdata)

.gptab.sbss
 *(.gptab.bss)
 *(.gptab.sbss)

.mdebug.abi32   0x0000000000000000        0x0
 *(.mdebug.abi32)
 .mdebug.abi32  0x0000000000000000        0x0 build/us/levels/bob/leveldata.o

.mdebug.abiN32
 *(.mdebug.abiN32)

.mdebug.abi64
 *(.mdebug.abi64)

.mdebug.abiO64
 *(.mdebug.abiO64)

.mdebug.eabi32
 *(.mdebug.eabi32)

.mdebug.eabi64
 *(.mdebug.eabi64)

.gcc_compiled_long32
 *(.gcc_compiled_long32)

.gcc_compiled_long64
 *(.gcc_compiled_long64)

/DISCARD/
 *(.note.GNU-stack)
 *(.gnu_debuglink)
 *(.gnu.lto_*)
OUTPUT(build/us/levels/bob/leveldata.elf elf32-bigmips)
